

Microchip MPLAB XC8 Assembler V2.31 build 20201012212115 
                                                                                               Wed Aug 04 20:45:10 2021

Microchip MPLAB XC8 C Compiler v2.31 (Free license) build 20201012212115 Og1 
     1                           	processor	16F887
     2                           	pagewidth 120
     3                           	opt	flic
     4                           	psect	strings,global,class=STRING,delta=2,noexec
     5                           	psect	cinit,global,class=CODE,merge=1,delta=2
     6                           	psect	bssCOMMON,global,class=COMMON,space=1,delta=1,noexec
     7                           	psect	bssBANK0,global,class=BANK0,space=1,delta=1,noexec
     8                           	psect	cstackCOMMON,global,class=COMMON,space=1,delta=1,noexec
     9                           	psect	cstackBANK0,global,class=BANK0,space=1,delta=1,noexec
    10                           	psect	maintext,global,class=CODE,split=1,delta=2
    11                           	psect	text1,local,class=CODE,merge=1,delta=2
    12                           	psect	text2,local,class=CODE,merge=1,delta=2
    13                           	psect	text3,local,class=CODE,merge=1,delta=2
    14                           	psect	text4,local,class=CODE,merge=1,delta=2
    15                           	psect	text5,local,class=CODE,merge=1,delta=2
    16                           	psect	text6,local,class=CODE,merge=1,delta=2,group=1
    17                           	psect	text7,local,class=CODE,merge=1,delta=2,group=1
    18                           	psect	text8,local,class=CODE,merge=1,delta=2,group=1
    19                           	psect	text9,local,class=CODE,merge=1,delta=2,group=1
    20                           	psect	text10,local,class=CODE,merge=1,delta=2,group=1
    21                           	psect	text11,local,class=CODE,merge=1,delta=2,group=1
    22                           	psect	text12,local,class=CODE,merge=1,delta=2,group=1
    23                           	psect	text13,local,class=CODE,merge=1,delta=2,group=1
    24                           	psect	text14,local,class=CODE,merge=1,delta=2
    25                           	psect	text15,local,class=CODE,merge=1,delta=2
    26                           	psect	text16,local,class=CODE,merge=1,delta=2
    27                           	psect	text17,local,class=CODE,merge=1,delta=2
    28                           	psect	text18,local,class=CODE,merge=1,delta=2,group=1
    29                           	psect	text19,local,class=CODE,merge=1,delta=2
    30                           	psect	text20,local,class=CODE,merge=1,delta=2
    31                           	psect	text21,local,class=CODE,merge=1,delta=2
    32                           	psect	text22,local,class=CODE,merge=1,delta=2
    33                           	psect	text23,local,class=CODE,merge=1,delta=2
    34                           	psect	text24,local,class=CODE,merge=1,delta=2
    35                           	psect	text25,local,class=CODE,merge=1,delta=2
    36                           	psect	text26,local,class=CODE,merge=1,delta=2
    37                           	psect	intentry,global,class=CODE,delta=2
    38                           	psect	config,global,abs,ovrld,class=CONFIG,space=4,delta=2,noexec
    39                           	dabs	1,0x7E,2
    40  0000                     
    41                           ; Version 2.20
    42                           ; Generated 12/02/2020 GMT
    43                           ; 
    44                           ; Copyright © 2020, Microchip Technology Inc. and its subsidiaries ("Microchip")
    45                           ; All rights reserved.
    46                           ; 
    47                           ; This software is developed by Microchip Technology Inc. and its subsidiaries ("Microch
      +                          ip").
    48                           ; 
    49                           ; Redistribution and use in source and binary forms, with or without modification, are
    50                           ; permitted provided that the following conditions are met:
    51                           ; 
    52                           ;     1. Redistributions of source code must retain the above copyright notice, this lis
      +                          t of
    53                           ;        conditions and the following disclaimer.
    54                           ; 
    55                           ;     2. Redistributions in binary form must reproduce the above copyright notice, this 
      +                          list
    56                           ;        of conditions and the following disclaimer in the documentation and/or other
    57                           ;        materials provided with the distribution.
    58                           ; 
    59                           ;     3. Microchip's name may not be used to endorse or promote products derived from th
      +                          is
    60                           ;        software without specific prior written permission.
    61                           ; 
    62                           ; THIS SOFTWARE IS PROVIDED BY MICROCHIP "AS IS" AND ANY EXPRESS OR IMPLIED WARRANTIES,
    63                           ; INCLUDING, BUT NOT LIMITED TO, THE IMPLIED WARRANTIES OF MERCHANTABILITY AND FITNESS F
      +                          OR
    64                           ; PURPOSE ARE DISCLAIMED.  IN NO EVENT SHALL MICROCHIP BE LIABLE FOR ANY DIRECT, INDIREC
      +                          T,
    65                           ; INCIDENTAL, SPECIAL, EXEMPLARY, OR CONSEQUENTIAL DAMAGES (INCLUDING BUT NOT LIMITED TO
    66                           ; PROCUREMENT OF SUBSTITUTE GOODS OR SERVICES; LOSS OF USE, DATA OR PROFITS; OR BUSINESS
    67                           ; INTERRUPTION) HOWSOEVER CAUSED AND ON ANY THEORY OF LIABILITY, WHETHER IN CONTRACT, ST
      +                          RICT
    68                           ; LIABILITY, OR TORT (INCLUDING NEGLIGENCE OR OTHERWISE) ARISING IN ANY WAY OUT OF THE U
      +                          SE OF
    69                           ; THIS SOFTWARE, EVEN IF ADVISED OF THE POSSIBILITY OF SUCH DAMAGE.
    70                           ; 
    71                           ; 
    72                           ; Code-generator required, PIC16F887 Definitions
    73                           ; 
    74                           ; SFR Addresses
    75  0000                     	;# 
    76  0001                     	;# 
    77  0002                     	;# 
    78  0003                     	;# 
    79  0004                     	;# 
    80  0005                     	;# 
    81  0006                     	;# 
    82  0007                     	;# 
    83  0008                     	;# 
    84  0009                     	;# 
    85  000A                     	;# 
    86  000B                     	;# 
    87  000C                     	;# 
    88  000D                     	;# 
    89  000E                     	;# 
    90  000E                     	;# 
    91  000F                     	;# 
    92  0010                     	;# 
    93  0011                     	;# 
    94  0012                     	;# 
    95  0013                     	;# 
    96  0014                     	;# 
    97  0015                     	;# 
    98  0015                     	;# 
    99  0016                     	;# 
   100  0017                     	;# 
   101  0018                     	;# 
   102  0019                     	;# 
   103  001A                     	;# 
   104  001B                     	;# 
   105  001B                     	;# 
   106  001C                     	;# 
   107  001D                     	;# 
   108  001E                     	;# 
   109  001F                     	;# 
   110  0081                     	;# 
   111  0085                     	;# 
   112  0086                     	;# 
   113  0087                     	;# 
   114  0088                     	;# 
   115  0089                     	;# 
   116  008C                     	;# 
   117  008D                     	;# 
   118  008E                     	;# 
   119  008F                     	;# 
   120  0090                     	;# 
   121  0091                     	;# 
   122  0092                     	;# 
   123  0093                     	;# 
   124  0093                     	;# 
   125  0093                     	;# 
   126  0094                     	;# 
   127  0095                     	;# 
   128  0096                     	;# 
   129  0097                     	;# 
   130  0098                     	;# 
   131  0099                     	;# 
   132  009A                     	;# 
   133  009B                     	;# 
   134  009C                     	;# 
   135  009D                     	;# 
   136  009E                     	;# 
   137  009F                     	;# 
   138  0105                     	;# 
   139  0107                     	;# 
   140  0108                     	;# 
   141  0109                     	;# 
   142  010C                     	;# 
   143  010C                     	;# 
   144  010D                     	;# 
   145  010E                     	;# 
   146  010F                     	;# 
   147  0185                     	;# 
   148  0187                     	;# 
   149  0188                     	;# 
   150  0189                     	;# 
   151  018C                     	;# 
   152  018D                     	;# 
   153  0000                     	;# 
   154  0001                     	;# 
   155  0002                     	;# 
   156  0003                     	;# 
   157  0004                     	;# 
   158  0005                     	;# 
   159  0006                     	;# 
   160  0007                     	;# 
   161  0008                     	;# 
   162  0009                     	;# 
   163  000A                     	;# 
   164  000B                     	;# 
   165  000C                     	;# 
   166  000D                     	;# 
   167  000E                     	;# 
   168  000E                     	;# 
   169  000F                     	;# 
   170  0010                     	;# 
   171  0011                     	;# 
   172  0012                     	;# 
   173  0013                     	;# 
   174  0014                     	;# 
   175  0015                     	;# 
   176  0015                     	;# 
   177  0016                     	;# 
   178  0017                     	;# 
   179  0018                     	;# 
   180  0019                     	;# 
   181  001A                     	;# 
   182  001B                     	;# 
   183  001B                     	;# 
   184  001C                     	;# 
   185  001D                     	;# 
   186  001E                     	;# 
   187  001F                     	;# 
   188  0081                     	;# 
   189  0085                     	;# 
   190  0086                     	;# 
   191  0087                     	;# 
   192  0088                     	;# 
   193  0089                     	;# 
   194  008C                     	;# 
   195  008D                     	;# 
   196  008E                     	;# 
   197  008F                     	;# 
   198  0090                     	;# 
   199  0091                     	;# 
   200  0092                     	;# 
   201  0093                     	;# 
   202  0093                     	;# 
   203  0093                     	;# 
   204  0094                     	;# 
   205  0095                     	;# 
   206  0096                     	;# 
   207  0097                     	;# 
   208  0098                     	;# 
   209  0099                     	;# 
   210  009A                     	;# 
   211  009B                     	;# 
   212  009C                     	;# 
   213  009D                     	;# 
   214  009E                     	;# 
   215  009F                     	;# 
   216  0105                     	;# 
   217  0107                     	;# 
   218  0108                     	;# 
   219  0109                     	;# 
   220  010C                     	;# 
   221  010C                     	;# 
   222  010D                     	;# 
   223  010E                     	;# 
   224  010F                     	;# 
   225  0185                     	;# 
   226  0187                     	;# 
   227  0188                     	;# 
   228  0189                     	;# 
   229  018C                     	;# 
   230  018D                     	;# 
   231  0000                     	;# 
   232  0001                     	;# 
   233  0002                     	;# 
   234  0003                     	;# 
   235  0004                     	;# 
   236  0005                     	;# 
   237  0006                     	;# 
   238  0007                     	;# 
   239  0008                     	;# 
   240  0009                     	;# 
   241  000A                     	;# 
   242  000B                     	;# 
   243  000C                     	;# 
   244  000D                     	;# 
   245  000E                     	;# 
   246  000E                     	;# 
   247  000F                     	;# 
   248  0010                     	;# 
   249  0011                     	;# 
   250  0012                     	;# 
   251  0013                     	;# 
   252  0014                     	;# 
   253  0015                     	;# 
   254  0015                     	;# 
   255  0016                     	;# 
   256  0017                     	;# 
   257  0018                     	;# 
   258  0019                     	;# 
   259  001A                     	;# 
   260  001B                     	;# 
   261  001B                     	;# 
   262  001C                     	;# 
   263  001D                     	;# 
   264  001E                     	;# 
   265  001F                     	;# 
   266  0081                     	;# 
   267  0085                     	;# 
   268  0086                     	;# 
   269  0087                     	;# 
   270  0088                     	;# 
   271  0089                     	;# 
   272  008C                     	;# 
   273  008D                     	;# 
   274  008E                     	;# 
   275  008F                     	;# 
   276  0090                     	;# 
   277  0091                     	;# 
   278  0092                     	;# 
   279  0093                     	;# 
   280  0093                     	;# 
   281  0093                     	;# 
   282  0094                     	;# 
   283  0095                     	;# 
   284  0096                     	;# 
   285  0097                     	;# 
   286  0098                     	;# 
   287  0099                     	;# 
   288  009A                     	;# 
   289  009B                     	;# 
   290  009C                     	;# 
   291  009D                     	;# 
   292  009E                     	;# 
   293  009F                     	;# 
   294  0105                     	;# 
   295  0107                     	;# 
   296  0108                     	;# 
   297  0109                     	;# 
   298  010C                     	;# 
   299  010C                     	;# 
   300  010D                     	;# 
   301  010E                     	;# 
   302  010F                     	;# 
   303  0185                     	;# 
   304  0187                     	;# 
   305  0188                     	;# 
   306  0189                     	;# 
   307  018C                     	;# 
   308  018D                     	;# 
   309  0000                     	;# 
   310  0001                     	;# 
   311  0002                     	;# 
   312  0003                     	;# 
   313  0004                     	;# 
   314  0005                     	;# 
   315  0006                     	;# 
   316  0007                     	;# 
   317  0008                     	;# 
   318  0009                     	;# 
   319  000A                     	;# 
   320  000B                     	;# 
   321  000C                     	;# 
   322  000D                     	;# 
   323  000E                     	;# 
   324  000E                     	;# 
   325  000F                     	;# 
   326  0010                     	;# 
   327  0011                     	;# 
   328  0012                     	;# 
   329  0013                     	;# 
   330  0014                     	;# 
   331  0015                     	;# 
   332  0015                     	;# 
   333  0016                     	;# 
   334  0017                     	;# 
   335  0018                     	;# 
   336  0019                     	;# 
   337  001A                     	;# 
   338  001B                     	;# 
   339  001B                     	;# 
   340  001C                     	;# 
   341  001D                     	;# 
   342  001E                     	;# 
   343  001F                     	;# 
   344  0081                     	;# 
   345  0085                     	;# 
   346  0086                     	;# 
   347  0087                     	;# 
   348  0088                     	;# 
   349  0089                     	;# 
   350  008C                     	;# 
   351  008D                     	;# 
   352  008E                     	;# 
   353  008F                     	;# 
   354  0090                     	;# 
   355  0091                     	;# 
   356  0092                     	;# 
   357  0093                     	;# 
   358  0093                     	;# 
   359  0093                     	;# 
   360  0094                     	;# 
   361  0095                     	;# 
   362  0096                     	;# 
   363  0097                     	;# 
   364  0098                     	;# 
   365  0099                     	;# 
   366  009A                     	;# 
   367  009B                     	;# 
   368  009C                     	;# 
   369  009D                     	;# 
   370  009E                     	;# 
   371  009F                     	;# 
   372  0105                     	;# 
   373  0107                     	;# 
   374  0108                     	;# 
   375  0109                     	;# 
   376  010C                     	;# 
   377  010C                     	;# 
   378  010D                     	;# 
   379  010E                     	;# 
   380  010F                     	;# 
   381  0185                     	;# 
   382  0187                     	;# 
   383  0188                     	;# 
   384  0189                     	;# 
   385  018C                     	;# 
   386  018D                     	;# 
   387  0013                     _SSPBUF	set	19
   388  0014                     _SSPCON	set	20
   389  0009                     _PORTE	set	9
   390  0008                     _PORTD	set	8
   391  0006                     _PORTB	set	6
   392  0005                     _PORTA	set	5
   393  0049                     _RE1	set	73
   394  0048                     _RE0	set	72
   395  0091                     _SSPCON2bits	set	145
   396  0087                     _TRISCbits	set	135
   397  0093                     _SSPADD	set	147
   398  0094                     _SSPSTAT	set	148
   399  0091                     _SSPCON2	set	145
   400  008F                     _OSCCONbits	set	143
   401  0089                     _TRISE	set	137
   402  0088                     _TRISD	set	136
   403  0086                     _TRISB	set	134
   404  0085                     _TRISA	set	133
   405  0189                     _ANSELH	set	393
   406  0188                     _ANSEL	set	392
   407                           
   408                           	psect	strings
   409  0800                     __pstrings:
   410  0800                     stringtab:
   411  0800                     __stringtab:
   412  0800                     stringcode:	
   413                           ;	String table - string pointers are 1 byte each
   414                           
   415  0800                     stringdir:
   416  0800  3008               	movlw	high stringdir
   417  0801  008A               	movwf	10
   418  0802  0804               	movf	4,w
   419  0803  0A84               	incf	4,f
   420  0804  0782               	addwf	2,f
   421  0805                     __stringbase:
   422  0805  3400               	retlw	0
   423  0806                     __end_of__stringtab:
   424  0806                     STR_1:
   425  0806  3453               	retlw	83	;'S'
   426  0807  3431               	retlw	49	;'1'
   427  0808  343A               	retlw	58	;':'
   428  0809  3420               	retlw	32	;' '
   429  080A  3420               	retlw	32	;' '
   430  080B  3420               	retlw	32	;' '
   431  080C  3453               	retlw	83	;'S'
   432  080D  3432               	retlw	50	;'2'
   433  080E  343A               	retlw	58	;':'
   434  080F  3420               	retlw	32	;' '
   435  0810  3420               	retlw	32	;' '
   436  0811  3420               	retlw	32	;' '
   437  0812  3453               	retlw	83	;'S'
   438  0813  3433               	retlw	51	;'3'
   439  0814  343A               	retlw	58	;':'
   440  0815  3400               	retlw	0
   441                           
   442                           	psect	cinit
   443  000F                     start_initialization:	
   444                           ; #config settings
   445                           
   446  000F                     __initialization:
   447                           
   448                           ; Clear objects allocated to COMMON
   449  000F  01FA               	clrf	__pbssCOMMON& (0+127)
   450  0010  01FB               	clrf	(__pbssCOMMON+1)& (0+127)
   451                           
   452                           ; Clear objects allocated to BANK0
   453  0011  1283               	bcf	3,5	;RP0=0, select bank0
   454  0012  1303               	bcf	3,6	;RP1=0, select bank0
   455  0013  01E0               	clrf	__pbssBANK0& (0+127)
   456  0014  01E1               	clrf	(__pbssBANK0+1)& (0+127)
   457  0015  01E2               	clrf	(__pbssBANK0+2)& (0+127)
   458  0016  01E3               	clrf	(__pbssBANK0+3)& (0+127)
   459  0017  01E4               	clrf	(__pbssBANK0+4)& (0+127)
   460  0018  01E5               	clrf	(__pbssBANK0+5)& (0+127)
   461  0019  01E6               	clrf	(__pbssBANK0+6)& (0+127)
   462  001A  01E7               	clrf	(__pbssBANK0+7)& (0+127)
   463  001B  01E8               	clrf	(__pbssBANK0+8)& (0+127)
   464  001C  01E9               	clrf	(__pbssBANK0+9)& (0+127)
   465  001D                     end_of_initialization:	
   466                           ;End of C runtime variable initialization code
   467                           
   468  001D                     __end_of__initialization:
   469  001D  0183               	clrf	3
   470  001E  120A  118A  2E0A   	ljmp	_main	;jump to C main() function
   471                           
   472                           	psect	bssCOMMON
   473  007A                     __pbssCOMMON:
   474  007A                     _DatS2:
   475  007A                     	ds	1
   476  007B                     _DatS1:
   477  007B                     	ds	1
   478                           
   479                           	psect	bssBANK0
   480  0060                     __pbssBANK0:
   481  0060                     _lect1:
   482  0060                     	ds	4
   483  0064                     _disp2:
   484  0064                     	ds	3
   485  0067                     _disp1:
   486  0067                     	ds	3
   487                           
   488                           	psect	cstackCOMMON
   489  0070                     __pcstackCOMMON:
   490  0070                     ?_config:
   491  0070                     ?_initLCD:	
   492                           ; 1 bytes @ 0x0
   493                           
   494  0070                     ?_MasterStart_I2C:	
   495                           ; 1 bytes @ 0x0
   496                           
   497  0070                     ?_MasterSend_I2C:	
   498                           ; 1 bytes @ 0x0
   499                           
   500  0070                     ?_MasterReceive_I2C:	
   501                           ; 1 bytes @ 0x0
   502                           
   503  0070                     ?_MasterStop_I2C:	
   504                           ; 1 bytes @ 0x0
   505                           
   506  0070                     ?_LCDstring:	
   507                           ; 1 bytes @ 0x0
   508                           
   509  0070                     ?_dispCHAR:	
   510                           ; 1 bytes @ 0x0
   511                           
   512  0070                     ?_comandoLCD:	
   513                           ; 1 bytes @ 0x0
   514                           
   515  0070                     ?_interrupcion:	
   516                           ; 1 bytes @ 0x0
   517                           
   518  0070                     ??_interrupcion:	
   519                           ; 1 bytes @ 0x0
   520                           
   521  0070                     ?_main:	
   522                           ; 1 bytes @ 0x0
   523                           
   524  0070                     ?_waitCondition:	
   525                           ; 1 bytes @ 0x0
   526                           
   527                           
   528                           ; 1 bytes @ 0x0
   529  0070                     	ds	2
   530  0072                     ??_MasterStart_I2C:
   531  0072                     ??_MasterSend_I2C:	
   532                           ; 1 bytes @ 0x2
   533                           
   534  0072                     ??_MasterReceive_I2C:	
   535                           ; 1 bytes @ 0x2
   536                           
   537  0072                     ??_MasterStop_I2C:	
   538                           ; 1 bytes @ 0x2
   539                           
   540  0072                     ??_dispCHAR:	
   541                           ; 1 bytes @ 0x2
   542                           
   543  0072                     ??_comandoLCD:	
   544                           ; 1 bytes @ 0x2
   545                           
   546  0072                     ??_waitCondition:	
   547                           ; 1 bytes @ 0x2
   548                           
   549  0072                     ?___bmul:	
   550                           ; 1 bytes @ 0x2
   551                           
   552  0072                     ?__Umul8_16:	
   553                           ; 1 bytes @ 0x2
   554                           
   555  0072                     ?___awdiv:	
   556                           ; 2 bytes @ 0x2
   557                           
   558  0072                     ?___lldiv:	
   559                           ; 2 bytes @ 0x2
   560                           
   561  0072                     ?___fladd:	
   562                           ; 4 bytes @ 0x2
   563                           
   564  0072                     ?___xxtofl:	
   565                           ; 4 bytes @ 0x2
   566                           
   567  0072                     MasterSend_I2C@dato:	
   568                           ; 4 bytes @ 0x2
   569                           
   570  0072                     ___bmul@multiplicand:	
   571                           ; 1 bytes @ 0x2
   572                           
   573  0072                     __Umul8_16@multiplicand:	
   574                           ; 1 bytes @ 0x2
   575                           
   576  0072                     ___awdiv@divisor:	
   577                           ; 1 bytes @ 0x2
   578                           
   579  0072                     ___lldiv@divisor:	
   580                           ; 2 bytes @ 0x2
   581                           
   582  0072                     ___fladd@b:	
   583                           ; 4 bytes @ 0x2
   584                           
   585  0072                     ___xxtofl@val:	
   586                           ; 4 bytes @ 0x2
   587                           
   588                           
   589                           ; 4 bytes @ 0x2
   590  0072                     	ds	1
   591  0073                     ??___bmul:
   592  0073                     MasterReceive_I2C@valor:	
   593                           ; 1 bytes @ 0x3
   594                           
   595  0073                     dispCHAR@b:	
   596                           ; 1 bytes @ 0x3
   597                           
   598                           
   599                           ; 1 bytes @ 0x3
   600  0073                     	ds	1
   601  0074                     ??_LCDstring:
   602  0074                     ??__Umul8_16:	
   603                           ; 1 bytes @ 0x4
   604                           
   605  0074                     comandoLCD@cmd:	
   606                           ; 1 bytes @ 0x4
   607                           
   608  0074                     ___bmul@product:	
   609                           ; 1 bytes @ 0x4
   610                           
   611  0074                     ___awdiv@dividend:	
   612                           ; 1 bytes @ 0x4
   613                           
   614                           
   615                           ; 2 bytes @ 0x4
   616  0074                     	ds	1
   617  0075                     ??_initLCD:
   618  0075                     ?_cursorLCD:	
   619                           ; 1 bytes @ 0x5
   620                           
   621  0075                     cursorLCD@columna:	
   622                           ; 1 bytes @ 0x5
   623                           
   624  0075                     LCDstring@mensaje:	
   625                           ; 1 bytes @ 0x5
   626                           
   627  0075                     ___bmul@multiplier:	
   628                           ; 1 bytes @ 0x5
   629                           
   630                           
   631                           ; 1 bytes @ 0x5
   632  0075                     	ds	1
   633  0076                     ??_cursorLCD:
   634  0076                     ??___awdiv:	
   635                           ; 1 bytes @ 0x6
   636                           
   637  0076                     ??___xxtofl:	
   638                           ; 1 bytes @ 0x6
   639                           
   640  0076                     ___lldiv@dividend:	
   641                           ; 1 bytes @ 0x6
   642                           
   643  0076                     ___fladd@a:	
   644                           ; 4 bytes @ 0x6
   645                           
   646                           
   647                           ; 4 bytes @ 0x6
   648  0076                     	ds	1
   649  0077                     ??_division:
   650  0077                     ??_divisiondecimal:	
   651                           ; 1 bytes @ 0x7
   652                           
   653  0077                     cursorLCD@fila:	
   654                           ; 1 bytes @ 0x7
   655                           
   656                           
   657                           ; 1 bytes @ 0x7
   658  0077                     	ds	1
   659  0078                     cursorLCD@temp:
   660                           
   661                           ; 1 bytes @ 0x8
   662  0078                     	ds	2
   663  007A                     ??_config:
   664  007A                     ??___flsub:	
   665                           ; 1 bytes @ 0xA
   666                           
   667                           
   668                           	psect	cstackBANK0
   669  0020                     __pcstackBANK0:	
   670                           ; 1 bytes @ 0xA
   671                           
   672  0020                     ??___lldiv:
   673  0020                     ??___fladd:	
   674                           ; 1 bytes @ 0x0
   675                           
   676  0020                     ___awdiv@counter:	
   677                           ; 1 bytes @ 0x0
   678                           
   679  0020                     ___xxtofl@sign:	
   680                           ; 1 bytes @ 0x0
   681                           
   682  0020                     __Umul8_16@product:	
   683                           ; 1 bytes @ 0x0
   684                           
   685                           
   686                           ; 2 bytes @ 0x0
   687  0020                     	ds	1
   688  0021                     ___awdiv@sign:
   689  0021                     ___xxtofl@exp:	
   690                           ; 1 bytes @ 0x1
   691                           
   692  0021                     ___lldiv@quotient:	
   693                           ; 1 bytes @ 0x1
   694                           
   695                           
   696                           ; 4 bytes @ 0x1
   697  0021                     	ds	1
   698  0022                     ___awdiv@quotient:
   699  0022                     __Umul8_16@word_mpld:	
   700                           ; 2 bytes @ 0x2
   701                           
   702  0022                     ___xxtofl@arg:	
   703                           ; 2 bytes @ 0x2
   704                           
   705                           
   706                           ; 4 bytes @ 0x2
   707  0022                     	ds	2
   708  0024                     ?_division:
   709  0024                     ?_divisiondecimal:	
   710                           ; 1 bytes @ 0x4
   711                           
   712  0024                     division@un:	
   713                           ; 1 bytes @ 0x4
   714                           
   715  0024                     divisiondecimal@un:	
   716                           ; 1 bytes @ 0x4
   717                           
   718  0024                     __Umul8_16@multiplier:	
   719                           ; 1 bytes @ 0x4
   720                           
   721                           
   722                           ; 1 bytes @ 0x4
   723  0024                     	ds	1
   724  0025                     division@dec:
   725  0025                     divisiondecimal@dec:	
   726                           ; 1 bytes @ 0x5
   727                           
   728  0025                     ___lldiv@counter:	
   729                           ; 1 bytes @ 0x5
   730                           
   731                           
   732                           ; 1 bytes @ 0x5
   733  0025                     	ds	1
   734  0026                     ?_MasterInit_I2C:
   735  0026                     ?___flmul:	
   736                           ; 1 bytes @ 0x6
   737                           
   738  0026                     division@conteo:	
   739                           ; 4 bytes @ 0x6
   740                           
   741  0026                     divisiondecimal@cent:	
   742                           ; 1 bytes @ 0x6
   743                           
   744  0026                     MasterInit_I2C@frec:	
   745                           ; 1 bytes @ 0x6
   746                           
   747  0026                     ___flmul@b:	
   748                           ; 4 bytes @ 0x6
   749                           
   750                           
   751                           ; 4 bytes @ 0x6
   752  0026                     	ds	1
   753  0027                     division@div:
   754  0027                     divisiondecimal@conteo:	
   755                           ; 1 bytes @ 0x7
   756                           
   757                           
   758                           ; 1 bytes @ 0x7
   759  0027                     	ds	1
   760  0028                     divisiondecimal@div:
   761  0028                     ___fladd@signs:	
   762                           ; 1 bytes @ 0x8
   763                           
   764                           
   765                           ; 1 bytes @ 0x8
   766  0028                     	ds	1
   767  0029                     ?_hexTochar:
   768  0029                     hexTochar@conv:	
   769                           ; 1 bytes @ 0x9
   770                           
   771  0029                     ___fladd@aexp:	
   772                           ; 1 bytes @ 0x9
   773                           
   774                           
   775                           ; 1 bytes @ 0x9
   776  0029                     	ds	1
   777  002A                     ??_hexTochar:
   778  002A                     ??_MasterInit_I2C:	
   779                           ; 1 bytes @ 0xA
   780                           
   781  002A                     ___fladd@bexp:	
   782                           ; 1 bytes @ 0xA
   783                           
   784  002A                     ___flmul@a:	
   785                           ; 1 bytes @ 0xA
   786                           
   787                           
   788                           ; 4 bytes @ 0xA
   789  002A                     	ds	1
   790  002B                     ___fladd@grs:
   791                           
   792                           ; 1 bytes @ 0xB
   793  002B                     	ds	1
   794  002C                     ?___flsub:
   795  002C                     ___flsub@a:	
   796                           ; 4 bytes @ 0xC
   797                           
   798                           
   799                           ; 4 bytes @ 0xC
   800  002C                     	ds	1
   801  002D                     hexTochar@valor:
   802                           
   803                           ; 1 bytes @ 0xD
   804  002D                     	ds	1
   805  002E                     ??___flmul:
   806  002E                     hexTochar@unidad:	
   807                           ; 1 bytes @ 0xE
   808                           
   809                           
   810                           ; 1 bytes @ 0xE
   811  002E                     	ds	1
   812  002F                     hexTochar@centena:
   813                           
   814                           ; 1 bytes @ 0xF
   815  002F                     	ds	1
   816  0030                     hexTochar@decena:
   817  0030                     ___flsub@b:	
   818                           ; 1 bytes @ 0x10
   819                           
   820                           
   821                           ; 4 bytes @ 0x10
   822  0030                     	ds	3
   823  0033                     ___flmul@sign:
   824                           
   825                           ; 1 bytes @ 0x13
   826  0033                     	ds	1
   827  0034                     ___flmul@aexp:
   828                           
   829                           ; 1 bytes @ 0x14
   830  0034                     	ds	1
   831  0035                     ___flmul@grs:
   832                           
   833                           ; 4 bytes @ 0x15
   834  0035                     	ds	4
   835  0039                     ___flmul@bexp:
   836                           
   837                           ; 1 bytes @ 0x19
   838  0039                     	ds	1
   839  003A                     ___flmul@prod:
   840                           
   841                           ; 4 bytes @ 0x1A
   842  003A                     	ds	4
   843  003E                     ___flmul@temp:
   844                           
   845                           ; 2 bytes @ 0x1E
   846  003E                     	ds	2
   847  0040                     ?___fltol:
   848  0040                     ___fltol@f1:	
   849                           ; 4 bytes @ 0x20
   850                           
   851                           
   852                           ; 4 bytes @ 0x20
   853  0040                     	ds	4
   854  0044                     ??___fltol:
   855                           
   856                           ; 1 bytes @ 0x24
   857  0044                     	ds	5
   858  0049                     ___fltol@sign1:
   859                           
   860                           ; 1 bytes @ 0x29
   861  0049                     	ds	1
   862  004A                     ___fltol@exp1:
   863                           
   864                           ; 1 bytes @ 0x2A
   865  004A                     	ds	1
   866  004B                     ?_floTochar:
   867  004B                     floTochar@valor:	
   868                           ; 1 bytes @ 0x2B
   869                           
   870                           
   871                           ; 4 bytes @ 0x2B
   872  004B                     	ds	4
   873  004F                     floTochar@conv:
   874                           
   875                           ; 1 bytes @ 0x2F
   876  004F                     	ds	1
   877  0050                     ??_floTochar:
   878                           
   879                           ; 1 bytes @ 0x30
   880  0050                     	ds	4
   881  0054                     floTochar@temp:
   882                           
   883                           ; 4 bytes @ 0x34
   884  0054                     	ds	4
   885  0058                     floTochar@decimal:
   886                           
   887                           ; 1 bytes @ 0x38
   888  0058                     	ds	1
   889  0059                     floTochar@entero:
   890                           
   891                           ; 1 bytes @ 0x39
   892  0059                     	ds	1
   893  005A                     floTochar@digdecimal:
   894                           
   895                           ; 2 bytes @ 0x3A
   896  005A                     	ds	2
   897  005C                     ??_main:
   898                           
   899                           ; 1 bytes @ 0x3C
   900  005C                     	ds	4
   901                           
   902                           	psect	maintext
   903  060A                     __pmaintext:	
   904 ;;
   905 ;;Main: autosize = 0, tempsize = 4, incstack = 0, save=0
   906 ;;
   907 ;; *************** function _main *****************
   908 ;; Defined at:
   909 ;;		line 59 in file "main.c"
   910 ;; Parameters:    Size  Location     Type
   911 ;;		None
   912 ;; Auto vars:     Size  Location     Type
   913 ;;		None
   914 ;; Return value:  Size  Location     Type
   915 ;;                  1    wreg      void 
   916 ;; Registers used:
   917 ;;		wreg, fsr0l, fsr0h, status,2, status,0, btemp+1, pclath, cstack
   918 ;; Tracked objects:
   919 ;;		On entry : B00/0
   920 ;;		On exit  : 0/0
   921 ;;		Unchanged: 0/0
   922 ;; Data sizes:     COMMON   BANK0   BANK1   BANK3   BANK2
   923 ;;      Params:         0       0       0       0       0
   924 ;;      Locals:         0       0       0       0       0
   925 ;;      Temps:          0       4       0       0       0
   926 ;;      Totals:         0       4       0       0       0
   927 ;;Total ram usage:        4 bytes
   928 ;; Hardware stack levels required when called:    4
   929 ;; This function calls:
   930 ;;		_LCDstring
   931 ;;		_MasterReceive_I2C
   932 ;;		_MasterSend_I2C
   933 ;;		_MasterStart_I2C
   934 ;;		_MasterStop_I2C
   935 ;;		___flmul
   936 ;;		___xxtofl
   937 ;;		_config
   938 ;;		_cursorLCD
   939 ;;		_dispCHAR
   940 ;;		_floTochar
   941 ;;		_hexTochar
   942 ;;		_initLCD
   943 ;; This function is called by:
   944 ;;		Startup code after reset
   945 ;; This function uses a non-reentrant model
   946 ;;
   947                           
   948                           
   949                           ;psect for function _main
   950  060A                     _main:
   951  060A                     l2468:	
   952                           ;incstack = 0
   953                           ; Regs used in _main: [wreg-fsr0h+status,2+status,0+btemp+1+pclath+cstack]
   954                           
   955                           
   956                           ;main.c: 60:     config();
   957  060A  120A  158A  247E  120A  118A  	fcall	_config
   958                           
   959                           ;main.c: 61:     initLCD();
   960  060F  120A  158A  2550  120A  118A  	fcall	_initLCD
   961  0614                     l72:	
   962                           ;main.c: 62:     while(1){
   963                           
   964                           
   965                           ;main.c: 64:         MasterStart_I2C();
   966  0614  120A  158A  2395  120A  118A  	fcall	_MasterStart_I2C
   967                           
   968                           ;main.c: 65:         MasterSend_I2C(0X21);
   969  0619  3021               	movlw	33
   970  061A  120A  158A  23A7  120A  118A  	fcall	_MasterSend_I2C
   971  061F                     l2470:
   972                           
   973                           ;main.c: 66:         MasterReceive_I2C(&DatS1);
   974  061F  307B               	movlw	(low (_DatS1| 0))& (0+255)
   975  0620  120A  158A  2417  120A  118A  	fcall	_MasterReceive_I2C
   976  0625                     l2472:
   977                           
   978                           ;main.c: 67:         MasterStop_I2C();
   979  0625  120A  158A  239E  120A  118A  	fcall	_MasterStop_I2C
   980  062A                     l2474:
   981                           
   982                           ;main.c: 68:         _delay((unsigned long)((100)*(8000000/4000.0)));
   983  062A  3002               	movlw	2
   984  062B  1283               	bcf	3,5	;RP0=0, select bank0
   985  062C  1303               	bcf	3,6	;RP1=0, select bank0
   986  062D  00DE               	movwf	??_main+2
   987  062E  3004               	movlw	4
   988  062F  00DD               	movwf	??_main+1
   989  0630  30B9               	movlw	185
   990  0631  00DC               	movwf	??_main
   991  0632                     u3387:
   992  0632  0BDC               	decfsz	??_main,f
   993  0633  2E32               	goto	u3387
   994  0634  0BDD               	decfsz	??_main+1,f
   995  0635  2E32               	goto	u3387
   996  0636  0BDE               	decfsz	??_main+2,f
   997  0637  2E32               	goto	u3387
   998  0638  2E39               	nop2
   999  0639                     l2476:
  1000                           
  1001                           ;main.c: 70:         MasterStart_I2C();
  1002  0639  120A  158A  2395  120A  118A  	fcall	_MasterStart_I2C
  1003  063E                     l2478:
  1004                           
  1005                           ;main.c: 71:         MasterSend_I2C(0X31);
  1006  063E  3031               	movlw	49
  1007  063F  120A  158A  23A7  120A  118A  	fcall	_MasterSend_I2C
  1008  0644                     l2480:
  1009                           
  1010                           ;main.c: 72:         MasterReceive_I2C(&DatS2);
  1011  0644  307A               	movlw	(low (_DatS2| 0))& (0+255)
  1012  0645  120A  158A  2417  120A  118A  	fcall	_MasterReceive_I2C
  1013  064A                     l2482:
  1014                           
  1015                           ;main.c: 73:         MasterStop_I2C();
  1016  064A  120A  158A  239E  120A  118A  	fcall	_MasterStop_I2C
  1017  064F                     l2484:
  1018                           
  1019                           ;main.c: 74:         _delay((unsigned long)((100)*(8000000/4000.0)));
  1020  064F  3002               	movlw	2
  1021  0650  1283               	bcf	3,5	;RP0=0, select bank0
  1022  0651  1303               	bcf	3,6	;RP1=0, select bank0
  1023  0652  00DE               	movwf	??_main+2
  1024  0653  3004               	movlw	4
  1025  0654  00DD               	movwf	??_main+1
  1026  0655  30B9               	movlw	185
  1027  0656  00DC               	movwf	??_main
  1028  0657                     u3397:
  1029  0657  0BDC               	decfsz	??_main,f
  1030  0658  2E57               	goto	u3397
  1031  0659  0BDD               	decfsz	??_main+1,f
  1032  065A  2E57               	goto	u3397
  1033  065B  0BDE               	decfsz	??_main+2,f
  1034  065C  2E57               	goto	u3397
  1035  065D  2E5E               	nop2
  1036  065E                     l2486:
  1037                           
  1038                           ;main.c: 77:         lect1 = (float)(0.01961)*(DatS1);
  1039  065E  303C               	movlw	60
  1040  065F  1283               	bcf	3,5	;RP0=0, select bank0
  1041  0660  1303               	bcf	3,6	;RP1=0, select bank0
  1042  0661  00A9               	movwf	___flmul@b+3
  1043  0662  30A0               	movlw	160
  1044  0663  00A8               	movwf	___flmul@b+2
  1045  0664  30A5               	movlw	165
  1046  0665  00A7               	movwf	___flmul@b+1
  1047  0666  3027               	movlw	39
  1048  0667  00A6               	movwf	___flmul@b
  1049  0668  087B               	movf	_DatS1,w
  1050  0669  00DC               	movwf	??_main
  1051  066A  01DD               	clrf	??_main+1
  1052  066B  01DE               	clrf	??_main+2
  1053  066C  01DF               	clrf	??_main+3
  1054  066D  085F               	movf	??_main+3,w
  1055  066E  00F5               	movwf	___xxtofl@val+3
  1056  066F  085E               	movf	??_main+2,w
  1057  0670  00F4               	movwf	___xxtofl@val+2
  1058  0671  085D               	movf	??_main+1,w
  1059  0672  00F3               	movwf	___xxtofl@val+1
  1060  0673  085C               	movf	??_main,w
  1061  0674  00F2               	movwf	___xxtofl@val
  1062  0675  3001               	movlw	1
  1063  0676  120A  118A  2719  120A  118A  	fcall	___xxtofl
  1064  067B  0875               	movf	?___xxtofl+3,w
  1065  067C  1283               	bcf	3,5	;RP0=0, select bank0
  1066  067D  1303               	bcf	3,6	;RP1=0, select bank0
  1067  067E  00AD               	movwf	___flmul@a+3
  1068  067F  0874               	movf	?___xxtofl+2,w
  1069  0680  00AC               	movwf	___flmul@a+2
  1070  0681  0873               	movf	?___xxtofl+1,w
  1071  0682  00AB               	movwf	___flmul@a+1
  1072  0683  0872               	movf	?___xxtofl,w
  1073  0684  00AA               	movwf	___flmul@a
  1074  0685  120A  118A  2021  120A  118A  	fcall	___flmul
  1075  068A  1283               	bcf	3,5	;RP0=0, select bank0
  1076  068B  1303               	bcf	3,6	;RP1=0, select bank0
  1077  068C  0829               	movf	?___flmul+3,w
  1078  068D  00E3               	movwf	_lect1+3
  1079  068E  0828               	movf	?___flmul+2,w
  1080  068F  00E2               	movwf	_lect1+2
  1081  0690  0827               	movf	?___flmul+1,w
  1082  0691  00E1               	movwf	_lect1+1
  1083  0692  0826               	movf	?___flmul,w
  1084  0693  00E0               	movwf	_lect1
  1085  0694                     l2488:
  1086                           
  1087                           ;main.c: 79:         floTochar(lect1,&disp1);
  1088  0694  0863               	movf	_lect1+3,w
  1089  0695  00CE               	movwf	floTochar@valor+3
  1090  0696  0862               	movf	_lect1+2,w
  1091  0697  00CD               	movwf	floTochar@valor+2
  1092  0698  0861               	movf	_lect1+1,w
  1093  0699  00CC               	movwf	floTochar@valor+1
  1094  069A  0860               	movf	_lect1,w
  1095  069B  00CB               	movwf	floTochar@valor
  1096  069C  3067               	movlw	(low (_disp1| 0))& (0+255)
  1097  069D  00DC               	movwf	??_main
  1098  069E  085C               	movf	??_main,w
  1099  069F  00CF               	movwf	floTochar@conv
  1100  06A0  120A  158A  2764  120A  118A  	fcall	_floTochar
  1101                           
  1102                           ;main.c: 80:         hexTochar(DatS2,&disp2);
  1103  06A5  3064               	movlw	(low (_disp2| 0))& (0+255)
  1104  06A6  1283               	bcf	3,5	;RP0=0, select bank0
  1105  06A7  1303               	bcf	3,6	;RP1=0, select bank0
  1106  06A8  00DC               	movwf	??_main
  1107  06A9  085C               	movf	??_main,w
  1108  06AA  00A9               	movwf	hexTochar@conv
  1109  06AB  087A               	movf	_DatS2,w
  1110  06AC  120A  158A  24A3  120A  118A  	fcall	_hexTochar
  1111  06B1                     l2490:
  1112                           
  1113                           ;main.c: 81:         cursorLCD(1,1);
  1114  06B1  01F5               	clrf	cursorLCD@columna
  1115  06B2  0AF5               	incf	cursorLCD@columna,f
  1116  06B3  3001               	movlw	1
  1117  06B4  120A  158A  2437  120A  118A  	fcall	_cursorLCD
  1118  06B9                     l2492:
  1119                           
  1120                           ;main.c: 82:         LCDstring("S1:   S2:   S3:");
  1121  06B9  3001               	movlw	(low ((STR_1-__stringbase)| (0+32768)))& (0+255)
  1122  06BA  120A  158A  23F8  120A  118A  	fcall	_LCDstring
  1123                           
  1124                           ;main.c: 83:         cursorLCD(2,1);
  1125  06BF  01F5               	clrf	cursorLCD@columna
  1126  06C0  0AF5               	incf	cursorLCD@columna,f
  1127  06C1  3002               	movlw	2
  1128  06C2  120A  158A  2437  120A  118A  	fcall	_cursorLCD
  1129                           
  1130                           ;main.c: 84:         dispCHAR(disp1[0]+48);
  1131  06C7  1283               	bcf	3,5	;RP0=0, select bank0
  1132  06C8  1303               	bcf	3,6	;RP1=0, select bank0
  1133  06C9  0867               	movf	_disp1,w
  1134  06CA  3E30               	addlw	48
  1135  06CB  120A  158A  23BF  120A  118A  	fcall	_dispCHAR
  1136                           
  1137                           ;main.c: 85:         dispCHAR('.');
  1138  06D0  302E               	movlw	46
  1139  06D1  120A  158A  23BF  120A  118A  	fcall	_dispCHAR
  1140                           
  1141                           ;main.c: 86:         dispCHAR(disp1[1]+48);
  1142  06D6  1283               	bcf	3,5	;RP0=0, select bank0
  1143  06D7  1303               	bcf	3,6	;RP1=0, select bank0
  1144  06D8  0868               	movf	_disp1+1,w
  1145  06D9  3E30               	addlw	48
  1146  06DA  120A  158A  23BF  120A  118A  	fcall	_dispCHAR
  1147                           
  1148                           ;main.c: 87:         dispCHAR(disp1[2]+48);
  1149  06DF  1283               	bcf	3,5	;RP0=0, select bank0
  1150  06E0  1303               	bcf	3,6	;RP1=0, select bank0
  1151  06E1  0869               	movf	_disp1+2,w
  1152  06E2  3E30               	addlw	48
  1153  06E3  120A  158A  23BF  120A  118A  	fcall	_dispCHAR
  1154                           
  1155                           ;main.c: 88:         dispCHAR('V');
  1156  06E8  3056               	movlw	86
  1157  06E9  120A  158A  23BF  120A  118A  	fcall	_dispCHAR
  1158                           
  1159                           ;main.c: 89:         cursorLCD(2,7);
  1160  06EE  3007               	movlw	7
  1161  06EF  1283               	bcf	3,5	;RP0=0, select bank0
  1162  06F0  1303               	bcf	3,6	;RP1=0, select bank0
  1163  06F1  00DC               	movwf	??_main
  1164  06F2  085C               	movf	??_main,w
  1165  06F3  00F5               	movwf	cursorLCD@columna
  1166  06F4  3002               	movlw	2
  1167  06F5  120A  158A  2437  120A  118A  	fcall	_cursorLCD
  1168                           
  1169                           ;main.c: 90:         dispCHAR(disp2[2]+48);
  1170  06FA  1283               	bcf	3,5	;RP0=0, select bank0
  1171  06FB  1303               	bcf	3,6	;RP1=0, select bank0
  1172  06FC  0866               	movf	_disp2+2,w
  1173  06FD  3E30               	addlw	48
  1174  06FE  120A  158A  23BF  120A  118A  	fcall	_dispCHAR
  1175                           
  1176                           ;main.c: 91:         dispCHAR(disp2[1]+48);
  1177  0703  1283               	bcf	3,5	;RP0=0, select bank0
  1178  0704  1303               	bcf	3,6	;RP1=0, select bank0
  1179  0705  0865               	movf	_disp2+1,w
  1180  0706  3E30               	addlw	48
  1181  0707  120A  158A  23BF  120A  118A  	fcall	_dispCHAR
  1182                           
  1183                           ;main.c: 92:         dispCHAR(disp2[0]+48);
  1184  070C  1283               	bcf	3,5	;RP0=0, select bank0
  1185  070D  1303               	bcf	3,6	;RP1=0, select bank0
  1186  070E  0864               	movf	_disp2,w
  1187  070F  3E30               	addlw	48
  1188  0710  120A  158A  23BF  120A  118A  	fcall	_dispCHAR
  1189  0715  2E14               	goto	l72
  1190  0716  120A  118A  280C   	ljmp	start
  1191  0719                     __end_of_main:
  1192                           
  1193                           	psect	text1
  1194  0D50                     __ptext1:	
  1195 ;; *************** function _initLCD *****************
  1196 ;; Defined at:
  1197 ;;		line 20 in file "LCDD2.c"
  1198 ;; Parameters:    Size  Location     Type
  1199 ;;		None
  1200 ;; Auto vars:     Size  Location     Type
  1201 ;;		None
  1202 ;; Return value:  Size  Location     Type
  1203 ;;                  1    wreg      void 
  1204 ;; Registers used:
  1205 ;;		wreg, status,2, status,0, pclath, cstack
  1206 ;; Tracked objects:
  1207 ;;		On entry : 0/0
  1208 ;;		On exit  : 0/0
  1209 ;;		Unchanged: 0/0
  1210 ;; Data sizes:     COMMON   BANK0   BANK1   BANK3   BANK2
  1211 ;;      Params:         0       0       0       0       0
  1212 ;;      Locals:         0       0       0       0       0
  1213 ;;      Temps:          2       0       0       0       0
  1214 ;;      Totals:         2       0       0       0       0
  1215 ;;Total ram usage:        2 bytes
  1216 ;; Hardware stack levels used:    1
  1217 ;; Hardware stack levels required when called:    2
  1218 ;; This function calls:
  1219 ;;		_comandoLCD
  1220 ;; This function is called by:
  1221 ;;		_main
  1222 ;; This function uses a non-reentrant model
  1223 ;;
  1224                           
  1225                           
  1226                           ;psect for function _initLCD
  1227  0D50                     _initLCD:
  1228  0D50                     l2060:	
  1229                           ;incstack = 0
  1230                           ; Regs used in _initLCD: [wreg+status,2+status,0+pclath+cstack]
  1231                           
  1232                           
  1233                           ;LCDD2.c: 21:     RE0 = 0;
  1234  0D50  1283               	bcf	3,5	;RP0=0, select bank0
  1235  0D51  1303               	bcf	3,6	;RP1=0, select bank0
  1236  0D52  1009               	bcf	9,0	;volatile
  1237  0D53                     l2062:
  1238                           
  1239                           ;LCDD2.c: 22:     PORTD = 0X00;
  1240  0D53  0188               	clrf	8	;volatile
  1241  0D54                     l2064:
  1242                           
  1243                           ;LCDD2.c: 23:     _delay((unsigned long)((50)*(8000000/4000.0)));
  1244  0D54  3082               	movlw	130
  1245  0D55  00F6               	movwf	??_initLCD+1
  1246  0D56  30DD               	movlw	221
  1247  0D57  00F5               	movwf	??_initLCD
  1248  0D58                     u3407:
  1249  0D58  0BF5               	decfsz	??_initLCD,f
  1250  0D59  2D58               	goto	u3407
  1251  0D5A  0BF6               	decfsz	??_initLCD+1,f
  1252  0D5B  2D58               	goto	u3407
  1253  0D5C  2D5D               	nop2
  1254  0D5D                     l2066:
  1255                           
  1256                           ;LCDD2.c: 24:     comandoLCD(0X30);
  1257  0D5D  3030               	movlw	48
  1258  0D5E  120A  158A  23CF  120A  158A  	fcall	_comandoLCD
  1259  0D63                     l2068:
  1260                           
  1261                           ;LCDD2.c: 25:     _delay((unsigned long)((5)*(8000000/4000.0)));
  1262  0D63  300D               	movlw	13
  1263  0D64  00F6               	movwf	??_initLCD+1
  1264  0D65  30FB               	movlw	251
  1265  0D66  00F5               	movwf	??_initLCD
  1266  0D67                     u3417:
  1267  0D67  0BF5               	decfsz	??_initLCD,f
  1268  0D68  2D67               	goto	u3417
  1269  0D69  0BF6               	decfsz	??_initLCD+1,f
  1270  0D6A  2D67               	goto	u3417
  1271  0D6B  2D6C               	nop2
  1272  0D6C                     l2070:
  1273                           
  1274                           ;LCDD2.c: 26:     comandoLCD(0X30);
  1275  0D6C  3030               	movlw	48
  1276  0D6D  120A  158A  23CF  120A  158A  	fcall	_comandoLCD
  1277  0D72                     l2072:
  1278                           
  1279                           ;LCDD2.c: 27:     _delay((unsigned long)((5)*(8000000/4000.0)));
  1280  0D72  300D               	movlw	13
  1281  0D73  00F6               	movwf	??_initLCD+1
  1282  0D74  30FB               	movlw	251
  1283  0D75  00F5               	movwf	??_initLCD
  1284  0D76                     u3427:
  1285  0D76  0BF5               	decfsz	??_initLCD,f
  1286  0D77  2D76               	goto	u3427
  1287  0D78  0BF6               	decfsz	??_initLCD+1,f
  1288  0D79  2D76               	goto	u3427
  1289  0D7A  2D7B               	nop2
  1290  0D7B                     l2074:
  1291                           
  1292                           ;LCDD2.c: 28:     comandoLCD(0X30);
  1293  0D7B  3030               	movlw	48
  1294  0D7C  120A  158A  23CF  120A  158A  	fcall	_comandoLCD
  1295  0D81                     l2076:
  1296                           
  1297                           ;LCDD2.c: 29:     comandoLCD(0X38);
  1298  0D81  3038               	movlw	56
  1299  0D82  120A  158A  23CF  120A  158A  	fcall	_comandoLCD
  1300  0D87                     l2078:
  1301                           
  1302                           ;LCDD2.c: 30:     comandoLCD(0X06);
  1303  0D87  3006               	movlw	6
  1304  0D88  120A  158A  23CF  120A  158A  	fcall	_comandoLCD
  1305  0D8D                     l2080:
  1306                           
  1307                           ;LCDD2.c: 31:     comandoLCD(0X0C);
  1308  0D8D  300C               	movlw	12
  1309  0D8E  120A  158A  23CF  120A  158A  	fcall	_comandoLCD
  1310  0D93                     l2082:
  1311                           
  1312                           ;LCDD2.c: 32:     comandoLCD(0X01);
  1313  0D93  3001               	movlw	1
  1314  0D94  120A  158A  23CF  120A  158A  	fcall	_comandoLCD
  1315  0D99                     l150:
  1316  0D99  0008               	return
  1317  0D9A                     __end_of_initLCD:
  1318                           
  1319                           	psect	text2
  1320  0CA3                     __ptext2:	
  1321 ;; *************** function _hexTochar *****************
  1322 ;; Defined at:
  1323 ;;		line 154 in file "main.c"
  1324 ;; Parameters:    Size  Location     Type
  1325 ;;  valor           1    wreg     unsigned char 
  1326 ;;  conv            1    9[BANK0 ] PTR unsigned char 
  1327 ;;		 -> disp2(3), 
  1328 ;; Auto vars:     Size  Location     Type
  1329 ;;  valor           1   13[BANK0 ] unsigned char 
  1330 ;;  decena          1   16[BANK0 ] unsigned char 
  1331 ;;  centena         1   15[BANK0 ] unsigned char 
  1332 ;;  unidad          1   14[BANK0 ] unsigned char 
  1333 ;; Return value:  Size  Location     Type
  1334 ;;                  1    wreg      void 
  1335 ;; Registers used:
  1336 ;;		wreg, fsr0l, fsr0h, status,2, status,0, pclath, cstack
  1337 ;; Tracked objects:
  1338 ;;		On entry : 0/0
  1339 ;;		On exit  : 0/0
  1340 ;;		Unchanged: 0/0
  1341 ;; Data sizes:     COMMON   BANK0   BANK1   BANK3   BANK2
  1342 ;;      Params:         0       1       0       0       0
  1343 ;;      Locals:         0       4       0       0       0
  1344 ;;      Temps:          0       3       0       0       0
  1345 ;;      Totals:         0       8       0       0       0
  1346 ;;Total ram usage:        8 bytes
  1347 ;; Hardware stack levels used:    1
  1348 ;; Hardware stack levels required when called:    3
  1349 ;; This function calls:
  1350 ;;		_divisiondecimal
  1351 ;; This function is called by:
  1352 ;;		_main
  1353 ;; This function uses a non-reentrant model
  1354 ;;
  1355                           
  1356                           
  1357                           ;psect for function _hexTochar
  1358  0CA3                     _hexTochar:
  1359                           
  1360                           ;incstack = 0
  1361                           ; Regs used in _hexTochar: [wreg-fsr0h+status,2+status,0+pclath+cstack]
  1362                           ;hexTochar@valor stored from wreg
  1363  0CA3  1283               	bcf	3,5	;RP0=0, select bank0
  1364  0CA4  1303               	bcf	3,6	;RP1=0, select bank0
  1365  0CA5  00AD               	movwf	hexTochar@valor
  1366  0CA6                     l2460:
  1367                           
  1368                           ;main.c: 155:     uint8_t centena;;main.c: 156:     uint8_t decena;;main.c: 157:     uin
      +                          t8_t unidad;;main.c: 159:     divisiondecimal(valor,&unidad,&decena,&centena);
  1369  0CA6  302E               	movlw	(low (hexTochar@unidad| 0))& (0+255)
  1370  0CA7  00AA               	movwf	??_hexTochar
  1371  0CA8  082A               	movf	??_hexTochar,w
  1372  0CA9  00A4               	movwf	divisiondecimal@un
  1373  0CAA  3030               	movlw	(low (hexTochar@decena| 0))& (0+255)
  1374  0CAB  00AB               	movwf	??_hexTochar+1
  1375  0CAC  082B               	movf	??_hexTochar+1,w
  1376  0CAD  00A5               	movwf	divisiondecimal@dec
  1377  0CAE  302F               	movlw	(low (hexTochar@centena| 0))& (0+255)
  1378  0CAF  00AC               	movwf	??_hexTochar+2
  1379  0CB0  082C               	movf	??_hexTochar+2,w
  1380  0CB1  00A6               	movwf	divisiondecimal@cent
  1381  0CB2  082D               	movf	hexTochar@valor,w
  1382  0CB3  120A  158A  26E7  120A  158A  	fcall	_divisiondecimal
  1383  0CB8                     l2462:
  1384                           
  1385                           ;main.c: 160:     conv[0]= unidad;
  1386  0CB8  1283               	bcf	3,5	;RP0=0, select bank0
  1387  0CB9  1303               	bcf	3,6	;RP1=0, select bank0
  1388  0CBA  082E               	movf	hexTochar@unidad,w
  1389  0CBB  00AA               	movwf	??_hexTochar
  1390  0CBC  0829               	movf	hexTochar@conv,w
  1391  0CBD  0084               	movwf	4
  1392  0CBE  082A               	movf	??_hexTochar,w
  1393  0CBF  1383               	bcf	3,7	;select IRP bank0
  1394  0CC0  0080               	movwf	0
  1395  0CC1                     l2464:
  1396                           
  1397                           ;main.c: 161:     conv[1]= decena;
  1398  0CC1  0830               	movf	hexTochar@decena,w
  1399  0CC2  00AA               	movwf	??_hexTochar
  1400  0CC3  0A29               	incf	hexTochar@conv,w
  1401  0CC4  0084               	movwf	4
  1402  0CC5  082A               	movf	??_hexTochar,w
  1403  0CC6  0080               	movwf	0
  1404  0CC7                     l2466:
  1405                           
  1406                           ;main.c: 162:     conv[2]= centena;
  1407  0CC7  082F               	movf	hexTochar@centena,w
  1408  0CC8  00AA               	movwf	??_hexTochar
  1409  0CC9  0829               	movf	hexTochar@conv,w
  1410  0CCA  3E02               	addlw	2
  1411  0CCB  0084               	movwf	4
  1412  0CCC  082A               	movf	??_hexTochar,w
  1413  0CCD  0080               	movwf	0
  1414  0CCE                     l90:
  1415  0CCE  0008               	return
  1416  0CCF                     __end_of_hexTochar:
  1417                           
  1418                           	psect	text3
  1419  0EE7                     __ptext3:	
  1420 ;; *************** function _divisiondecimal *****************
  1421 ;; Defined at:
  1422 ;;		line 166 in file "main.c"
  1423 ;; Parameters:    Size  Location     Type
  1424 ;;  conteo          1    wreg     unsigned char 
  1425 ;;  un              1    4[BANK0 ] PTR unsigned char 
  1426 ;;		 -> hexTochar@unidad(1), 
  1427 ;;  dec             1    5[BANK0 ] PTR unsigned char 
  1428 ;;		 -> hexTochar@decena(1), 
  1429 ;;  cent            1    6[BANK0 ] PTR unsigned char 
  1430 ;;		 -> hexTochar@centena(1), 
  1431 ;; Auto vars:     Size  Location     Type
  1432 ;;  conteo          1    7[BANK0 ] unsigned char 
  1433 ;;  div             1    8[BANK0 ] unsigned char 
  1434 ;; Return value:  Size  Location     Type
  1435 ;;                  1    wreg      void 
  1436 ;; Registers used:
  1437 ;;		wreg, fsr0l, fsr0h, status,2, status,0, pclath, cstack
  1438 ;; Tracked objects:
  1439 ;;		On entry : 0/0
  1440 ;;		On exit  : 0/0
  1441 ;;		Unchanged: 0/0
  1442 ;; Data sizes:     COMMON   BANK0   BANK1   BANK3   BANK2
  1443 ;;      Params:         0       3       0       0       0
  1444 ;;      Locals:         0       2       0       0       0
  1445 ;;      Temps:          3       0       0       0       0
  1446 ;;      Totals:         3       5       0       0       0
  1447 ;;Total ram usage:        8 bytes
  1448 ;; Hardware stack levels used:    1
  1449 ;; Hardware stack levels required when called:    2
  1450 ;; This function calls:
  1451 ;;		___awdiv
  1452 ;;		___bmul
  1453 ;; This function is called by:
  1454 ;;		_hexTochar
  1455 ;; This function uses a non-reentrant model
  1456 ;;
  1457                           
  1458                           
  1459                           ;psect for function _divisiondecimal
  1460  0EE7                     _divisiondecimal:
  1461                           
  1462                           ;incstack = 0
  1463                           ; Regs used in _divisiondecimal: [wreg-fsr0h+status,2+status,0+pclath+cstack]
  1464                           ;divisiondecimal@conteo stored from wreg
  1465  0EE7  1283               	bcf	3,5	;RP0=0, select bank0
  1466  0EE8  1303               	bcf	3,6	;RP1=0, select bank0
  1467  0EE9  00A7               	movwf	divisiondecimal@conteo
  1468  0EEA                     l2282:
  1469                           
  1470                           ;main.c: 167:     uint8_t div = conteo;
  1471  0EEA  0827               	movf	divisiondecimal@conteo,w
  1472  0EEB  00F7               	movwf	??_divisiondecimal
  1473  0EEC  0877               	movf	??_divisiondecimal,w
  1474  0EED  00A8               	movwf	divisiondecimal@div
  1475  0EEE                     l2284:
  1476                           
  1477                           ;main.c: 168:     *un = 0;
  1478  0EEE  0824               	movf	divisiondecimal@un,w
  1479  0EEF  0084               	movwf	4
  1480  0EF0  1383               	bcf	3,7	;select IRP bank0
  1481  0EF1  0180               	clrf	0
  1482  0EF2                     l2286:
  1483                           
  1484                           ;main.c: 169:     *dec = 0;
  1485  0EF2  0825               	movf	divisiondecimal@dec,w
  1486  0EF3  0084               	movwf	4
  1487  0EF4  0180               	clrf	0
  1488  0EF5                     l2288:
  1489                           
  1490                           ;main.c: 170:     *cent = 0;
  1491  0EF5  0826               	movf	divisiondecimal@cent,w
  1492  0EF6  0084               	movwf	4
  1493  0EF7  0180               	clrf	0
  1494                           
  1495                           ;main.c: 173:     while(div >= 100){
  1496  0EF8  2F24               	goto	l2292
  1497  0EF9                     l2290:
  1498                           
  1499                           ;main.c: 174:     *cent = div/100;
  1500  0EF9  3064               	movlw	100
  1501  0EFA  00F2               	movwf	___awdiv@divisor
  1502  0EFB  3000               	movlw	0
  1503  0EFC  00F3               	movwf	___awdiv@divisor+1
  1504  0EFD  0828               	movf	divisiondecimal@div,w
  1505  0EFE  00F7               	movwf	??_divisiondecimal
  1506  0EFF  01F8               	clrf	??_divisiondecimal+1
  1507  0F00  0877               	movf	??_divisiondecimal,w
  1508  0F01  00F4               	movwf	___awdiv@dividend
  1509  0F02  0878               	movf	??_divisiondecimal+1,w
  1510  0F03  00F5               	movwf	___awdiv@dividend+1
  1511  0F04  120A  158A  2602  120A  158A  	fcall	___awdiv
  1512  0F09  0872               	movf	?___awdiv,w
  1513  0F0A  00F9               	movwf	??_divisiondecimal+2
  1514  0F0B  1283               	bcf	3,5	;RP0=0, select bank0
  1515  0F0C  1303               	bcf	3,6	;RP1=0, select bank0
  1516  0F0D  0826               	movf	divisiondecimal@cent,w
  1517  0F0E  0084               	movwf	4
  1518  0F0F  0879               	movf	??_divisiondecimal+2,w
  1519  0F10  1383               	bcf	3,7	;select IRP bank0
  1520  0F11  0080               	movwf	0
  1521                           
  1522                           ;main.c: 175:     div = div - (*cent)*(100);
  1523  0F12  309C               	movlw	156
  1524  0F13  00F7               	movwf	??_divisiondecimal
  1525  0F14  0877               	movf	??_divisiondecimal,w
  1526  0F15  00F2               	movwf	___bmul@multiplicand
  1527  0F16  0826               	movf	divisiondecimal@cent,w
  1528  0F17  0084               	movwf	4
  1529  0F18  0800               	movf	0,w
  1530  0F19  120A  158A  23E3  120A  158A  	fcall	___bmul
  1531  0F1E  1283               	bcf	3,5	;RP0=0, select bank0
  1532  0F1F  1303               	bcf	3,6	;RP1=0, select bank0
  1533  0F20  0728               	addwf	divisiondecimal@div,w
  1534  0F21  00F8               	movwf	??_divisiondecimal+1
  1535  0F22  0878               	movf	??_divisiondecimal+1,w
  1536  0F23  00A8               	movwf	divisiondecimal@div
  1537  0F24                     l2292:
  1538                           
  1539                           ;main.c: 173:     while(div >= 100){
  1540  0F24  3064               	movlw	100
  1541  0F25  0228               	subwf	divisiondecimal@div,w
  1542  0F26  1803               	skipnc
  1543  0F27  2F29               	goto	u2991
  1544  0F28  2F2A               	goto	u2990
  1545  0F29                     u2991:
  1546  0F29  2EF9               	goto	l2290
  1547  0F2A                     u2990:
  1548  0F2A  2F56               	goto	l2296
  1549  0F2B                     l2294:
  1550                           
  1551                           ;main.c: 179:     *dec = div/10;
  1552  0F2B  300A               	movlw	10
  1553  0F2C  00F2               	movwf	___awdiv@divisor
  1554  0F2D  3000               	movlw	0
  1555  0F2E  00F3               	movwf	___awdiv@divisor+1
  1556  0F2F  0828               	movf	divisiondecimal@div,w
  1557  0F30  00F7               	movwf	??_divisiondecimal
  1558  0F31  01F8               	clrf	??_divisiondecimal+1
  1559  0F32  0877               	movf	??_divisiondecimal,w
  1560  0F33  00F4               	movwf	___awdiv@dividend
  1561  0F34  0878               	movf	??_divisiondecimal+1,w
  1562  0F35  00F5               	movwf	___awdiv@dividend+1
  1563  0F36  120A  158A  2602  120A  158A  	fcall	___awdiv
  1564  0F3B  0872               	movf	?___awdiv,w
  1565  0F3C  00F9               	movwf	??_divisiondecimal+2
  1566  0F3D  1283               	bcf	3,5	;RP0=0, select bank0
  1567  0F3E  1303               	bcf	3,6	;RP1=0, select bank0
  1568  0F3F  0825               	movf	divisiondecimal@dec,w
  1569  0F40  0084               	movwf	4
  1570  0F41  0879               	movf	??_divisiondecimal+2,w
  1571  0F42  1383               	bcf	3,7	;select IRP bank0
  1572  0F43  0080               	movwf	0
  1573                           
  1574                           ;main.c: 180:     div = div - (*dec)*(10);
  1575  0F44  30F6               	movlw	246
  1576  0F45  00F7               	movwf	??_divisiondecimal
  1577  0F46  0877               	movf	??_divisiondecimal,w
  1578  0F47  00F2               	movwf	___bmul@multiplicand
  1579  0F48  0825               	movf	divisiondecimal@dec,w
  1580  0F49  0084               	movwf	4
  1581  0F4A  0800               	movf	0,w
  1582  0F4B  120A  158A  23E3  120A  158A  	fcall	___bmul
  1583  0F50  1283               	bcf	3,5	;RP0=0, select bank0
  1584  0F51  1303               	bcf	3,6	;RP1=0, select bank0
  1585  0F52  0728               	addwf	divisiondecimal@div,w
  1586  0F53  00F8               	movwf	??_divisiondecimal+1
  1587  0F54  0878               	movf	??_divisiondecimal+1,w
  1588  0F55  00A8               	movwf	divisiondecimal@div
  1589  0F56                     l2296:
  1590                           
  1591                           ;main.c: 178:     while (div >= 10){
  1592  0F56  300A               	movlw	10
  1593  0F57  0228               	subwf	divisiondecimal@div,w
  1594  0F58  1803               	skipnc
  1595  0F59  2F5B               	goto	u3001
  1596  0F5A  2F5C               	goto	u3000
  1597  0F5B                     u3001:
  1598  0F5B  2F2B               	goto	l2294
  1599  0F5C                     u3000:
  1600  0F5C                     l2298:
  1601                           
  1602                           ;main.c: 183:     *un = div;
  1603  0F5C  0828               	movf	divisiondecimal@div,w
  1604  0F5D  00F7               	movwf	??_divisiondecimal
  1605  0F5E  0824               	movf	divisiondecimal@un,w
  1606  0F5F  0084               	movwf	4
  1607  0F60  0877               	movf	??_divisiondecimal,w
  1608  0F61  1383               	bcf	3,7	;select IRP bank0
  1609  0F62  0080               	movwf	0
  1610  0F63                     l99:
  1611  0F63  0008               	return
  1612  0F64                     __end_of_divisiondecimal:
  1613                           
  1614                           	psect	text4
  1615  0F64                     __ptext4:	
  1616 ;; *************** function _floTochar *****************
  1617 ;; Defined at:
  1618 ;;		line 118 in file "main.c"
  1619 ;; Parameters:    Size  Location     Type
  1620 ;;  valor           4   43[BANK0 ] const float 
  1621 ;;  conv            1   47[BANK0 ] PTR unsigned char 
  1622 ;;		 -> disp1(3), 
  1623 ;; Auto vars:     Size  Location     Type
  1624 ;;  temp            4   52[BANK0 ] float 
  1625 ;;  digdecimal      2   58[BANK0 ] unsigned char [2]
  1626 ;;  entero          1   57[BANK0 ] unsigned char 
  1627 ;;  decimal         1   56[BANK0 ] unsigned char 
  1628 ;; Return value:  Size  Location     Type
  1629 ;;                  1    wreg      void 
  1630 ;; Registers used:
  1631 ;;		wreg, fsr0l, fsr0h, status,2, status,0, btemp+1, pclath, cstack
  1632 ;; Tracked objects:
  1633 ;;		On entry : 0/0
  1634 ;;		On exit  : 0/0
  1635 ;;		Unchanged: 0/0
  1636 ;; Data sizes:     COMMON   BANK0   BANK1   BANK3   BANK2
  1637 ;;      Params:         0       5       0       0       0
  1638 ;;      Locals:         0       8       0       0       0
  1639 ;;      Temps:          0       4       0       0       0
  1640 ;;      Totals:         0      17       0       0       0
  1641 ;;Total ram usage:       17 bytes
  1642 ;; Hardware stack levels used:    1
  1643 ;; Hardware stack levels required when called:    3
  1644 ;; This function calls:
  1645 ;;		___flmul
  1646 ;;		___flsub
  1647 ;;		___fltol
  1648 ;;		___xxtofl
  1649 ;;		_division
  1650 ;; This function is called by:
  1651 ;;		_main
  1652 ;; This function uses a non-reentrant model
  1653 ;;
  1654                           
  1655                           
  1656                           ;psect for function _floTochar
  1657  0F64                     _floTochar:
  1658  0F64                     l2448:	
  1659                           ;incstack = 0
  1660                           ; Regs used in _floTochar: [wreg-fsr0h+status,2+status,0+btemp+1+pclath+cstack]
  1661                           
  1662                           
  1663                           ;main.c: 119:     uint8_t entero;;main.c: 120:     uint8_t decimal;;main.c: 121:     flo
      +                          at temp;;main.c: 122:     unsigned char digdecimal[2];;main.c: 128:     entero = valor;
  1664  0F64  1283               	bcf	3,5	;RP0=0, select bank0
  1665  0F65  1303               	bcf	3,6	;RP1=0, select bank0
  1666  0F66  084E               	movf	floTochar@valor+3,w
  1667  0F67  00C3               	movwf	___fltol@f1+3
  1668  0F68  084D               	movf	floTochar@valor+2,w
  1669  0F69  00C2               	movwf	___fltol@f1+2
  1670  0F6A  084C               	movf	floTochar@valor+1,w
  1671  0F6B  00C1               	movwf	___fltol@f1+1
  1672  0F6C  084B               	movf	floTochar@valor,w
  1673  0F6D  00C0               	movwf	___fltol@f1
  1674  0F6E  120A  158A  266B  120A  158A  	fcall	___fltol
  1675  0F73  1283               	bcf	3,5	;RP0=0, select bank0
  1676  0F74  1303               	bcf	3,6	;RP1=0, select bank0
  1677  0F75  0840               	movf	?___fltol,w
  1678  0F76  00D0               	movwf	??_floTochar
  1679  0F77  0850               	movf	??_floTochar,w
  1680  0F78  00D9               	movwf	floTochar@entero
  1681  0F79                     l2450:
  1682                           
  1683                           ;main.c: 129:     digdecimal[2] = entero;
  1684  0F79  0859               	movf	floTochar@entero,w
  1685  0F7A  00D0               	movwf	??_floTochar
  1686  0F7B  0850               	movf	??_floTochar,w
  1687  0F7C  00DC               	movwf	floTochar@digdecimal+2
  1688  0F7D                     l2452:
  1689                           
  1690                           ;main.c: 130:     temp = valor-(float)entero;
  1691  0F7D  0859               	movf	floTochar@entero,w
  1692  0F7E  00D0               	movwf	??_floTochar
  1693  0F7F  01D1               	clrf	??_floTochar+1
  1694  0F80  01D2               	clrf	??_floTochar+2
  1695  0F81  01D3               	clrf	??_floTochar+3
  1696  0F82  0853               	movf	??_floTochar+3,w
  1697  0F83  00F5               	movwf	___xxtofl@val+3
  1698  0F84  0852               	movf	??_floTochar+2,w
  1699  0F85  00F4               	movwf	___xxtofl@val+2
  1700  0F86  0851               	movf	??_floTochar+1,w
  1701  0F87  00F3               	movwf	___xxtofl@val+1
  1702  0F88  0850               	movf	??_floTochar,w
  1703  0F89  00F2               	movwf	___xxtofl@val
  1704  0F8A  3000               	movlw	0
  1705  0F8B  120A  118A  2719  120A  158A  	fcall	___xxtofl
  1706  0F90  0875               	movf	?___xxtofl+3,w
  1707  0F91  1283               	bcf	3,5	;RP0=0, select bank0
  1708  0F92  1303               	bcf	3,6	;RP1=0, select bank0
  1709  0F93  00AF               	movwf	___flsub@a+3
  1710  0F94  0874               	movf	?___xxtofl+2,w
  1711  0F95  00AE               	movwf	___flsub@a+2
  1712  0F96  0873               	movf	?___xxtofl+1,w
  1713  0F97  00AD               	movwf	___flsub@a+1
  1714  0F98  0872               	movf	?___xxtofl,w
  1715  0F99  00AC               	movwf	___flsub@a
  1716  0F9A  084E               	movf	floTochar@valor+3,w
  1717  0F9B  00B3               	movwf	___flsub@b+3
  1718  0F9C  084D               	movf	floTochar@valor+2,w
  1719  0F9D  00B2               	movwf	___flsub@b+2
  1720  0F9E  084C               	movf	floTochar@valor+1,w
  1721  0F9F  00B1               	movwf	___flsub@b+1
  1722  0FA0  084B               	movf	floTochar@valor,w
  1723  0FA1  00B0               	movwf	___flsub@b
  1724  0FA2  120A  158A  245A  120A  158A  	fcall	___flsub
  1725  0FA7  1283               	bcf	3,5	;RP0=0, select bank0
  1726  0FA8  1303               	bcf	3,6	;RP1=0, select bank0
  1727  0FA9  082F               	movf	?___flsub+3,w
  1728  0FAA  00D7               	movwf	floTochar@temp+3
  1729  0FAB  082E               	movf	?___flsub+2,w
  1730  0FAC  00D6               	movwf	floTochar@temp+2
  1731  0FAD  082D               	movf	?___flsub+1,w
  1732  0FAE  00D5               	movwf	floTochar@temp+1
  1733  0FAF  082C               	movf	?___flsub,w
  1734  0FB0  00D4               	movwf	floTochar@temp
  1735  0FB1                     l2454:
  1736                           
  1737                           ;main.c: 131:     decimal = (temp*100);
  1738  0FB1  0857               	movf	floTochar@temp+3,w
  1739  0FB2  00AD               	movwf	___flmul@a+3
  1740  0FB3  0856               	movf	floTochar@temp+2,w
  1741  0FB4  00AC               	movwf	___flmul@a+2
  1742  0FB5  0855               	movf	floTochar@temp+1,w
  1743  0FB6  00AB               	movwf	___flmul@a+1
  1744  0FB7  0854               	movf	floTochar@temp,w
  1745  0FB8  00AA               	movwf	___flmul@a
  1746  0FB9  3042               	movlw	66
  1747  0FBA  00A9               	movwf	___flmul@b+3
  1748  0FBB  30C8               	movlw	200
  1749  0FBC  00A8               	movwf	___flmul@b+2
  1750  0FBD  3000               	movlw	0
  1751  0FBE  00A7               	movwf	___flmul@b+1
  1752  0FBF  3000               	movlw	0
  1753  0FC0  00A6               	movwf	___flmul@b
  1754  0FC1  120A  118A  2021  120A  158A  	fcall	___flmul
  1755  0FC6  1283               	bcf	3,5	;RP0=0, select bank0
  1756  0FC7  1303               	bcf	3,6	;RP1=0, select bank0
  1757  0FC8  0829               	movf	?___flmul+3,w
  1758  0FC9  00C3               	movwf	___fltol@f1+3
  1759  0FCA  0828               	movf	?___flmul+2,w
  1760  0FCB  00C2               	movwf	___fltol@f1+2
  1761  0FCC  0827               	movf	?___flmul+1,w
  1762  0FCD  00C1               	movwf	___fltol@f1+1
  1763  0FCE  0826               	movf	?___flmul,w
  1764  0FCF  00C0               	movwf	___fltol@f1
  1765  0FD0  120A  158A  266B  120A  158A  	fcall	___fltol
  1766  0FD5  1283               	bcf	3,5	;RP0=0, select bank0
  1767  0FD6  1303               	bcf	3,6	;RP1=0, select bank0
  1768  0FD7  0840               	movf	?___fltol,w
  1769  0FD8  00D0               	movwf	??_floTochar
  1770  0FD9  0850               	movf	??_floTochar,w
  1771  0FDA  00D8               	movwf	floTochar@decimal
  1772  0FDB                     l2456:
  1773                           
  1774                           ;main.c: 132:     division(decimal,&digdecimal[0],&digdecimal[1]);
  1775  0FDB  305A               	movlw	(low (floTochar@digdecimal| 0))& (0+255)
  1776  0FDC  00D0               	movwf	??_floTochar
  1777  0FDD  0850               	movf	??_floTochar,w
  1778  0FDE  00A4               	movwf	division@un
  1779  0FDF  305B               	movlw	(low ((floTochar@digdecimal| 0+1)))& (0+255)
  1780  0FE0  00D1               	movwf	??_floTochar+1
  1781  0FE1  0851               	movf	??_floTochar+1,w
  1782  0FE2  00A5               	movwf	division@dec
  1783  0FE3  0858               	movf	floTochar@decimal,w
  1784  0FE4  120A  158A  2508  120A  158A  	fcall	_division
  1785                           
  1786                           ;main.c: 133:     conv[0] = entero;
  1787  0FE9  1283               	bcf	3,5	;RP0=0, select bank0
  1788  0FEA  1303               	bcf	3,6	;RP1=0, select bank0
  1789  0FEB  0859               	movf	floTochar@entero,w
  1790  0FEC  00D0               	movwf	??_floTochar
  1791  0FED  084F               	movf	floTochar@conv,w
  1792  0FEE  0084               	movwf	4
  1793  0FEF  0850               	movf	??_floTochar,w
  1794  0FF0  1383               	bcf	3,7	;select IRP bank0
  1795  0FF1  0080               	movwf	0
  1796                           
  1797                           ;main.c: 134:     conv[1] = digdecimal[1];
  1798  0FF2  085B               	movf	floTochar@digdecimal+1,w
  1799  0FF3  00D0               	movwf	??_floTochar
  1800  0FF4  0A4F               	incf	floTochar@conv,w
  1801  0FF5  0084               	movwf	4
  1802  0FF6  0850               	movf	??_floTochar,w
  1803  0FF7  0080               	movwf	0
  1804  0FF8                     l2458:
  1805                           
  1806                           ;main.c: 135:     conv[2] = digdecimal[0];
  1807  0FF8  085A               	movf	floTochar@digdecimal,w
  1808  0FF9  00D0               	movwf	??_floTochar
  1809  0FFA  084F               	movf	floTochar@conv,w
  1810  0FFB  3E02               	addlw	2
  1811  0FFC  0084               	movwf	4
  1812  0FFD  0850               	movf	??_floTochar,w
  1813  0FFE  0080               	movwf	0
  1814  0FFF                     l81:
  1815  0FFF  0008               	return
  1816  1000                     __end_of_floTochar:
  1817                           
  1818                           	psect	text5
  1819  0D08                     __ptext5:	
  1820 ;; *************** function _division *****************
  1821 ;; Defined at:
  1822 ;;		line 140 in file "main.c"
  1823 ;; Parameters:    Size  Location     Type
  1824 ;;  conteo          1    wreg     unsigned char 
  1825 ;;  un              1    4[BANK0 ] PTR unsigned char 
  1826 ;;		 -> floTochar@digdecimal(2), 
  1827 ;;  dec             1    5[BANK0 ] PTR unsigned char 
  1828 ;;		 -> floTochar@digdecimal(2), 
  1829 ;; Auto vars:     Size  Location     Type
  1830 ;;  conteo          1    6[BANK0 ] unsigned char 
  1831 ;;  div             1    7[BANK0 ] unsigned char 
  1832 ;; Return value:  Size  Location     Type
  1833 ;;                  1    wreg      void 
  1834 ;; Registers used:
  1835 ;;		wreg, fsr0l, fsr0h, status,2, status,0, pclath, cstack
  1836 ;; Tracked objects:
  1837 ;;		On entry : 0/0
  1838 ;;		On exit  : 0/0
  1839 ;;		Unchanged: 0/0
  1840 ;; Data sizes:     COMMON   BANK0   BANK1   BANK3   BANK2
  1841 ;;      Params:         0       2       0       0       0
  1842 ;;      Locals:         0       2       0       0       0
  1843 ;;      Temps:          3       0       0       0       0
  1844 ;;      Totals:         3       4       0       0       0
  1845 ;;Total ram usage:        7 bytes
  1846 ;; Hardware stack levels used:    1
  1847 ;; Hardware stack levels required when called:    2
  1848 ;; This function calls:
  1849 ;;		___awdiv
  1850 ;;		___bmul
  1851 ;; This function is called by:
  1852 ;;		_floTochar
  1853 ;; This function uses a non-reentrant model
  1854 ;;
  1855                           
  1856                           
  1857                           ;psect for function _division
  1858  0D08                     _division:
  1859                           
  1860                           ;incstack = 0
  1861                           ; Regs used in _division: [wreg-fsr0h+status,2+status,0+pclath+cstack]
  1862                           ;division@conteo stored from wreg
  1863  0D08  1283               	bcf	3,5	;RP0=0, select bank0
  1864  0D09  1303               	bcf	3,6	;RP1=0, select bank0
  1865  0D0A  00A6               	movwf	division@conteo
  1866  0D0B                     l2270:
  1867                           
  1868                           ;main.c: 141:     uint8_t div = conteo;
  1869  0D0B  0826               	movf	division@conteo,w
  1870  0D0C  00F7               	movwf	??_division
  1871  0D0D  0877               	movf	??_division,w
  1872  0D0E  00A7               	movwf	division@div
  1873  0D0F                     l2272:
  1874                           
  1875                           ;main.c: 142:     *un = 0;
  1876  0D0F  0824               	movf	division@un,w
  1877  0D10  0084               	movwf	4
  1878  0D11  1383               	bcf	3,7	;select IRP bank0
  1879  0D12  0180               	clrf	0
  1880  0D13                     l2274:
  1881                           
  1882                           ;main.c: 143:     *dec = 0;
  1883  0D13  0825               	movf	division@dec,w
  1884  0D14  0084               	movwf	4
  1885  0D15  0180               	clrf	0
  1886                           
  1887                           ;main.c: 146:     while (div >= 10){
  1888  0D16  2D42               	goto	l2278
  1889  0D17                     l2276:
  1890                           
  1891                           ;main.c: 147:     *dec = div/10;
  1892  0D17  300A               	movlw	10
  1893  0D18  00F2               	movwf	___awdiv@divisor
  1894  0D19  3000               	movlw	0
  1895  0D1A  00F3               	movwf	___awdiv@divisor+1
  1896  0D1B  0827               	movf	division@div,w
  1897  0D1C  00F7               	movwf	??_division
  1898  0D1D  01F8               	clrf	??_division+1
  1899  0D1E  0877               	movf	??_division,w
  1900  0D1F  00F4               	movwf	___awdiv@dividend
  1901  0D20  0878               	movf	??_division+1,w
  1902  0D21  00F5               	movwf	___awdiv@dividend+1
  1903  0D22  120A  158A  2602  120A  158A  	fcall	___awdiv
  1904  0D27  0872               	movf	?___awdiv,w
  1905  0D28  00F9               	movwf	??_division+2
  1906  0D29  1283               	bcf	3,5	;RP0=0, select bank0
  1907  0D2A  1303               	bcf	3,6	;RP1=0, select bank0
  1908  0D2B  0825               	movf	division@dec,w
  1909  0D2C  0084               	movwf	4
  1910  0D2D  0879               	movf	??_division+2,w
  1911  0D2E  1383               	bcf	3,7	;select IRP bank0
  1912  0D2F  0080               	movwf	0
  1913                           
  1914                           ;main.c: 148:     div = div - (*dec)*(10);
  1915  0D30  30F6               	movlw	246
  1916  0D31  00F7               	movwf	??_division
  1917  0D32  0877               	movf	??_division,w
  1918  0D33  00F2               	movwf	___bmul@multiplicand
  1919  0D34  0825               	movf	division@dec,w
  1920  0D35  0084               	movwf	4
  1921  0D36  0800               	movf	0,w
  1922  0D37  120A  158A  23E3  120A  158A  	fcall	___bmul
  1923  0D3C  1283               	bcf	3,5	;RP0=0, select bank0
  1924  0D3D  1303               	bcf	3,6	;RP1=0, select bank0
  1925  0D3E  0727               	addwf	division@div,w
  1926  0D3F  00F8               	movwf	??_division+1
  1927  0D40  0878               	movf	??_division+1,w
  1928  0D41  00A7               	movwf	division@div
  1929  0D42                     l2278:
  1930                           
  1931                           ;main.c: 146:     while (div >= 10){
  1932  0D42  300A               	movlw	10
  1933  0D43  0227               	subwf	division@div,w
  1934  0D44  1803               	skipnc
  1935  0D45  2D47               	goto	u2981
  1936  0D46  2D48               	goto	u2980
  1937  0D47                     u2981:
  1938  0D47  2D17               	goto	l2276
  1939  0D48                     u2980:
  1940  0D48                     l2280:
  1941                           
  1942                           ;main.c: 151:     *un = div;
  1943  0D48  0827               	movf	division@div,w
  1944  0D49  00F7               	movwf	??_division
  1945  0D4A  0824               	movf	division@un,w
  1946  0D4B  0084               	movwf	4
  1947  0D4C  0877               	movf	??_division,w
  1948  0D4D  1383               	bcf	3,7	;select IRP bank0
  1949  0D4E  0080               	movwf	0
  1950  0D4F                     l87:
  1951  0D4F  0008               	return
  1952  0D50                     __end_of_division:
  1953                           
  1954                           	psect	text6
  1955  0BE3                     __ptext6:	
  1956 ;; *************** function ___bmul *****************
  1957 ;; Defined at:
  1958 ;;		line 4 in file "C:\Program Files\Microchip\xc8\v2.31\pic\sources\c90\common\Umul8.c"
  1959 ;; Parameters:    Size  Location     Type
  1960 ;;  multiplier      1    wreg     unsigned char 
  1961 ;;  multiplicand    1    2[COMMON] unsigned char 
  1962 ;; Auto vars:     Size  Location     Type
  1963 ;;  multiplier      1    5[COMMON] unsigned char 
  1964 ;;  product         1    4[COMMON] unsigned char 
  1965 ;; Return value:  Size  Location     Type
  1966 ;;                  1    wreg      unsigned char 
  1967 ;; Registers used:
  1968 ;;		wreg, status,2, status,0
  1969 ;; Tracked objects:
  1970 ;;		On entry : 0/0
  1971 ;;		On exit  : 0/0
  1972 ;;		Unchanged: 0/0
  1973 ;; Data sizes:     COMMON   BANK0   BANK1   BANK3   BANK2
  1974 ;;      Params:         1       0       0       0       0
  1975 ;;      Locals:         2       0       0       0       0
  1976 ;;      Temps:          1       0       0       0       0
  1977 ;;      Totals:         4       0       0       0       0
  1978 ;;Total ram usage:        4 bytes
  1979 ;; Hardware stack levels used:    1
  1980 ;; Hardware stack levels required when called:    1
  1981 ;; This function calls:
  1982 ;;		Nothing
  1983 ;; This function is called by:
  1984 ;;		_division
  1985 ;;		_divisiondecimal
  1986 ;; This function uses a non-reentrant model
  1987 ;;
  1988                           
  1989                           
  1990                           ;psect for function ___bmul
  1991  0BE3                     ___bmul:
  1992                           
  1993                           ;incstack = 0
  1994                           ; Regs used in ___bmul: [wreg+status,2+status,0]
  1995                           ;___bmul@multiplier stored from wreg
  1996  0BE3  00F5               	movwf	___bmul@multiplier
  1997  0BE4                     l1474:
  1998  0BE4  01F4               	clrf	___bmul@product
  1999  0BE5                     l1476:
  2000  0BE5  1C75               	btfss	___bmul@multiplier,0
  2001  0BE6  2BE8               	goto	u1391
  2002  0BE7  2BE9               	goto	u1390
  2003  0BE8                     u1391:
  2004  0BE8  2BED               	goto	l1480
  2005  0BE9                     u1390:
  2006  0BE9                     l1478:
  2007  0BE9  0872               	movf	___bmul@multiplicand,w
  2008  0BEA  00F3               	movwf	??___bmul
  2009  0BEB  0873               	movf	??___bmul,w
  2010  0BEC  07F4               	addwf	___bmul@product,f
  2011  0BED                     l1480:
  2012  0BED  1003               	clrc
  2013  0BEE  0DF2               	rlf	___bmul@multiplicand,f
  2014  0BEF                     l1482:
  2015  0BEF  1003               	clrc
  2016  0BF0  0CF5               	rrf	___bmul@multiplier,f
  2017  0BF1  0875               	movf	___bmul@multiplier,w
  2018  0BF2  1D03               	btfss	3,2
  2019  0BF3  2BF5               	goto	u1401
  2020  0BF4  2BF6               	goto	u1400
  2021  0BF5                     u1401:
  2022  0BF5  2BE5               	goto	l1476
  2023  0BF6                     u1400:
  2024  0BF6                     l1484:
  2025  0BF6  0874               	movf	___bmul@product,w
  2026  0BF7                     l282:
  2027  0BF7  0008               	return
  2028  0BF8                     __end_of___bmul:
  2029                           
  2030                           	psect	text7
  2031  0E02                     __ptext7:	
  2032 ;; *************** function ___awdiv *****************
  2033 ;; Defined at:
  2034 ;;		line 5 in file "C:\Program Files\Microchip\xc8\v2.31\pic\sources\c90\common\awdiv.c"
  2035 ;; Parameters:    Size  Location     Type
  2036 ;;  divisor         2    2[COMMON] int 
  2037 ;;  dividend        2    4[COMMON] int 
  2038 ;; Auto vars:     Size  Location     Type
  2039 ;;  quotient        2    2[BANK0 ] int 
  2040 ;;  sign            1    1[BANK0 ] unsigned char 
  2041 ;;  counter         1    0[BANK0 ] unsigned char 
  2042 ;; Return value:  Size  Location     Type
  2043 ;;                  2    2[COMMON] int 
  2044 ;; Registers used:
  2045 ;;		wreg, status,2, status,0
  2046 ;; Tracked objects:
  2047 ;;		On entry : 0/0
  2048 ;;		On exit  : 0/0
  2049 ;;		Unchanged: 0/0
  2050 ;; Data sizes:     COMMON   BANK0   BANK1   BANK3   BANK2
  2051 ;;      Params:         4       0       0       0       0
  2052 ;;      Locals:         0       4       0       0       0
  2053 ;;      Temps:          1       0       0       0       0
  2054 ;;      Totals:         5       4       0       0       0
  2055 ;;Total ram usage:        9 bytes
  2056 ;; Hardware stack levels used:    1
  2057 ;; Hardware stack levels required when called:    1
  2058 ;; This function calls:
  2059 ;;		Nothing
  2060 ;; This function is called by:
  2061 ;;		_division
  2062 ;;		_divisiondecimal
  2063 ;; This function uses a non-reentrant model
  2064 ;;
  2065                           
  2066                           
  2067                           ;psect for function ___awdiv
  2068  0E02                     ___awdiv:
  2069  0E02                     l2200:	
  2070                           ;incstack = 0
  2071                           ; Regs used in ___awdiv: [wreg+status,2+status,0]
  2072                           
  2073  0E02  1283               	bcf	3,5	;RP0=0, select bank0
  2074  0E03  1303               	bcf	3,6	;RP1=0, select bank0
  2075  0E04  01A1               	clrf	___awdiv@sign
  2076  0E05                     l2202:
  2077  0E05  1FF3               	btfss	___awdiv@divisor+1,7
  2078  0E06  2E08               	goto	u2841
  2079  0E07  2E09               	goto	u2840
  2080  0E08                     u2841:
  2081  0E08  2E10               	goto	l2208
  2082  0E09                     u2840:
  2083  0E09                     l2204:
  2084  0E09  09F2               	comf	___awdiv@divisor,f
  2085  0E0A  09F3               	comf	___awdiv@divisor+1,f
  2086  0E0B  0AF2               	incf	___awdiv@divisor,f
  2087  0E0C  1903               	skipnz
  2088  0E0D  0AF3               	incf	___awdiv@divisor+1,f
  2089  0E0E                     l2206:
  2090  0E0E  01A1               	clrf	___awdiv@sign
  2091  0E0F  0AA1               	incf	___awdiv@sign,f
  2092  0E10                     l2208:
  2093  0E10  1FF5               	btfss	___awdiv@dividend+1,7
  2094  0E11  2E13               	goto	u2851
  2095  0E12  2E14               	goto	u2850
  2096  0E13                     u2851:
  2097  0E13  2E1D               	goto	l2214
  2098  0E14                     u2850:
  2099  0E14                     l2210:
  2100  0E14  09F4               	comf	___awdiv@dividend,f
  2101  0E15  09F5               	comf	___awdiv@dividend+1,f
  2102  0E16  0AF4               	incf	___awdiv@dividend,f
  2103  0E17  1903               	skipnz
  2104  0E18  0AF5               	incf	___awdiv@dividend+1,f
  2105  0E19                     l2212:
  2106  0E19  3001               	movlw	1
  2107  0E1A  00F6               	movwf	??___awdiv
  2108  0E1B  0876               	movf	??___awdiv,w
  2109  0E1C  06A1               	xorwf	___awdiv@sign,f
  2110  0E1D                     l2214:
  2111  0E1D  01A2               	clrf	___awdiv@quotient
  2112  0E1E  01A3               	clrf	___awdiv@quotient+1
  2113  0E1F                     l2216:
  2114  0E1F  0872               	movf	___awdiv@divisor,w
  2115  0E20  0473               	iorwf	___awdiv@divisor+1,w
  2116  0E21  1903               	btfsc	3,2
  2117  0E22  2E24               	goto	u2861
  2118  0E23  2E25               	goto	u2860
  2119  0E24                     u2861:
  2120  0E24  2E5C               	goto	l2236
  2121  0E25                     u2860:
  2122  0E25                     l2218:
  2123  0E25  01A0               	clrf	___awdiv@counter
  2124  0E26  0AA0               	incf	___awdiv@counter,f
  2125  0E27  2E33               	goto	l2224
  2126  0E28                     l2220:
  2127  0E28  3001               	movlw	1
  2128  0E29                     u2875:
  2129  0E29  1003               	clrc
  2130  0E2A  0DF2               	rlf	___awdiv@divisor,f
  2131  0E2B  0DF3               	rlf	___awdiv@divisor+1,f
  2132  0E2C  3EFF               	addlw	-1
  2133  0E2D  1D03               	skipz
  2134  0E2E  2E29               	goto	u2875
  2135  0E2F                     l2222:
  2136  0E2F  3001               	movlw	1
  2137  0E30  00F6               	movwf	??___awdiv
  2138  0E31  0876               	movf	??___awdiv,w
  2139  0E32  07A0               	addwf	___awdiv@counter,f
  2140  0E33                     l2224:
  2141  0E33  1FF3               	btfss	___awdiv@divisor+1,7
  2142  0E34  2E36               	goto	u2881
  2143  0E35  2E37               	goto	u2880
  2144  0E36                     u2881:
  2145  0E36  2E28               	goto	l2220
  2146  0E37                     u2880:
  2147  0E37                     l2226:
  2148  0E37  3001               	movlw	1
  2149  0E38                     u2895:
  2150  0E38  1003               	clrc
  2151  0E39  0DA2               	rlf	___awdiv@quotient,f
  2152  0E3A  0DA3               	rlf	___awdiv@quotient+1,f
  2153  0E3B  3EFF               	addlw	-1
  2154  0E3C  1D03               	skipz
  2155  0E3D  2E38               	goto	u2895
  2156  0E3E  0873               	movf	___awdiv@divisor+1,w
  2157  0E3F  0275               	subwf	___awdiv@dividend+1,w
  2158  0E40  1D03               	skipz
  2159  0E41  2E44               	goto	u2905
  2160  0E42  0872               	movf	___awdiv@divisor,w
  2161  0E43  0274               	subwf	___awdiv@dividend,w
  2162  0E44                     u2905:
  2163  0E44  1C03               	skipc
  2164  0E45  2E47               	goto	u2901
  2165  0E46  2E48               	goto	u2900
  2166  0E47                     u2901:
  2167  0E47  2E4F               	goto	l2232
  2168  0E48                     u2900:
  2169  0E48                     l2228:
  2170  0E48  0872               	movf	___awdiv@divisor,w
  2171  0E49  02F4               	subwf	___awdiv@dividend,f
  2172  0E4A  0873               	movf	___awdiv@divisor+1,w
  2173  0E4B  1C03               	skipc
  2174  0E4C  03F5               	decf	___awdiv@dividend+1,f
  2175  0E4D  02F5               	subwf	___awdiv@dividend+1,f
  2176  0E4E                     l2230:
  2177  0E4E  1422               	bsf	___awdiv@quotient,0
  2178  0E4F                     l2232:
  2179  0E4F  3001               	movlw	1
  2180  0E50                     u2915:
  2181  0E50  1003               	clrc
  2182  0E51  0CF3               	rrf	___awdiv@divisor+1,f
  2183  0E52  0CF2               	rrf	___awdiv@divisor,f
  2184  0E53  3EFF               	addlw	-1
  2185  0E54  1D03               	skipz
  2186  0E55  2E50               	goto	u2915
  2187  0E56                     l2234:
  2188  0E56  3001               	movlw	1
  2189  0E57  02A0               	subwf	___awdiv@counter,f
  2190  0E58  1D03               	btfss	3,2
  2191  0E59  2E5B               	goto	u2921
  2192  0E5A  2E5C               	goto	u2920
  2193  0E5B                     u2921:
  2194  0E5B  2E37               	goto	l2226
  2195  0E5C                     u2920:
  2196  0E5C                     l2236:
  2197  0E5C  0821               	movf	___awdiv@sign,w
  2198  0E5D  1903               	btfsc	3,2
  2199  0E5E  2E60               	goto	u2931
  2200  0E5F  2E61               	goto	u2930
  2201  0E60                     u2931:
  2202  0E60  2E66               	goto	l2240
  2203  0E61                     u2930:
  2204  0E61                     l2238:
  2205  0E61  09A2               	comf	___awdiv@quotient,f
  2206  0E62  09A3               	comf	___awdiv@quotient+1,f
  2207  0E63  0AA2               	incf	___awdiv@quotient,f
  2208  0E64  1903               	skipnz
  2209  0E65  0AA3               	incf	___awdiv@quotient+1,f
  2210  0E66                     l2240:
  2211  0E66  0823               	movf	___awdiv@quotient+1,w
  2212  0E67  00F3               	movwf	?___awdiv+1
  2213  0E68  0822               	movf	___awdiv@quotient,w
  2214  0E69  00F2               	movwf	?___awdiv
  2215  0E6A                     l409:
  2216  0E6A  0008               	return
  2217  0E6B                     __end_of___awdiv:
  2218                           
  2219                           	psect	text8
  2220  0719                     __ptext8:	
  2221 ;; *************** function ___xxtofl *****************
  2222 ;; Defined at:
  2223 ;;		line 10 in file "C:\Program Files\Microchip\xc8\v2.31\pic\sources\c90\common\xxtofl.c"
  2224 ;; Parameters:    Size  Location     Type
  2225 ;;  sign            1    wreg     unsigned char 
  2226 ;;  val             4    2[COMMON] long 
  2227 ;; Auto vars:     Size  Location     Type
  2228 ;;  sign            1    0[BANK0 ] unsigned char 
  2229 ;;  arg             4    2[BANK0 ] unsigned long 
  2230 ;;  exp             1    1[BANK0 ] unsigned char 
  2231 ;; Return value:  Size  Location     Type
  2232 ;;                  4    2[COMMON] unsigned char 
  2233 ;; Registers used:
  2234 ;;		wreg, status,2, status,0
  2235 ;; Tracked objects:
  2236 ;;		On entry : 0/0
  2237 ;;		On exit  : 0/0
  2238 ;;		Unchanged: 0/0
  2239 ;; Data sizes:     COMMON   BANK0   BANK1   BANK3   BANK2
  2240 ;;      Params:         4       0       0       0       0
  2241 ;;      Locals:         0       6       0       0       0
  2242 ;;      Temps:          4       0       0       0       0
  2243 ;;      Totals:         8       6       0       0       0
  2244 ;;Total ram usage:       14 bytes
  2245 ;; Hardware stack levels used:    1
  2246 ;; Hardware stack levels required when called:    1
  2247 ;; This function calls:
  2248 ;;		Nothing
  2249 ;; This function is called by:
  2250 ;;		_main
  2251 ;;		_floTochar
  2252 ;; This function uses a non-reentrant model
  2253 ;;
  2254                           
  2255                           
  2256                           ;psect for function ___xxtofl
  2257  0719                     ___xxtofl:
  2258                           
  2259                           ;incstack = 0
  2260                           ; Regs used in ___xxtofl: [wreg+status,2+status,0]
  2261                           ;___xxtofl@sign stored from wreg
  2262  0719  1283               	bcf	3,5	;RP0=0, select bank0
  2263  071A  1303               	bcf	3,6	;RP1=0, select bank0
  2264  071B  00A0               	movwf	___xxtofl@sign
  2265  071C                     l2008:
  2266  071C  0820               	movf	___xxtofl@sign,w
  2267  071D  1903               	btfsc	3,2
  2268  071E  2F20               	goto	u2601
  2269  071F  2F21               	goto	u2600
  2270  0720                     u2601:
  2271  0720  2F35               	goto	l2014
  2272  0721                     u2600:
  2273  0721                     l2010:
  2274  0721  1FF5               	btfss	___xxtofl@val+3,7
  2275  0722  2F24               	goto	u2611
  2276  0723  2F25               	goto	u2610
  2277  0724                     u2611:
  2278  0724  2F35               	goto	l2014
  2279  0725                     u2610:
  2280  0725                     l2012:
  2281  0725  0972               	comf	___xxtofl@val,w
  2282  0726  00A2               	movwf	___xxtofl@arg
  2283  0727  0973               	comf	___xxtofl@val+1,w
  2284  0728  00A3               	movwf	___xxtofl@arg+1
  2285  0729  0974               	comf	___xxtofl@val+2,w
  2286  072A  00A4               	movwf	___xxtofl@arg+2
  2287  072B  0975               	comf	___xxtofl@val+3,w
  2288  072C  00A5               	movwf	___xxtofl@arg+3
  2289  072D  0AA2               	incf	___xxtofl@arg,f
  2290  072E  1903               	skipnz
  2291  072F  0AA3               	incf	___xxtofl@arg+1,f
  2292  0730  1903               	skipnz
  2293  0731  0AA4               	incf	___xxtofl@arg+2,f
  2294  0732  1903               	skipnz
  2295  0733  0AA5               	incf	___xxtofl@arg+3,f
  2296  0734  2F3D               	goto	l689
  2297  0735                     l2014:
  2298  0735  0875               	movf	___xxtofl@val+3,w
  2299  0736  00A5               	movwf	___xxtofl@arg+3
  2300  0737  0874               	movf	___xxtofl@val+2,w
  2301  0738  00A4               	movwf	___xxtofl@arg+2
  2302  0739  0873               	movf	___xxtofl@val+1,w
  2303  073A  00A3               	movwf	___xxtofl@arg+1
  2304  073B  0872               	movf	___xxtofl@val,w
  2305  073C  00A2               	movwf	___xxtofl@arg
  2306  073D                     l689:
  2307  073D  0875               	movf	___xxtofl@val+3,w
  2308  073E  0474               	iorwf	___xxtofl@val+2,w
  2309  073F  0473               	iorwf	___xxtofl@val+1,w
  2310  0740  0472               	iorwf	___xxtofl@val,w
  2311  0741  1D03               	skipz
  2312  0742  2F44               	goto	u2621
  2313  0743  2F45               	goto	u2620
  2314  0744                     u2621:
  2315  0744  2F4E               	goto	l2020
  2316  0745                     u2620:
  2317  0745                     l2016:
  2318  0745  3000               	movlw	0
  2319  0746  00F5               	movwf	?___xxtofl+3
  2320  0747  3000               	movlw	0
  2321  0748  00F4               	movwf	?___xxtofl+2
  2322  0749  3000               	movlw	0
  2323  074A  00F3               	movwf	?___xxtofl+1
  2324  074B  3000               	movlw	0
  2325  074C  00F2               	movwf	?___xxtofl
  2326  074D  2FD4               	goto	l691
  2327  074E                     l2020:
  2328  074E  3096               	movlw	150
  2329  074F  00F6               	movwf	??___xxtofl
  2330  0750  0876               	movf	??___xxtofl,w
  2331  0751  00A1               	movwf	___xxtofl@exp
  2332  0752  2F60               	goto	l2024
  2333  0753                     l2022:
  2334  0753  3001               	movlw	1
  2335  0754  00F6               	movwf	??___xxtofl
  2336  0755  0876               	movf	??___xxtofl,w
  2337  0756  07A1               	addwf	___xxtofl@exp,f
  2338  0757  3001               	movlw	1
  2339  0758                     u2635:
  2340  0758  1003               	clrc
  2341  0759  0CA5               	rrf	___xxtofl@arg+3,f
  2342  075A  0CA4               	rrf	___xxtofl@arg+2,f
  2343  075B  0CA3               	rrf	___xxtofl@arg+1,f
  2344  075C  0CA2               	rrf	___xxtofl@arg,f
  2345  075D  3EFF               	addlw	-1
  2346  075E  1D03               	skipz
  2347  075F  2F58               	goto	u2635
  2348  0760                     l2024:
  2349  0760  30FE               	movlw	254
  2350  0761  0525               	andwf	___xxtofl@arg+3,w
  2351  0762  1D03               	btfss	3,2
  2352  0763  2F65               	goto	u2641
  2353  0764  2F66               	goto	u2640
  2354  0765                     u2641:
  2355  0765  2F53               	goto	l2022
  2356  0766                     u2640:
  2357  0766  2F82               	goto	l695
  2358  0767                     l2026:
  2359  0767  3001               	movlw	1
  2360  0768  00F6               	movwf	??___xxtofl
  2361  0769  0876               	movf	??___xxtofl,w
  2362  076A  07A1               	addwf	___xxtofl@exp,f
  2363  076B                     l2028:
  2364  076B  3001               	movlw	1
  2365  076C  07A2               	addwf	___xxtofl@arg,f
  2366  076D  3000               	movlw	0
  2367  076E  1803               	skipnc
  2368  076F  3001               	movlw	1
  2369  0770  07A3               	addwf	___xxtofl@arg+1,f
  2370  0771  3000               	movlw	0
  2371  0772  1803               	skipnc
  2372  0773  3001               	movlw	1
  2373  0774  07A4               	addwf	___xxtofl@arg+2,f
  2374  0775  3000               	movlw	0
  2375  0776  1803               	skipnc
  2376  0777  3001               	movlw	1
  2377  0778  07A5               	addwf	___xxtofl@arg+3,f
  2378  0779                     l2030:
  2379  0779  3001               	movlw	1
  2380  077A                     u2655:
  2381  077A  1003               	clrc
  2382  077B  0CA5               	rrf	___xxtofl@arg+3,f
  2383  077C  0CA4               	rrf	___xxtofl@arg+2,f
  2384  077D  0CA3               	rrf	___xxtofl@arg+1,f
  2385  077E  0CA2               	rrf	___xxtofl@arg,f
  2386  077F  3EFF               	addlw	-1
  2387  0780  1D03               	skipz
  2388  0781  2F7A               	goto	u2655
  2389  0782                     l695:
  2390  0782  30FF               	movlw	255
  2391  0783  0525               	andwf	___xxtofl@arg+3,w
  2392  0784  1D03               	btfss	3,2
  2393  0785  2F87               	goto	u2661
  2394  0786  2F88               	goto	u2660
  2395  0787                     u2661:
  2396  0787  2F67               	goto	l2026
  2397  0788                     u2660:
  2398  0788  2F94               	goto	l2034
  2399  0789                     l2032:
  2400  0789  3001               	movlw	1
  2401  078A  02A1               	subwf	___xxtofl@exp,f
  2402  078B  3001               	movlw	1
  2403  078C  00F6               	movwf	??___xxtofl
  2404  078D                     u2675:
  2405  078D  1003               	clrc
  2406  078E  0DA2               	rlf	___xxtofl@arg,f
  2407  078F  0DA3               	rlf	___xxtofl@arg+1,f
  2408  0790  0DA4               	rlf	___xxtofl@arg+2,f
  2409  0791  0DA5               	rlf	___xxtofl@arg+3,f
  2410  0792  0BF6               	decfsz	??___xxtofl,f
  2411  0793  2F8D               	goto	u2675
  2412  0794                     l2034:
  2413  0794  1BA4               	btfsc	___xxtofl@arg+2,7
  2414  0795  2F97               	goto	u2681
  2415  0796  2F98               	goto	u2680
  2416  0797                     u2681:
  2417  0797  2F9E               	goto	l702
  2418  0798                     u2680:
  2419  0798                     l2036:
  2420  0798  3002               	movlw	2
  2421  0799  0221               	subwf	___xxtofl@exp,w
  2422  079A  1803               	skipnc
  2423  079B  2F9D               	goto	u2691
  2424  079C  2F9E               	goto	u2690
  2425  079D                     u2691:
  2426  079D  2F89               	goto	l2032
  2427  079E                     u2690:
  2428  079E                     l702:
  2429  079E  1821               	btfsc	___xxtofl@exp,0
  2430  079F  2FA1               	goto	u2701
  2431  07A0  2FA2               	goto	u2700
  2432  07A1                     u2701:
  2433  07A1  2FAA               	goto	l703
  2434  07A2                     u2700:
  2435  07A2                     l2038:
  2436  07A2  30FF               	movlw	255
  2437  07A3  05A2               	andwf	___xxtofl@arg,f
  2438  07A4  30FF               	movlw	255
  2439  07A5  05A3               	andwf	___xxtofl@arg+1,f
  2440  07A6  307F               	movlw	127
  2441  07A7  05A4               	andwf	___xxtofl@arg+2,f
  2442  07A8  30FF               	movlw	255
  2443  07A9  05A5               	andwf	___xxtofl@arg+3,f
  2444  07AA                     l703:
  2445  07AA  1003               	clrc
  2446  07AB  0CA1               	rrf	___xxtofl@exp,f
  2447  07AC                     l2040:
  2448  07AC  0821               	movf	___xxtofl@exp,w
  2449  07AD  00F6               	movwf	??___xxtofl
  2450  07AE  01F7               	clrf	??___xxtofl+1
  2451  07AF  01F8               	clrf	??___xxtofl+2
  2452  07B0  01F9               	clrf	??___xxtofl+3
  2453  07B1  3018               	movlw	24
  2454  07B2                     u2715:
  2455  07B2  1003               	clrc
  2456  07B3  0DF6               	rlf	??___xxtofl,f
  2457  07B4  0DF7               	rlf	??___xxtofl+1,f
  2458  07B5  0DF8               	rlf	??___xxtofl+2,f
  2459  07B6  0DF9               	rlf	??___xxtofl+3,f
  2460  07B7                     u2710:
  2461  07B7  3EFF               	addlw	-1
  2462  07B8  1D03               	skipz
  2463  07B9  2FB2               	goto	u2715
  2464  07BA  0876               	movf	??___xxtofl,w
  2465  07BB  04A2               	iorwf	___xxtofl@arg,f
  2466  07BC  0877               	movf	??___xxtofl+1,w
  2467  07BD  04A3               	iorwf	___xxtofl@arg+1,f
  2468  07BE  0878               	movf	??___xxtofl+2,w
  2469  07BF  04A4               	iorwf	___xxtofl@arg+2,f
  2470  07C0  0879               	movf	??___xxtofl+3,w
  2471  07C1  04A5               	iorwf	___xxtofl@arg+3,f
  2472  07C2                     l2042:
  2473  07C2  0820               	movf	___xxtofl@sign,w
  2474  07C3  1903               	btfsc	3,2
  2475  07C4  2FC6               	goto	u2721
  2476  07C5  2FC7               	goto	u2720
  2477  07C6                     u2721:
  2478  07C6  2FCC               	goto	l2048
  2479  07C7                     u2720:
  2480  07C7                     l2044:
  2481  07C7  1FF5               	btfss	___xxtofl@val+3,7
  2482  07C8  2FCA               	goto	u2731
  2483  07C9  2FCB               	goto	u2730
  2484  07CA                     u2731:
  2485  07CA  2FCC               	goto	l2048
  2486  07CB                     u2730:
  2487  07CB                     l2046:
  2488  07CB  17A5               	bsf	___xxtofl@arg+3,7
  2489  07CC                     l2048:
  2490  07CC  0825               	movf	___xxtofl@arg+3,w
  2491  07CD  00F5               	movwf	?___xxtofl+3
  2492  07CE  0824               	movf	___xxtofl@arg+2,w
  2493  07CF  00F4               	movwf	?___xxtofl+2
  2494  07D0  0823               	movf	___xxtofl@arg+1,w
  2495  07D1  00F3               	movwf	?___xxtofl+1
  2496  07D2  0822               	movf	___xxtofl@arg,w
  2497  07D3  00F2               	movwf	?___xxtofl
  2498  07D4                     l691:
  2499  07D4  0008               	return
  2500  07D5                     __end_of___xxtofl:
  2501                           
  2502                           	psect	text9
  2503  0E6B                     __ptext9:	
  2504 ;; *************** function ___fltol *****************
  2505 ;; Defined at:
  2506 ;;		line 43 in file "C:\Program Files\Microchip\xc8\v2.31\pic\sources\c90\common\fltol.c"
  2507 ;; Parameters:    Size  Location     Type
  2508 ;;  f1              4   32[BANK0 ] unsigned char 
  2509 ;; Auto vars:     Size  Location     Type
  2510 ;;  exp1            1   42[BANK0 ] unsigned char 
  2511 ;;  sign1           1   41[BANK0 ] unsigned char 
  2512 ;; Return value:  Size  Location     Type
  2513 ;;                  4   32[BANK0 ] long 
  2514 ;; Registers used:
  2515 ;;		wreg, status,2, status,0
  2516 ;; Tracked objects:
  2517 ;;		On entry : 0/0
  2518 ;;		On exit  : 0/0
  2519 ;;		Unchanged: 0/0
  2520 ;; Data sizes:     COMMON   BANK0   BANK1   BANK3   BANK2
  2521 ;;      Params:         0       4       0       0       0
  2522 ;;      Locals:         0       2       0       0       0
  2523 ;;      Temps:          0       5       0       0       0
  2524 ;;      Totals:         0      11       0       0       0
  2525 ;;Total ram usage:       11 bytes
  2526 ;; Hardware stack levels used:    1
  2527 ;; Hardware stack levels required when called:    1
  2528 ;; This function calls:
  2529 ;;		Nothing
  2530 ;; This function is called by:
  2531 ;;		_floTochar
  2532 ;; This function uses a non-reentrant model
  2533 ;;
  2534                           
  2535                           
  2536                           ;psect for function ___fltol
  2537  0E6B                     ___fltol:
  2538  0E6B                     l1826:	
  2539                           ;incstack = 0
  2540                           ; Regs used in ___fltol: [wreg+status,2+status,0]
  2541                           
  2542  0E6B  1003               	clrc
  2543  0E6C  1283               	bcf	3,5	;RP0=0, select bank0
  2544  0E6D  1303               	bcf	3,6	;RP1=0, select bank0
  2545  0E6E  0D42               	rlf	___fltol@f1+2,w
  2546  0E6F  0D43               	rlf	___fltol@f1+3,w
  2547  0E70  00C4               	movwf	??___fltol
  2548  0E71  0844               	movf	??___fltol,w
  2549  0E72  00CA               	movwf	___fltol@exp1
  2550  0E73  084A               	movf	___fltol@exp1,w
  2551  0E74  1D03               	btfss	3,2
  2552  0E75  2E77               	goto	u2131
  2553  0E76  2E78               	goto	u2130
  2554  0E77                     u2131:
  2555  0E77  2E81               	goto	l1832
  2556  0E78                     u2130:
  2557  0E78                     l1828:
  2558  0E78  3000               	movlw	0
  2559  0E79  00C3               	movwf	?___fltol+3
  2560  0E7A  3000               	movlw	0
  2561  0E7B  00C2               	movwf	?___fltol+2
  2562  0E7C  3000               	movlw	0
  2563  0E7D  00C1               	movwf	?___fltol+1
  2564  0E7E  3000               	movlw	0
  2565  0E7F  00C0               	movwf	?___fltol
  2566  0E80  2EE6               	goto	l442
  2567  0E81                     l1832:
  2568  0E81  0840               	movf	___fltol@f1,w
  2569  0E82  00C4               	movwf	??___fltol
  2570  0E83  0841               	movf	___fltol@f1+1,w
  2571  0E84  00C5               	movwf	??___fltol+1
  2572  0E85  0842               	movf	___fltol@f1+2,w
  2573  0E86  00C6               	movwf	??___fltol+2
  2574  0E87  0843               	movf	___fltol@f1+3,w
  2575  0E88  00C7               	movwf	??___fltol+3
  2576  0E89  301F               	movlw	31
  2577  0E8A                     u2145:
  2578  0E8A  1003               	clrc
  2579  0E8B  0CC7               	rrf	??___fltol+3,f
  2580  0E8C  0CC6               	rrf	??___fltol+2,f
  2581  0E8D  0CC5               	rrf	??___fltol+1,f
  2582  0E8E  0CC4               	rrf	??___fltol,f
  2583  0E8F                     u2140:
  2584  0E8F  3EFF               	addlw	-1
  2585  0E90  1D03               	skipz
  2586  0E91  2E8A               	goto	u2145
  2587  0E92  0844               	movf	??___fltol,w
  2588  0E93  00C8               	movwf	??___fltol+4
  2589  0E94  0848               	movf	??___fltol+4,w
  2590  0E95  00C9               	movwf	___fltol@sign1
  2591  0E96                     l1834:
  2592  0E96  17C2               	bsf	___fltol@f1+2,7
  2593  0E97                     l1836:
  2594  0E97  30FF               	movlw	255
  2595  0E98  05C0               	andwf	___fltol@f1,f
  2596  0E99  30FF               	movlw	255
  2597  0E9A  05C1               	andwf	___fltol@f1+1,f
  2598  0E9B  30FF               	movlw	255
  2599  0E9C  05C2               	andwf	___fltol@f1+2,f
  2600  0E9D  3000               	movlw	0
  2601  0E9E  05C3               	andwf	___fltol@f1+3,f
  2602  0E9F                     l1838:
  2603  0E9F  3096               	movlw	150
  2604  0EA0  02CA               	subwf	___fltol@exp1,f
  2605  0EA1                     l1840:
  2606  0EA1  1FCA               	btfss	___fltol@exp1,7
  2607  0EA2  2EA4               	goto	u2151
  2608  0EA3  2EA5               	goto	u2150
  2609  0EA4                     u2151:
  2610  0EA4  2EBF               	goto	l1850
  2611  0EA5                     u2150:
  2612  0EA5                     l1842:
  2613  0EA5  084A               	movf	___fltol@exp1,w
  2614  0EA6  3A80               	xorlw	128
  2615  0EA7  3E97               	addlw	151
  2616  0EA8  1803               	skipnc
  2617  0EA9  2EAB               	goto	u2161
  2618  0EAA  2EAC               	goto	u2160
  2619  0EAB                     u2161:
  2620  0EAB  2EAD               	goto	l1848
  2621  0EAC                     u2160:
  2622  0EAC  2E78               	goto	l1828
  2623  0EAD                     l1848:
  2624  0EAD  3001               	movlw	1
  2625  0EAE                     u2175:
  2626  0EAE  1003               	clrc
  2627  0EAF  0CC3               	rrf	___fltol@f1+3,f
  2628  0EB0  0CC2               	rrf	___fltol@f1+2,f
  2629  0EB1  0CC1               	rrf	___fltol@f1+1,f
  2630  0EB2  0CC0               	rrf	___fltol@f1,f
  2631  0EB3  3EFF               	addlw	-1
  2632  0EB4  1D03               	skipz
  2633  0EB5  2EAE               	goto	u2175
  2634  0EB6  3001               	movlw	1
  2635  0EB7  00C4               	movwf	??___fltol
  2636  0EB8  0844               	movf	??___fltol,w
  2637  0EB9  07CA               	addwf	___fltol@exp1,f
  2638  0EBA  1D03               	btfss	3,2
  2639  0EBB  2EBD               	goto	u2181
  2640  0EBC  2EBE               	goto	u2180
  2641  0EBD                     u2181:
  2642  0EBD  2EAD               	goto	l1848
  2643  0EBE                     u2180:
  2644  0EBE  2ED6               	goto	l1858
  2645  0EBF                     l1850:
  2646  0EBF  3020               	movlw	32
  2647  0EC0  024A               	subwf	___fltol@exp1,w
  2648  0EC1  1C03               	skipc
  2649  0EC2  2EC4               	goto	u2191
  2650  0EC3  2EC5               	goto	u2190
  2651  0EC4                     u2191:
  2652  0EC4  2ED1               	goto	l449
  2653  0EC5                     u2190:
  2654  0EC5  2E78               	goto	l1828
  2655  0EC6                     l1856:
  2656  0EC6  3001               	movlw	1
  2657  0EC7  00C4               	movwf	??___fltol
  2658  0EC8                     u2205:
  2659  0EC8  1003               	clrc
  2660  0EC9  0DC0               	rlf	___fltol@f1,f
  2661  0ECA  0DC1               	rlf	___fltol@f1+1,f
  2662  0ECB  0DC2               	rlf	___fltol@f1+2,f
  2663  0ECC  0DC3               	rlf	___fltol@f1+3,f
  2664  0ECD  0BC4               	decfsz	??___fltol,f
  2665  0ECE  2EC8               	goto	u2205
  2666  0ECF  3001               	movlw	1
  2667  0ED0  02CA               	subwf	___fltol@exp1,f
  2668  0ED1                     l449:
  2669  0ED1  084A               	movf	___fltol@exp1,w
  2670  0ED2  1D03               	btfss	3,2
  2671  0ED3  2ED5               	goto	u2211
  2672  0ED4  2ED6               	goto	u2210
  2673  0ED5                     u2211:
  2674  0ED5  2EC6               	goto	l1856
  2675  0ED6                     u2210:
  2676  0ED6                     l1858:
  2677  0ED6  0849               	movf	___fltol@sign1,w
  2678  0ED7  1903               	btfsc	3,2
  2679  0ED8  2EDA               	goto	u2221
  2680  0ED9  2EDB               	goto	u2220
  2681  0EDA                     u2221:
  2682  0EDA  2EE6               	goto	l452
  2683  0EDB                     u2220:
  2684  0EDB                     l1860:
  2685  0EDB  09C0               	comf	___fltol@f1,f
  2686  0EDC  09C1               	comf	___fltol@f1+1,f
  2687  0EDD  09C2               	comf	___fltol@f1+2,f
  2688  0EDE  09C3               	comf	___fltol@f1+3,f
  2689  0EDF  0AC0               	incf	___fltol@f1,f
  2690  0EE0  1903               	skipnz
  2691  0EE1  0AC1               	incf	___fltol@f1+1,f
  2692  0EE2  1903               	skipnz
  2693  0EE3  0AC2               	incf	___fltol@f1+2,f
  2694  0EE4  1903               	skipnz
  2695  0EE5  0AC3               	incf	___fltol@f1+3,f
  2696  0EE6                     l452:
  2697  0EE6                     l442:
  2698  0EE6  0008               	return
  2699  0EE7                     __end_of___fltol:
  2700                           
  2701                           	psect	text10
  2702  0C5A                     __ptext10:	
  2703 ;; *************** function ___flsub *****************
  2704 ;; Defined at:
  2705 ;;		line 242 in file "C:\Program Files\Microchip\xc8\v2.31\pic\sources\c90\common\sprcadd.c"
  2706 ;; Parameters:    Size  Location     Type
  2707 ;;  a               4   12[BANK0 ] long 
  2708 ;;  b               4   16[BANK0 ] long 
  2709 ;; Auto vars:     Size  Location     Type
  2710 ;;		None
  2711 ;; Return value:  Size  Location     Type
  2712 ;;                  4   12[BANK0 ] long 
  2713 ;; Registers used:
  2714 ;;		wreg, status,2, status,0, btemp+1, pclath, cstack
  2715 ;; Tracked objects:
  2716 ;;		On entry : 0/0
  2717 ;;		On exit  : 0/0
  2718 ;;		Unchanged: 0/0
  2719 ;; Data sizes:     COMMON   BANK0   BANK1   BANK3   BANK2
  2720 ;;      Params:         0       8       0       0       0
  2721 ;;      Locals:         0       0       0       0       0
  2722 ;;      Temps:          0       0       0       0       0
  2723 ;;      Totals:         0       8       0       0       0
  2724 ;;Total ram usage:        8 bytes
  2725 ;; Hardware stack levels used:    1
  2726 ;; Hardware stack levels required when called:    2
  2727 ;; This function calls:
  2728 ;;		___fladd
  2729 ;; This function is called by:
  2730 ;;		_floTochar
  2731 ;; This function uses a non-reentrant model
  2732 ;;
  2733                           
  2734                           
  2735                           ;psect for function ___flsub
  2736  0C5A                     ___flsub:
  2737  0C5A                     l1862:	
  2738                           ;incstack = 0
  2739                           ; Regs used in ___flsub: [wreg+status,2+status,0+btemp+1+pclath+cstack]
  2740                           
  2741  0C5A  3080               	movlw	128
  2742  0C5B  1283               	bcf	3,5	;RP0=0, select bank0
  2743  0C5C  1303               	bcf	3,6	;RP1=0, select bank0
  2744  0C5D  06AF               	xorwf	___flsub@a+3,f
  2745  0C5E                     l1864:
  2746  0C5E  0833               	movf	___flsub@b+3,w
  2747  0C5F  00F5               	movwf	___fladd@b+3
  2748  0C60  0832               	movf	___flsub@b+2,w
  2749  0C61  00F4               	movwf	___fladd@b+2
  2750  0C62  0831               	movf	___flsub@b+1,w
  2751  0C63  00F3               	movwf	___fladd@b+1
  2752  0C64  0830               	movf	___flsub@b,w
  2753  0C65  00F2               	movwf	___fladd@b
  2754  0C66  082F               	movf	___flsub@a+3,w
  2755  0C67  00F9               	movwf	___fladd@a+3
  2756  0C68  082E               	movf	___flsub@a+2,w
  2757  0C69  00F8               	movwf	___fladd@a+2
  2758  0C6A  082D               	movf	___flsub@a+1,w
  2759  0C6B  00F7               	movwf	___fladd@a+1
  2760  0C6C  082C               	movf	___flsub@a,w
  2761  0C6D  00F6               	movwf	___fladd@a
  2762  0C6E  120A  118A  2382  120A  158A  	fcall	___fladd
  2763  0C73  0875               	movf	?___fladd+3,w
  2764  0C74  1283               	bcf	3,5	;RP0=0, select bank0
  2765  0C75  1303               	bcf	3,6	;RP1=0, select bank0
  2766  0C76  00AF               	movwf	?___flsub+3
  2767  0C77  0874               	movf	?___fladd+2,w
  2768  0C78  00AE               	movwf	?___flsub+2
  2769  0C79  0873               	movf	?___fladd+1,w
  2770  0C7A  00AD               	movwf	?___flsub+1
  2771  0C7B  0872               	movf	?___fladd,w
  2772  0C7C  00AC               	movwf	?___flsub
  2773  0C7D                     l595:
  2774  0C7D  0008               	return
  2775  0C7E                     __end_of___flsub:
  2776                           
  2777                           	psect	text11
  2778  0382                     __ptext11:	
  2779 ;; *************** function ___fladd *****************
  2780 ;; Defined at:
  2781 ;;		line 10 in file "C:\Program Files\Microchip\xc8\v2.31\pic\sources\c90\common\sprcadd.c"
  2782 ;; Parameters:    Size  Location     Type
  2783 ;;  b               4    2[COMMON] long 
  2784 ;;  a               4    6[COMMON] long 
  2785 ;; Auto vars:     Size  Location     Type
  2786 ;;  grs             1   11[BANK0 ] unsigned char 
  2787 ;;  bexp            1   10[BANK0 ] unsigned char 
  2788 ;;  aexp            1    9[BANK0 ] unsigned char 
  2789 ;;  signs           1    8[BANK0 ] unsigned char 
  2790 ;; Return value:  Size  Location     Type
  2791 ;;                  4    2[COMMON] unsigned char 
  2792 ;; Registers used:
  2793 ;;		wreg, status,2, status,0, btemp+1
  2794 ;; Tracked objects:
  2795 ;;		On entry : 0/0
  2796 ;;		On exit  : 0/0
  2797 ;;		Unchanged: 0/0
  2798 ;; Data sizes:     COMMON   BANK0   BANK1   BANK3   BANK2
  2799 ;;      Params:         8       0       0       0       0
  2800 ;;      Locals:         0       4       0       0       0
  2801 ;;      Temps:          0       8       0       0       0
  2802 ;;      Totals:         8      12       0       0       0
  2803 ;;Total ram usage:       20 bytes
  2804 ;; Hardware stack levels used:    1
  2805 ;; Hardware stack levels required when called:    1
  2806 ;; This function calls:
  2807 ;;		Nothing
  2808 ;; This function is called by:
  2809 ;;		___flsub
  2810 ;; This function uses a non-reentrant model
  2811 ;;
  2812                           
  2813                           
  2814                           ;psect for function ___fladd
  2815  0382                     ___fladd:
  2816  0382                     l1556:	
  2817                           ;incstack = 0
  2818                           ; Regs used in ___fladd: [wreg+status,2+status,0+btemp+1]
  2819                           
  2820  0382  0875               	movf	___fladd@b+3,w
  2821  0383  3980               	andlw	128
  2822  0384  1283               	bcf	3,5	;RP0=0, select bank0
  2823  0385  1303               	bcf	3,6	;RP1=0, select bank0
  2824  0386  00A0               	movwf	??___fladd
  2825  0387  0820               	movf	??___fladd,w
  2826  0388  00A8               	movwf	___fladd@signs
  2827  0389                     l1558:
  2828  0389  0875               	movf	___fladd@b+3,w
  2829  038A  00A0               	movwf	??___fladd
  2830  038B  0720               	addwf	??___fladd,w
  2831  038C  00A1               	movwf	??___fladd+1
  2832  038D  0821               	movf	??___fladd+1,w
  2833  038E  00AA               	movwf	___fladd@bexp
  2834  038F                     l1560:
  2835  038F  1FF4               	btfss	___fladd@b+2,7
  2836  0390  2B92               	goto	u1581
  2837  0391  2B93               	goto	u1580
  2838  0392                     u1581:
  2839  0392  2B94               	goto	l1564
  2840  0393                     u1580:
  2841  0393                     l1562:
  2842  0393  142A               	bsf	___fladd@bexp,0
  2843  0394                     l1564:
  2844  0394  082A               	movf	___fladd@bexp,w
  2845  0395  1903               	btfsc	3,2
  2846  0396  2B98               	goto	u1591
  2847  0397  2B99               	goto	u1590
  2848  0398                     u1591:
  2849  0398  2BA9               	goto	l1574
  2850  0399                     u1590:
  2851  0399                     l1566:
  2852  0399  0A2A               	incf	___fladd@bexp,w
  2853  039A  1D03               	btfss	3,2
  2854  039B  2B9D               	goto	u1601
  2855  039C  2B9E               	goto	u1600
  2856  039D                     u1601:
  2857  039D  2BA6               	goto	l1570
  2858  039E                     u1600:
  2859  039E                     l1568:
  2860  039E  3000               	movlw	0
  2861  039F  00F5               	movwf	___fladd@b+3
  2862  03A0  3000               	movlw	0
  2863  03A1  00F4               	movwf	___fladd@b+2
  2864  03A2  3000               	movlw	0
  2865  03A3  00F3               	movwf	___fladd@b+1
  2866  03A4  3000               	movlw	0
  2867  03A5  00F2               	movwf	___fladd@b
  2868  03A6                     l1570:
  2869  03A6  17F4               	bsf	___fladd@b+2,7
  2870  03A7                     l1572:
  2871  03A7  01F5               	clrf	___fladd@b+3
  2872  03A8  2BB1               	goto	l1576
  2873  03A9                     l1574:
  2874  03A9  3000               	movlw	0
  2875  03AA  00F5               	movwf	___fladd@b+3
  2876  03AB  3000               	movlw	0
  2877  03AC  00F4               	movwf	___fladd@b+2
  2878  03AD  3000               	movlw	0
  2879  03AE  00F3               	movwf	___fladd@b+1
  2880  03AF  3000               	movlw	0
  2881  03B0  00F2               	movwf	___fladd@b
  2882  03B1                     l1576:
  2883  03B1  0879               	movf	___fladd@a+3,w
  2884  03B2  3980               	andlw	128
  2885  03B3  00A0               	movwf	??___fladd
  2886  03B4  0820               	movf	??___fladd,w
  2887  03B5  00A9               	movwf	___fladd@aexp
  2888  03B6                     l1578:
  2889  03B6  0829               	movf	___fladd@aexp,w
  2890  03B7  0628               	xorwf	___fladd@signs,w
  2891  03B8  1903               	skipnz
  2892  03B9  2BBB               	goto	u1611
  2893  03BA  2BBC               	goto	u1610
  2894  03BB                     u1611:
  2895  03BB  2BBD               	goto	l1582
  2896  03BC                     u1610:
  2897  03BC                     l1580:
  2898  03BC  1728               	bsf	___fladd@signs,6
  2899  03BD                     l1582:
  2900  03BD  0879               	movf	___fladd@a+3,w
  2901  03BE  00A0               	movwf	??___fladd
  2902  03BF  0720               	addwf	??___fladd,w
  2903  03C0  00A1               	movwf	??___fladd+1
  2904  03C1  0821               	movf	??___fladd+1,w
  2905  03C2  00A9               	movwf	___fladd@aexp
  2906  03C3                     l1584:
  2907  03C3  1FF8               	btfss	___fladd@a+2,7
  2908  03C4  2BC6               	goto	u1621
  2909  03C5  2BC7               	goto	u1620
  2910  03C6                     u1621:
  2911  03C6  2BC8               	goto	l1588
  2912  03C7                     u1620:
  2913  03C7                     l1586:
  2914  03C7  1429               	bsf	___fladd@aexp,0
  2915  03C8                     l1588:
  2916  03C8  0829               	movf	___fladd@aexp,w
  2917  03C9  1903               	btfsc	3,2
  2918  03CA  2BCC               	goto	u1631
  2919  03CB  2BCD               	goto	u1630
  2920  03CC                     u1631:
  2921  03CC  2BDD               	goto	l1598
  2922  03CD                     u1630:
  2923  03CD                     l1590:
  2924  03CD  0A29               	incf	___fladd@aexp,w
  2925  03CE  1D03               	btfss	3,2
  2926  03CF  2BD1               	goto	u1641
  2927  03D0  2BD2               	goto	u1640
  2928  03D1                     u1641:
  2929  03D1  2BDA               	goto	l1594
  2930  03D2                     u1640:
  2931  03D2                     l1592:
  2932  03D2  3000               	movlw	0
  2933  03D3  00F9               	movwf	___fladd@a+3
  2934  03D4  3000               	movlw	0
  2935  03D5  00F8               	movwf	___fladd@a+2
  2936  03D6  3000               	movlw	0
  2937  03D7  00F7               	movwf	___fladd@a+1
  2938  03D8  3000               	movlw	0
  2939  03D9  00F6               	movwf	___fladd@a
  2940  03DA                     l1594:
  2941  03DA  17F8               	bsf	___fladd@a+2,7
  2942  03DB                     l1596:
  2943  03DB  01F9               	clrf	___fladd@a+3
  2944  03DC  2BE5               	goto	l549
  2945  03DD                     l1598:
  2946  03DD  3000               	movlw	0
  2947  03DE  00F9               	movwf	___fladd@a+3
  2948  03DF  3000               	movlw	0
  2949  03E0  00F8               	movwf	___fladd@a+2
  2950  03E1  3000               	movlw	0
  2951  03E2  00F7               	movwf	___fladd@a+1
  2952  03E3  3000               	movlw	0
  2953  03E4  00F6               	movwf	___fladd@a
  2954  03E5                     l549:
  2955  03E5  082A               	movf	___fladd@bexp,w
  2956  03E6  0229               	subwf	___fladd@aexp,w
  2957  03E7  1803               	skipnc
  2958  03E8  2BEA               	goto	u1651
  2959  03E9  2BEB               	goto	u1650
  2960  03EA                     u1651:
  2961  03EA  2C2F               	goto	l1634
  2962  03EB                     u1650:
  2963  03EB                     l1600:
  2964  03EB  1F28               	btfss	___fladd@signs,6
  2965  03EC  2BEE               	goto	u1661
  2966  03ED  2BEF               	goto	u1660
  2967  03EE                     u1661:
  2968  03EE  2BF3               	goto	l1604
  2969  03EF                     u1660:
  2970  03EF                     l1602:
  2971  03EF  3080               	movlw	128
  2972  03F0  00A0               	movwf	??___fladd
  2973  03F1  0820               	movf	??___fladd,w
  2974  03F2  06A8               	xorwf	___fladd@signs,f
  2975  03F3                     l1604:
  2976  03F3  082A               	movf	___fladd@bexp,w
  2977  03F4  00A0               	movwf	??___fladd
  2978  03F5  0820               	movf	??___fladd,w
  2979  03F6  00AB               	movwf	___fladd@grs
  2980  03F7                     l1606:
  2981  03F7  0829               	movf	___fladd@aexp,w
  2982  03F8  00A0               	movwf	??___fladd
  2983  03F9  0820               	movf	??___fladd,w
  2984  03FA  00AA               	movwf	___fladd@bexp
  2985  03FB                     l1608:
  2986  03FB  082B               	movf	___fladd@grs,w
  2987  03FC  00A0               	movwf	??___fladd
  2988  03FD  0820               	movf	??___fladd,w
  2989  03FE  00A9               	movwf	___fladd@aexp
  2990  03FF                     l1610:
  2991  03FF  0872               	movf	___fladd@b,w
  2992  0400  00A0               	movwf	??___fladd
  2993  0401  0820               	movf	??___fladd,w
  2994  0402  00AB               	movwf	___fladd@grs
  2995  0403                     l1612:
  2996  0403  0876               	movf	___fladd@a,w
  2997  0404  00A0               	movwf	??___fladd
  2998  0405  0820               	movf	??___fladd,w
  2999  0406  00F2               	movwf	___fladd@b
  3000  0407                     l1614:
  3001  0407  082B               	movf	___fladd@grs,w
  3002  0408  00A0               	movwf	??___fladd
  3003  0409  0820               	movf	??___fladd,w
  3004  040A  00F6               	movwf	___fladd@a
  3005  040B                     l1616:
  3006  040B  0873               	movf	___fladd@b+1,w
  3007  040C  00A0               	movwf	??___fladd
  3008  040D  0820               	movf	??___fladd,w
  3009  040E  00AB               	movwf	___fladd@grs
  3010  040F                     l1618:
  3011  040F  0877               	movf	___fladd@a+1,w
  3012  0410  00A0               	movwf	??___fladd
  3013  0411  0820               	movf	??___fladd,w
  3014  0412  00F3               	movwf	___fladd@b+1
  3015  0413                     l1620:
  3016  0413  082B               	movf	___fladd@grs,w
  3017  0414  00A0               	movwf	??___fladd
  3018  0415  0820               	movf	??___fladd,w
  3019  0416  00F7               	movwf	___fladd@a+1
  3020  0417                     l1622:
  3021  0417  0874               	movf	___fladd@b+2,w
  3022  0418  00A0               	movwf	??___fladd
  3023  0419  0820               	movf	??___fladd,w
  3024  041A  00AB               	movwf	___fladd@grs
  3025  041B                     l1624:
  3026  041B  0878               	movf	___fladd@a+2,w
  3027  041C  00A0               	movwf	??___fladd
  3028  041D  0820               	movf	??___fladd,w
  3029  041E  00F4               	movwf	___fladd@b+2
  3030  041F                     l1626:
  3031  041F  082B               	movf	___fladd@grs,w
  3032  0420  00A0               	movwf	??___fladd
  3033  0421  0820               	movf	??___fladd,w
  3034  0422  00F8               	movwf	___fladd@a+2
  3035  0423                     l1628:
  3036  0423  0875               	movf	___fladd@b+3,w
  3037  0424  00A0               	movwf	??___fladd
  3038  0425  0820               	movf	??___fladd,w
  3039  0426  00AB               	movwf	___fladd@grs
  3040  0427                     l1630:
  3041  0427  0879               	movf	___fladd@a+3,w
  3042  0428  00A0               	movwf	??___fladd
  3043  0429  0820               	movf	??___fladd,w
  3044  042A  00F5               	movwf	___fladd@b+3
  3045  042B                     l1632:
  3046  042B  082B               	movf	___fladd@grs,w
  3047  042C  00A0               	movwf	??___fladd
  3048  042D  0820               	movf	??___fladd,w
  3049  042E  00F9               	movwf	___fladd@a+3
  3050  042F                     l1634:
  3051  042F  01AB               	clrf	___fladd@grs
  3052  0430                     l1636:
  3053  0430  0829               	movf	___fladd@aexp,w
  3054  0431  00A0               	movwf	??___fladd
  3055  0432  01A1               	clrf	??___fladd+1
  3056  0433  0821               	movf	??___fladd+1,w
  3057  0434  00A3               	movwf	??___fladd+3
  3058  0435  082A               	movf	___fladd@bexp,w
  3059  0436  0220               	subwf	??___fladd,w
  3060  0437  00A2               	movwf	??___fladd+2
  3061  0438  1C03               	skipc
  3062  0439  03A3               	decf	??___fladd+3,f
  3063  043A  0823               	movf	??___fladd+3,w
  3064  043B  3A80               	xorlw	128
  3065  043C  00FF               	movwf	btemp+1
  3066  043D  3080               	movlw	128
  3067  043E  027F               	subwf	btemp+1,w
  3068  043F  1D03               	skipz
  3069  0440  2C43               	goto	u1675
  3070  0441  301A               	movlw	26
  3071  0442  0222               	subwf	??___fladd+2,w
  3072  0443                     u1675:
  3073  0443  1C03               	skipc
  3074  0444  2C46               	goto	u1671
  3075  0445  2C47               	goto	u1670
  3076  0446                     u1671:
  3077  0446  2C84               	goto	l1652
  3078  0447                     u1670:
  3079  0447                     l1638:
  3080  0447  0875               	movf	___fladd@b+3,w
  3081  0448  0474               	iorwf	___fladd@b+2,w
  3082  0449  0473               	iorwf	___fladd@b+1,w
  3083  044A  0472               	iorwf	___fladd@b,w
  3084  044B  1D03               	skipz
  3085  044C  2C4E               	goto	u1681
  3086  044D  2C50               	goto	u1680
  3087  044E                     u1681:
  3088  044E  3001               	movlw	1
  3089  044F  2C51               	goto	u1690
  3090  0450                     u1680:
  3091  0450  3000               	movlw	0
  3092  0451                     u1690:
  3093  0451  1283               	bcf	3,5	;RP0=0, select bank0
  3094  0452  1303               	bcf	3,6	;RP1=0, select bank0
  3095  0453  00A0               	movwf	??___fladd
  3096  0454  0820               	movf	??___fladd,w
  3097  0455  00AB               	movwf	___fladd@grs
  3098  0456  3000               	movlw	0
  3099  0457  00F5               	movwf	___fladd@b+3
  3100  0458  3000               	movlw	0
  3101  0459  00F4               	movwf	___fladd@b+2
  3102  045A  3000               	movlw	0
  3103  045B  00F3               	movwf	___fladd@b+1
  3104  045C  3000               	movlw	0
  3105  045D  00F2               	movwf	___fladd@b
  3106  045E  0829               	movf	___fladd@aexp,w
  3107  045F  00A0               	movwf	??___fladd
  3108  0460  0820               	movf	??___fladd,w
  3109  0461  00AA               	movwf	___fladd@bexp
  3110  0462  2C8C               	goto	l553
  3111  0463                     l555:
  3112  0463  1C2B               	btfss	___fladd@grs,0
  3113  0464  2C66               	goto	u1701
  3114  0465  2C67               	goto	u1700
  3115  0466                     u1701:
  3116  0466  2C70               	goto	l1642
  3117  0467                     u1700:
  3118  0467                     l1640:
  3119  0467  082B               	movf	___fladd@grs,w
  3120  0468  00A0               	movwf	??___fladd
  3121  0469  1003               	clrc
  3122  046A  0C20               	rrf	??___fladd,w
  3123  046B  3801               	iorlw	1
  3124  046C  00A1               	movwf	??___fladd+1
  3125  046D  0821               	movf	??___fladd+1,w
  3126  046E  00AB               	movwf	___fladd@grs
  3127  046F  2C72               	goto	l1644
  3128  0470                     l1642:
  3129  0470  1003               	clrc
  3130  0471  0CAB               	rrf	___fladd@grs,f
  3131  0472                     l1644:
  3132  0472  1C72               	btfss	___fladd@b,0
  3133  0473  2C75               	goto	u1711
  3134  0474  2C76               	goto	u1710
  3135  0475                     u1711:
  3136  0475  2C77               	goto	l1648
  3137  0476                     u1710:
  3138  0476                     l1646:
  3139  0476  17AB               	bsf	___fladd@grs,7
  3140  0477                     l1648:
  3141  0477  3001               	movlw	1
  3142  0478  00A0               	movwf	??___fladd
  3143  0479                     u1725:
  3144  0479  0D75               	rlf	___fladd@b+3,w
  3145  047A  0CF5               	rrf	___fladd@b+3,f
  3146  047B  0CF4               	rrf	___fladd@b+2,f
  3147  047C  0CF3               	rrf	___fladd@b+1,f
  3148  047D  0CF2               	rrf	___fladd@b,f
  3149  047E  0BA0               	decfsz	??___fladd& (0+127),f
  3150  047F  2C79               	goto	u1725
  3151  0480                     l1650:
  3152  0480  3001               	movlw	1
  3153  0481  00A0               	movwf	??___fladd
  3154  0482  0820               	movf	??___fladd,w
  3155  0483  07AA               	addwf	___fladd@bexp,f
  3156  0484                     l1652:
  3157  0484  1283               	bcf	3,5	;RP0=0, select bank0
  3158  0485  1303               	bcf	3,6	;RP1=0, select bank0
  3159  0486  0829               	movf	___fladd@aexp,w
  3160  0487  022A               	subwf	___fladd@bexp,w
  3161  0488  1C03               	skipc
  3162  0489  2C8B               	goto	u1731
  3163  048A  2C8C               	goto	u1730
  3164  048B                     u1731:
  3165  048B  2C63               	goto	l555
  3166  048C                     u1730:
  3167  048C                     l553:
  3168  048C  1B28               	btfsc	___fladd@signs,6
  3169  048D  2C8F               	goto	u1741
  3170  048E  2C90               	goto	u1740
  3171  048F                     u1741:
  3172  048F  2CDB               	goto	l1678
  3173  0490                     u1740:
  3174  0490                     l1654:
  3175  0490  082A               	movf	___fladd@bexp,w
  3176  0491  1D03               	btfss	3,2
  3177  0492  2C94               	goto	u1751
  3178  0493  2C95               	goto	u1750
  3179  0494                     u1751:
  3180  0494  2C9E               	goto	l1660
  3181  0495                     u1750:
  3182  0495                     l1656:
  3183  0495  3000               	movlw	0
  3184  0496  00F5               	movwf	?___fladd+3
  3185  0497  3000               	movlw	0
  3186  0498  00F4               	movwf	?___fladd+2
  3187  0499  3000               	movlw	0
  3188  049A  00F3               	movwf	?___fladd+1
  3189  049B  3000               	movlw	0
  3190  049C  00F2               	movwf	?___fladd
  3191  049D  2E09               	goto	l562
  3192  049E                     l1660:
  3193  049E  0876               	movf	___fladd@a,w
  3194  049F  07F2               	addwf	___fladd@b,f
  3195  04A0  0877               	movf	___fladd@a+1,w
  3196  04A1  1103               	clrz
  3197  04A2  1803               	skipnc
  3198  04A3  3E01               	addlw	1
  3199  04A4  1903               	skipnz
  3200  04A5  2CA7               	goto	u1761
  3201  04A6  07F3               	addwf	___fladd@b+1,f
  3202  04A7                     u1761:
  3203  04A7  0878               	movf	___fladd@a+2,w
  3204  04A8  1103               	clrz
  3205  04A9  1803               	skipnc
  3206  04AA  3E01               	addlw	1
  3207  04AB  1903               	skipnz
  3208  04AC  2CAE               	goto	u1762
  3209  04AD  07F4               	addwf	___fladd@b+2,f
  3210  04AE                     u1762:
  3211  04AE  0879               	movf	___fladd@a+3,w
  3212  04AF  1103               	clrz
  3213  04B0  1803               	skipnc
  3214  04B1  3E01               	addlw	1
  3215  04B2  1903               	skipnz
  3216  04B3  2CB5               	goto	u1763
  3217  04B4  07F5               	addwf	___fladd@b+3,f
  3218  04B5                     u1763:
  3219  04B5                     l1662:
  3220  04B5  1C75               	btfss	___fladd@b+3,0
  3221  04B6  2CB8               	goto	u1771
  3222  04B7  2CB9               	goto	u1770
  3223  04B8                     u1771:
  3224  04B8  2D8F               	goto	l1712
  3225  04B9                     u1770:
  3226  04B9                     l1664:
  3227  04B9  1C2B               	btfss	___fladd@grs,0
  3228  04BA  2CBC               	goto	u1781
  3229  04BB  2CBD               	goto	u1780
  3230  04BC                     u1781:
  3231  04BC  2CC6               	goto	l1668
  3232  04BD                     u1780:
  3233  04BD                     l1666:
  3234  04BD  082B               	movf	___fladd@grs,w
  3235  04BE  00A0               	movwf	??___fladd
  3236  04BF  1003               	clrc
  3237  04C0  0C20               	rrf	??___fladd,w
  3238  04C1  3801               	iorlw	1
  3239  04C2  00A1               	movwf	??___fladd+1
  3240  04C3  0821               	movf	??___fladd+1,w
  3241  04C4  00AB               	movwf	___fladd@grs
  3242  04C5  2CC8               	goto	l1670
  3243  04C6                     l1668:
  3244  04C6  1003               	clrc
  3245  04C7  0CAB               	rrf	___fladd@grs,f
  3246  04C8                     l1670:
  3247  04C8  1C72               	btfss	___fladd@b,0
  3248  04C9  2CCB               	goto	u1791
  3249  04CA  2CCC               	goto	u1790
  3250  04CB                     u1791:
  3251  04CB  2CCD               	goto	l1674
  3252  04CC                     u1790:
  3253  04CC                     l1672:
  3254  04CC  17AB               	bsf	___fladd@grs,7
  3255  04CD                     l1674:
  3256  04CD  3001               	movlw	1
  3257  04CE  00A0               	movwf	??___fladd
  3258  04CF                     u1805:
  3259  04CF  0D75               	rlf	___fladd@b+3,w
  3260  04D0  0CF5               	rrf	___fladd@b+3,f
  3261  04D1  0CF4               	rrf	___fladd@b+2,f
  3262  04D2  0CF3               	rrf	___fladd@b+1,f
  3263  04D3  0CF2               	rrf	___fladd@b,f
  3264  04D4  0BA0               	decfsz	??___fladd& (0+127),f
  3265  04D5  2CCF               	goto	u1805
  3266  04D6                     l1676:
  3267  04D6  3001               	movlw	1
  3268  04D7  00A0               	movwf	??___fladd
  3269  04D8  0820               	movf	??___fladd,w
  3270  04D9  07AA               	addwf	___fladd@bexp,f
  3271  04DA  2D8F               	goto	l1712
  3272  04DB                     l1678:
  3273  04DB  0875               	movf	___fladd@b+3,w
  3274  04DC  3A80               	xorlw	128
  3275  04DD  00FF               	movwf	btemp+1
  3276  04DE  0879               	movf	___fladd@a+3,w
  3277  04DF  3A80               	xorlw	128
  3278  04E0  027F               	subwf	btemp+1,w
  3279  04E1  1D03               	skipz
  3280  04E2  2CED               	goto	u1813
  3281  04E3  0878               	movf	___fladd@a+2,w
  3282  04E4  0274               	subwf	___fladd@b+2,w
  3283  04E5  1D03               	skipz
  3284  04E6  2CED               	goto	u1813
  3285  04E7  0877               	movf	___fladd@a+1,w
  3286  04E8  0273               	subwf	___fladd@b+1,w
  3287  04E9  1D03               	skipz
  3288  04EA  2CED               	goto	u1813
  3289  04EB  0876               	movf	___fladd@a,w
  3290  04EC  0272               	subwf	___fladd@b,w
  3291  04ED                     u1813:
  3292  04ED  1803               	skipnc
  3293  04EE  2CF0               	goto	u1811
  3294  04EF  2CF1               	goto	u1810
  3295  04F0                     u1811:
  3296  04F0  2D49               	goto	l1688
  3297  04F1                     u1810:
  3298  04F1                     l1680:
  3299  04F1  30FF               	movlw	255
  3300  04F2  00A0               	movwf	??___fladd
  3301  04F3  30FF               	movlw	255
  3302  04F4  00A1               	movwf	??___fladd+1
  3303  04F5  30FF               	movlw	255
  3304  04F6  00A2               	movwf	??___fladd+2
  3305  04F7  30FF               	movlw	255
  3306  04F8  00A3               	movwf	??___fladd+3
  3307  04F9  0876               	movf	___fladd@a,w
  3308  04FA  00A4               	movwf	??___fladd+4
  3309  04FB  0877               	movf	___fladd@a+1,w
  3310  04FC  00A5               	movwf	??___fladd+5
  3311  04FD  0878               	movf	___fladd@a+2,w
  3312  04FE  00A6               	movwf	??___fladd+6
  3313  04FF  0879               	movf	___fladd@a+3,w
  3314  0500  00A7               	movwf	??___fladd+7
  3315  0501  0872               	movf	___fladd@b,w
  3316  0502  02A4               	subwf	??___fladd+4,f
  3317  0503  0873               	movf	___fladd@b+1,w
  3318  0504  1C03               	skipc
  3319  0505  0F73               	incfsz	___fladd@b+1,w
  3320  0506  2D08               	goto	u1821
  3321  0507  2D09               	goto	u1822
  3322  0508                     u1821:
  3323  0508  02A5               	subwf	??___fladd+5,f
  3324  0509                     u1822:
  3325  0509  0874               	movf	___fladd@b+2,w
  3326  050A  1C03               	skipc
  3327  050B  0F74               	incfsz	___fladd@b+2,w
  3328  050C  2D0E               	goto	u1823
  3329  050D  2D0F               	goto	u1824
  3330  050E                     u1823:
  3331  050E  02A6               	subwf	??___fladd+6,f
  3332  050F                     u1824:
  3333  050F  0875               	movf	___fladd@b+3,w
  3334  0510  1C03               	skipc
  3335  0511  0F75               	incfsz	___fladd@b+3,w
  3336  0512  2D14               	goto	u1825
  3337  0513  2D15               	goto	u1826
  3338  0514                     u1825:
  3339  0514  02A7               	subwf	??___fladd+7,f
  3340  0515                     u1826:
  3341  0515  0824               	movf	??___fladd+4,w
  3342  0516  07A0               	addwf	??___fladd,f
  3343  0517  0825               	movf	??___fladd+5,w
  3344  0518  1803               	skipnc
  3345  0519  0F25               	incfsz	??___fladd+5,w
  3346  051A  2D1C               	goto	u1830
  3347  051B  2D1D               	goto	u1831
  3348  051C                     u1830:
  3349  051C  07A1               	addwf	??___fladd+1,f
  3350  051D                     u1831:
  3351  051D  0826               	movf	??___fladd+6,w
  3352  051E  1803               	skipnc
  3353  051F  0F26               	incfsz	??___fladd+6,w
  3354  0520  2D22               	goto	u1832
  3355  0521  2D23               	goto	u1833
  3356  0522                     u1832:
  3357  0522  07A2               	addwf	??___fladd+2,f
  3358  0523                     u1833:
  3359  0523  0827               	movf	??___fladd+7,w
  3360  0524  1803               	skipnc
  3361  0525  0A27               	incf	??___fladd+7,w
  3362  0526  07A3               	addwf	??___fladd+3,f
  3363  0527  0823               	movf	??___fladd+3,w
  3364  0528  00F5               	movwf	___fladd@b+3
  3365  0529  0822               	movf	??___fladd+2,w
  3366  052A  00F4               	movwf	___fladd@b+2
  3367  052B  0821               	movf	??___fladd+1,w
  3368  052C  00F3               	movwf	___fladd@b+1
  3369  052D  0820               	movf	??___fladd,w
  3370  052E  00F2               	movwf	___fladd@b
  3371  052F                     l1682:
  3372  052F  3080               	movlw	128
  3373  0530  00A0               	movwf	??___fladd
  3374  0531  0820               	movf	??___fladd,w
  3375  0532  06A8               	xorwf	___fladd@signs,f
  3376  0533  09AB               	comf	___fladd@grs,f
  3377  0534  0AAB               	incf	___fladd@grs,f
  3378  0535                     l1684:
  3379  0535  082B               	movf	___fladd@grs,w
  3380  0536  1D03               	btfss	3,2
  3381  0537  2D39               	goto	u1841
  3382  0538  2D3A               	goto	u1840
  3383  0539                     u1841:
  3384  0539  2D57               	goto	l570
  3385  053A                     u1840:
  3386  053A                     l1686:
  3387  053A  3001               	movlw	1
  3388  053B  07F2               	addwf	___fladd@b,f
  3389  053C  3000               	movlw	0
  3390  053D  1803               	skipnc
  3391  053E  3001               	movlw	1
  3392  053F  07F3               	addwf	___fladd@b+1,f
  3393  0540  3000               	movlw	0
  3394  0541  1803               	skipnc
  3395  0542  3001               	movlw	1
  3396  0543  07F4               	addwf	___fladd@b+2,f
  3397  0544  3000               	movlw	0
  3398  0545  1803               	skipnc
  3399  0546  3001               	movlw	1
  3400  0547  07F5               	addwf	___fladd@b+3,f
  3401  0548  2D57               	goto	l570
  3402  0549                     l1688:
  3403  0549  0876               	movf	___fladd@a,w
  3404  054A  02F2               	subwf	___fladd@b,f
  3405  054B  0877               	movf	___fladd@a+1,w
  3406  054C  1C03               	skipc
  3407  054D  0F77               	incfsz	___fladd@a+1,w
  3408  054E  02F3               	subwf	___fladd@b+1,f
  3409  054F  0878               	movf	___fladd@a+2,w
  3410  0550  1C03               	skipc
  3411  0551  0F78               	incfsz	___fladd@a+2,w
  3412  0552  02F4               	subwf	___fladd@b+2,f
  3413  0553  0879               	movf	___fladd@a+3,w
  3414  0554  1C03               	skipc
  3415  0555  0F79               	incfsz	___fladd@a+3,w
  3416  0556  02F5               	subwf	___fladd@b+3,f
  3417  0557                     l570:
  3418  0557  0875               	movf	___fladd@b+3,w
  3419  0558  0474               	iorwf	___fladd@b+2,w
  3420  0559  0473               	iorwf	___fladd@b+1,w
  3421  055A  0472               	iorwf	___fladd@b,w
  3422  055B  1D03               	skipz
  3423  055C  2D5E               	goto	u1851
  3424  055D  2D5F               	goto	u1850
  3425  055E                     u1851:
  3426  055E  2D8B               	goto	l1710
  3427  055F                     u1850:
  3428  055F                     l1690:
  3429  055F  082B               	movf	___fladd@grs,w
  3430  0560  1D03               	btfss	3,2
  3431  0561  2D63               	goto	u1861
  3432  0562  2D64               	goto	u1860
  3433  0563                     u1861:
  3434  0563  2D8B               	goto	l1710
  3435  0564                     u1860:
  3436  0564                     l1692:
  3437  0564  3000               	movlw	0
  3438  0565  00F5               	movwf	?___fladd+3
  3439  0566  3000               	movlw	0
  3440  0567  00F4               	movwf	?___fladd+2
  3441  0568  3000               	movlw	0
  3442  0569  00F3               	movwf	?___fladd+1
  3443  056A  3000               	movlw	0
  3444  056B  00F2               	movwf	?___fladd
  3445  056C  2E09               	goto	l562
  3446  056D                     l1696:
  3447  056D  3001               	movlw	1
  3448  056E  00A0               	movwf	??___fladd
  3449  056F                     u1875:
  3450  056F  1003               	clrc
  3451  0570  0DF2               	rlf	___fladd@b,f
  3452  0571  0DF3               	rlf	___fladd@b+1,f
  3453  0572  0DF4               	rlf	___fladd@b+2,f
  3454  0573  0DF5               	rlf	___fladd@b+3,f
  3455  0574  0BA0               	decfsz	??___fladd,f
  3456  0575  2D6F               	goto	u1875
  3457  0576                     l1698:
  3458  0576  1FAB               	btfss	___fladd@grs,7
  3459  0577  2D79               	goto	u1881
  3460  0578  2D7A               	goto	u1880
  3461  0579                     u1881:
  3462  0579  2D7B               	goto	l574
  3463  057A                     u1880:
  3464  057A                     l1700:
  3465  057A  1472               	bsf	___fladd@b,0
  3466  057B                     l574:
  3467  057B  1C2B               	btfss	___fladd@grs,0
  3468  057C  2D7E               	goto	u1891
  3469  057D  2D7F               	goto	u1890
  3470  057E                     u1891:
  3471  057E  2D82               	goto	l1704
  3472  057F                     u1890:
  3473  057F                     l1702:
  3474  057F  1403               	setc
  3475  0580  0DAB               	rlf	___fladd@grs,f
  3476  0581  2D84               	goto	l1706
  3477  0582                     l1704:
  3478  0582  1003               	clrc
  3479  0583  0DAB               	rlf	___fladd@grs,f
  3480  0584                     l1706:
  3481  0584  082A               	movf	___fladd@bexp,w
  3482  0585  1903               	btfsc	3,2
  3483  0586  2D88               	goto	u1901
  3484  0587  2D89               	goto	u1900
  3485  0588                     u1901:
  3486  0588  2D8B               	goto	l1710
  3487  0589                     u1900:
  3488  0589                     l1708:
  3489  0589  3001               	movlw	1
  3490  058A  02AA               	subwf	___fladd@bexp,f
  3491  058B                     l1710:
  3492  058B  1FF4               	btfss	___fladd@b+2,7
  3493  058C  2D8E               	goto	u1911
  3494  058D  2D8F               	goto	u1910
  3495  058E                     u1911:
  3496  058E  2D6D               	goto	l1696
  3497  058F                     u1910:
  3498  058F                     l1712:
  3499  058F  01A9               	clrf	___fladd@aexp
  3500  0590                     l1714:
  3501  0590  1FAB               	btfss	___fladd@grs,7
  3502  0591  2D93               	goto	u1921
  3503  0592  2D94               	goto	u1920
  3504  0593                     u1921:
  3505  0593  2DA2               	goto	l1722
  3506  0594                     u1920:
  3507  0594                     l1716:
  3508  0594  082B               	movf	___fladd@grs,w
  3509  0595  397F               	andlw	127
  3510  0596  1903               	btfsc	3,2
  3511  0597  2D99               	goto	u1931
  3512  0598  2D9A               	goto	u1930
  3513  0599                     u1931:
  3514  0599  2D9D               	goto	l580
  3515  059A                     u1930:
  3516  059A                     l1718:
  3517  059A  01A9               	clrf	___fladd@aexp
  3518  059B  0AA9               	incf	___fladd@aexp,f
  3519  059C  2DA2               	goto	l1722
  3520  059D                     l580:
  3521  059D  1C72               	btfss	___fladd@b,0
  3522  059E  2DA0               	goto	u1941
  3523  059F  2DA1               	goto	u1940
  3524  05A0                     u1941:
  3525  05A0  2DA2               	goto	l1722
  3526  05A1                     u1940:
  3527  05A1  2D9A               	goto	l1718
  3528  05A2                     l1722:
  3529  05A2  0829               	movf	___fladd@aexp,w
  3530  05A3  1903               	btfsc	3,2
  3531  05A4  2DA6               	goto	u1951
  3532  05A5  2DA7               	goto	u1950
  3533  05A6                     u1951:
  3534  05A6  2DDB               	goto	l583
  3535  05A7                     u1950:
  3536  05A7                     l1724:
  3537  05A7  3001               	movlw	1
  3538  05A8  07F2               	addwf	___fladd@b,f
  3539  05A9  3000               	movlw	0
  3540  05AA  1803               	skipnc
  3541  05AB  3001               	movlw	1
  3542  05AC  07F3               	addwf	___fladd@b+1,f
  3543  05AD  3000               	movlw	0
  3544  05AE  1803               	skipnc
  3545  05AF  3001               	movlw	1
  3546  05B0  07F4               	addwf	___fladd@b+2,f
  3547  05B1  3000               	movlw	0
  3548  05B2  1803               	skipnc
  3549  05B3  3001               	movlw	1
  3550  05B4  07F5               	addwf	___fladd@b+3,f
  3551  05B5                     l1726:
  3552  05B5  1C75               	btfss	___fladd@b+3,0
  3553  05B6  2DB8               	goto	u1961
  3554  05B7  2DB9               	goto	u1960
  3555  05B8                     u1961:
  3556  05B8  2DDB               	goto	l583
  3557  05B9                     u1960:
  3558  05B9                     l1728:
  3559  05B9  0872               	movf	___fladd@b,w
  3560  05BA  00A0               	movwf	??___fladd
  3561  05BB  0873               	movf	___fladd@b+1,w
  3562  05BC  00A1               	movwf	??___fladd+1
  3563  05BD  0874               	movf	___fladd@b+2,w
  3564  05BE  00A2               	movwf	??___fladd+2
  3565  05BF  0875               	movf	___fladd@b+3,w
  3566  05C0  00A3               	movwf	??___fladd+3
  3567  05C1  3001               	movlw	1
  3568  05C2  00A4               	movwf	??___fladd+4
  3569  05C3                     u1975:
  3570  05C3  0D23               	rlf	??___fladd+3,w
  3571  05C4  0CA3               	rrf	??___fladd+3,f
  3572  05C5  0CA2               	rrf	??___fladd+2,f
  3573  05C6  0CA1               	rrf	??___fladd+1,f
  3574  05C7  0CA0               	rrf	??___fladd,f
  3575  05C8                     u1970:
  3576  05C8  0BA4               	decfsz	??___fladd+4,f
  3577  05C9  2DC3               	goto	u1975
  3578  05CA  0823               	movf	??___fladd+3,w
  3579  05CB  00F5               	movwf	___fladd@b+3
  3580  05CC  0822               	movf	??___fladd+2,w
  3581  05CD  00F4               	movwf	___fladd@b+2
  3582  05CE  0821               	movf	??___fladd+1,w
  3583  05CF  00F3               	movwf	___fladd@b+1
  3584  05D0  0820               	movf	??___fladd,w
  3585  05D1  00F2               	movwf	___fladd@b
  3586  05D2  0A2A               	incf	___fladd@bexp,w
  3587  05D3  1903               	btfsc	3,2
  3588  05D4  2DD6               	goto	u1981
  3589  05D5  2DD7               	goto	u1980
  3590  05D6                     u1981:
  3591  05D6  2DDB               	goto	l583
  3592  05D7                     u1980:
  3593  05D7                     l1730:
  3594  05D7  3001               	movlw	1
  3595  05D8  00A0               	movwf	??___fladd
  3596  05D9  0820               	movf	??___fladd,w
  3597  05DA  07AA               	addwf	___fladd@bexp,f
  3598  05DB                     l583:
  3599  05DB  0A2A               	incf	___fladd@bexp,w
  3600  05DC  1903               	btfsc	3,2
  3601  05DD  2DDF               	goto	u1991
  3602  05DE  2DE0               	goto	u1990
  3603  05DF                     u1991:
  3604  05DF  2DE5               	goto	l1734
  3605  05E0                     u1990:
  3606  05E0                     l1732:
  3607  05E0  082A               	movf	___fladd@bexp,w
  3608  05E1  1D03               	btfss	3,2
  3609  05E2  2DE4               	goto	u2001
  3610  05E3  2DE5               	goto	u2000
  3611  05E4                     u2001:
  3612  05E4  2DF3               	goto	l1740
  3613  05E5                     u2000:
  3614  05E5                     l1734:
  3615  05E5  3000               	movlw	0
  3616  05E6  00F5               	movwf	___fladd@b+3
  3617  05E7  3000               	movlw	0
  3618  05E8  00F4               	movwf	___fladd@b+2
  3619  05E9  3000               	movlw	0
  3620  05EA  00F3               	movwf	___fladd@b+1
  3621  05EB  3000               	movlw	0
  3622  05EC  00F2               	movwf	___fladd@b
  3623  05ED                     l1736:
  3624  05ED  082A               	movf	___fladd@bexp,w
  3625  05EE  1D03               	btfss	3,2
  3626  05EF  2DF1               	goto	u2011
  3627  05F0  2DF2               	goto	u2010
  3628  05F1                     u2011:
  3629  05F1  2DF3               	goto	l1740
  3630  05F2                     u2010:
  3631  05F2                     l1738:
  3632  05F2  01A8               	clrf	___fladd@signs
  3633  05F3                     l1740:
  3634  05F3  1C2A               	btfss	___fladd@bexp,0
  3635  05F4  2DF6               	goto	u2021
  3636  05F5  2DF7               	goto	u2020
  3637  05F6                     u2021:
  3638  05F6  2DF9               	goto	l1744
  3639  05F7                     u2020:
  3640  05F7                     l1742:
  3641  05F7  17F4               	bsf	___fladd@b+2,7
  3642  05F8  2DFD               	goto	l591
  3643  05F9                     l1744:
  3644  05F9  307F               	movlw	127
  3645  05FA  00A0               	movwf	??___fladd
  3646  05FB  0820               	movf	??___fladd,w
  3647  05FC  05F4               	andwf	___fladd@b+2,f
  3648  05FD                     l591:
  3649  05FD  082A               	movf	___fladd@bexp,w
  3650  05FE  00A0               	movwf	??___fladd
  3651  05FF  1003               	clrc
  3652  0600  0C20               	rrf	??___fladd,w
  3653  0601  00A1               	movwf	??___fladd+1
  3654  0602  0821               	movf	??___fladd+1,w
  3655  0603  00F5               	movwf	___fladd@b+3
  3656  0604                     l1746:
  3657  0604  1FA8               	btfss	___fladd@signs,7
  3658  0605  2E07               	goto	u2031
  3659  0606  2E08               	goto	u2030
  3660  0607                     u2031:
  3661  0607  2E09               	goto	l592
  3662  0608                     u2030:
  3663  0608                     l1748:
  3664  0608  17F5               	bsf	___fladd@b+3,7
  3665  0609                     l592:
  3666  0609                     l562:
  3667  0609  0008               	return
  3668  060A                     __end_of___fladd:
  3669                           
  3670                           	psect	text12
  3671  0021                     __ptext12:	
  3672 ;; *************** function ___flmul *****************
  3673 ;; Defined at:
  3674 ;;		line 8 in file "C:\Program Files\Microchip\xc8\v2.31\pic\sources\c90\common\sprcmul.c"
  3675 ;; Parameters:    Size  Location     Type
  3676 ;;  b               4    6[BANK0 ] unsigned char 
  3677 ;;  a               4   10[BANK0 ] unsigned char 
  3678 ;; Auto vars:     Size  Location     Type
  3679 ;;  prod            4   26[BANK0 ] struct .
  3680 ;;  grs             4   21[BANK0 ] unsigned long 
  3681 ;;  temp            2   30[BANK0 ] struct .
  3682 ;;  bexp            1   25[BANK0 ] unsigned char 
  3683 ;;  aexp            1   20[BANK0 ] unsigned char 
  3684 ;;  sign            1   19[BANK0 ] unsigned char 
  3685 ;; Return value:  Size  Location     Type
  3686 ;;                  4    6[BANK0 ] unsigned char 
  3687 ;; Registers used:
  3688 ;;		wreg, status,2, status,0, btemp+1, pclath, cstack
  3689 ;; Tracked objects:
  3690 ;;		On entry : 0/0
  3691 ;;		On exit  : 0/0
  3692 ;;		Unchanged: 0/0
  3693 ;; Data sizes:     COMMON   BANK0   BANK1   BANK3   BANK2
  3694 ;;      Params:         0       8       0       0       0
  3695 ;;      Locals:         0      13       0       0       0
  3696 ;;      Temps:          0       5       0       0       0
  3697 ;;      Totals:         0      26       0       0       0
  3698 ;;Total ram usage:       26 bytes
  3699 ;; Hardware stack levels used:    1
  3700 ;; Hardware stack levels required when called:    2
  3701 ;; This function calls:
  3702 ;;		__Umul8_16
  3703 ;; This function is called by:
  3704 ;;		_main
  3705 ;;		_floTochar
  3706 ;; This function uses a non-reentrant model
  3707 ;;
  3708                           
  3709                           
  3710                           ;psect for function ___flmul
  3711  0021                     ___flmul:
  3712  0021                     l2300:	
  3713                           ;incstack = 0
  3714                           ; Regs used in ___flmul: [wreg+status,2+status,0+btemp+1+pclath+cstack]
  3715                           
  3716  0021  1283               	bcf	3,5	;RP0=0, select bank0
  3717  0022  1303               	bcf	3,6	;RP1=0, select bank0
  3718  0023  0829               	movf	___flmul@b+3,w
  3719  0024  3980               	andlw	128
  3720  0025  00AE               	movwf	??___flmul
  3721  0026  082E               	movf	??___flmul,w
  3722  0027  00B3               	movwf	___flmul@sign
  3723  0028                     l2302:
  3724  0028  0829               	movf	___flmul@b+3,w
  3725  0029  00AE               	movwf	??___flmul
  3726  002A  072E               	addwf	??___flmul,w
  3727  002B  00AF               	movwf	??___flmul+1
  3728  002C  082F               	movf	??___flmul+1,w
  3729  002D  00B9               	movwf	___flmul@bexp
  3730  002E                     l2304:
  3731  002E  1FA8               	btfss	___flmul@b+2,7
  3732  002F  2831               	goto	u3011
  3733  0030  2832               	goto	u3010
  3734  0031                     u3011:
  3735  0031  2833               	goto	l2308
  3736  0032                     u3010:
  3737  0032                     l2306:
  3738  0032  1439               	bsf	___flmul@bexp,0
  3739  0033                     l2308:
  3740  0033  0839               	movf	___flmul@bexp,w
  3741  0034  1903               	btfsc	3,2
  3742  0035  2837               	goto	u3021
  3743  0036  2838               	goto	u3020
  3744  0037                     u3021:
  3745  0037  2847               	goto	l2316
  3746  0038                     u3020:
  3747  0038                     l2310:
  3748  0038  0A39               	incf	___flmul@bexp,w
  3749  0039  1D03               	btfss	3,2
  3750  003A  283C               	goto	u3031
  3751  003B  283D               	goto	u3030
  3752  003C                     u3031:
  3753  003C  2845               	goto	l2314
  3754  003D                     u3030:
  3755  003D                     l2312:
  3756  003D  3000               	movlw	0
  3757  003E  00A9               	movwf	___flmul@b+3
  3758  003F  3000               	movlw	0
  3759  0040  00A8               	movwf	___flmul@b+2
  3760  0041  3000               	movlw	0
  3761  0042  00A7               	movwf	___flmul@b+1
  3762  0043  3000               	movlw	0
  3763  0044  00A6               	movwf	___flmul@b
  3764  0045                     l2314:
  3765  0045  17A8               	bsf	___flmul@b+2,7
  3766  0046  284F               	goto	l2318
  3767  0047                     l2316:
  3768  0047  3000               	movlw	0
  3769  0048  00A9               	movwf	___flmul@b+3
  3770  0049  3000               	movlw	0
  3771  004A  00A8               	movwf	___flmul@b+2
  3772  004B  3000               	movlw	0
  3773  004C  00A7               	movwf	___flmul@b+1
  3774  004D  3000               	movlw	0
  3775  004E  00A6               	movwf	___flmul@b
  3776  004F                     l2318:
  3777  004F  082D               	movf	___flmul@a+3,w
  3778  0050  3980               	andlw	128
  3779  0051  00AE               	movwf	??___flmul
  3780  0052  082E               	movf	??___flmul,w
  3781  0053  06B3               	xorwf	___flmul@sign,f
  3782  0054                     l2320:
  3783  0054  082D               	movf	___flmul@a+3,w
  3784  0055  00AE               	movwf	??___flmul
  3785  0056  072E               	addwf	??___flmul,w
  3786  0057  00AF               	movwf	??___flmul+1
  3787  0058  082F               	movf	??___flmul+1,w
  3788  0059  00B4               	movwf	___flmul@aexp
  3789  005A                     l2322:
  3790  005A  1FAC               	btfss	___flmul@a+2,7
  3791  005B  285D               	goto	u3041
  3792  005C  285E               	goto	u3040
  3793  005D                     u3041:
  3794  005D  285F               	goto	l2326
  3795  005E                     u3040:
  3796  005E                     l2324:
  3797  005E  1434               	bsf	___flmul@aexp,0
  3798  005F                     l2326:
  3799  005F  0834               	movf	___flmul@aexp,w
  3800  0060  1903               	btfsc	3,2
  3801  0061  2863               	goto	u3051
  3802  0062  2864               	goto	u3050
  3803  0063                     u3051:
  3804  0063  2873               	goto	l2334
  3805  0064                     u3050:
  3806  0064                     l2328:
  3807  0064  0A34               	incf	___flmul@aexp,w
  3808  0065  1D03               	btfss	3,2
  3809  0066  2868               	goto	u3061
  3810  0067  2869               	goto	u3060
  3811  0068                     u3061:
  3812  0068  2871               	goto	l2332
  3813  0069                     u3060:
  3814  0069                     l2330:
  3815  0069  3000               	movlw	0
  3816  006A  00AD               	movwf	___flmul@a+3
  3817  006B  3000               	movlw	0
  3818  006C  00AC               	movwf	___flmul@a+2
  3819  006D  3000               	movlw	0
  3820  006E  00AB               	movwf	___flmul@a+1
  3821  006F  3000               	movlw	0
  3822  0070  00AA               	movwf	___flmul@a
  3823  0071                     l2332:
  3824  0071  17AC               	bsf	___flmul@a+2,7
  3825  0072  287B               	goto	l2336
  3826  0073                     l2334:
  3827  0073  3000               	movlw	0
  3828  0074  00AD               	movwf	___flmul@a+3
  3829  0075  3000               	movlw	0
  3830  0076  00AC               	movwf	___flmul@a+2
  3831  0077  3000               	movlw	0
  3832  0078  00AB               	movwf	___flmul@a+1
  3833  0079  3000               	movlw	0
  3834  007A  00AA               	movwf	___flmul@a
  3835  007B                     l2336:
  3836  007B  0834               	movf	___flmul@aexp,w
  3837  007C  1903               	btfsc	3,2
  3838  007D  287F               	goto	u3071
  3839  007E  2880               	goto	u3070
  3840  007F                     u3071:
  3841  007F  2885               	goto	l2340
  3842  0080                     u3070:
  3843  0080                     l2338:
  3844  0080  0839               	movf	___flmul@bexp,w
  3845  0081  1D03               	btfss	3,2
  3846  0082  2884               	goto	u3081
  3847  0083  2885               	goto	u3080
  3848  0084                     u3081:
  3849  0084  288E               	goto	l2344
  3850  0085                     u3080:
  3851  0085                     l2340:
  3852  0085  3000               	movlw	0
  3853  0086  00A9               	movwf	?___flmul+3
  3854  0087  3000               	movlw	0
  3855  0088  00A8               	movwf	?___flmul+2
  3856  0089  3000               	movlw	0
  3857  008A  00A7               	movwf	?___flmul+1
  3858  008B  3000               	movlw	0
  3859  008C  00A6               	movwf	?___flmul
  3860  008D  2B81               	goto	l645
  3861  008E                     l2344:
  3862  008E  0826               	movf	___flmul@b,w
  3863  008F  00AE               	movwf	??___flmul
  3864  0090  082E               	movf	??___flmul,w
  3865  0091  00F2               	movwf	__Umul8_16@multiplicand
  3866  0092  082C               	movf	___flmul@a+2,w
  3867  0093  120A  118A  27D5  120A  118A  	fcall	__Umul8_16
  3868  0098  0873               	movf	?__Umul8_16+1,w
  3869  0099  1283               	bcf	3,5	;RP0=0, select bank0
  3870  009A  1303               	bcf	3,6	;RP1=0, select bank0
  3871  009B  00BF               	movwf	___flmul@temp+1
  3872  009C  0872               	movf	?__Umul8_16,w
  3873  009D  00BE               	movwf	___flmul@temp
  3874  009E                     l2346:
  3875  009E  083E               	movf	___flmul@temp,w
  3876  009F  00AE               	movwf	??___flmul
  3877  00A0  01AF               	clrf	??___flmul+1
  3878  00A1  01B0               	clrf	??___flmul+2
  3879  00A2  01B1               	clrf	??___flmul+3
  3880  00A3  0831               	movf	??___flmul+3,w
  3881  00A4  00B8               	movwf	___flmul@grs+3
  3882  00A5  0830               	movf	??___flmul+2,w
  3883  00A6  00B7               	movwf	___flmul@grs+2
  3884  00A7  082F               	movf	??___flmul+1,w
  3885  00A8  00B6               	movwf	___flmul@grs+1
  3886  00A9  082E               	movf	??___flmul,w
  3887  00AA  00B5               	movwf	___flmul@grs
  3888  00AB                     l2348:
  3889  00AB  083F               	movf	___flmul@temp+1,w
  3890  00AC  00AE               	movwf	??___flmul
  3891  00AD  01AF               	clrf	??___flmul+1
  3892  00AE  01B0               	clrf	??___flmul+2
  3893  00AF  01B1               	clrf	??___flmul+3
  3894  00B0  0831               	movf	??___flmul+3,w
  3895  00B1  00BD               	movwf	___flmul@prod+3
  3896  00B2  0830               	movf	??___flmul+2,w
  3897  00B3  00BC               	movwf	___flmul@prod+2
  3898  00B4  082F               	movf	??___flmul+1,w
  3899  00B5  00BB               	movwf	___flmul@prod+1
  3900  00B6  082E               	movf	??___flmul,w
  3901  00B7  00BA               	movwf	___flmul@prod
  3902  00B8  0827               	movf	___flmul@b+1,w
  3903  00B9  00AE               	movwf	??___flmul
  3904  00BA  082E               	movf	??___flmul,w
  3905  00BB  00F2               	movwf	__Umul8_16@multiplicand
  3906  00BC  082B               	movf	___flmul@a+1,w
  3907  00BD  120A  118A  27D5  120A  118A  	fcall	__Umul8_16
  3908  00C2  0873               	movf	?__Umul8_16+1,w
  3909  00C3  1283               	bcf	3,5	;RP0=0, select bank0
  3910  00C4  1303               	bcf	3,6	;RP1=0, select bank0
  3911  00C5  00BF               	movwf	___flmul@temp+1
  3912  00C6  0872               	movf	?__Umul8_16,w
  3913  00C7  00BE               	movwf	___flmul@temp
  3914  00C8                     l2350:
  3915  00C8  083E               	movf	___flmul@temp,w
  3916  00C9  00AE               	movwf	??___flmul
  3917  00CA  01AF               	clrf	??___flmul+1
  3918  00CB  01B0               	clrf	??___flmul+2
  3919  00CC  01B1               	clrf	??___flmul+3
  3920  00CD  082E               	movf	??___flmul,w
  3921  00CE  07B5               	addwf	___flmul@grs,f
  3922  00CF  082F               	movf	??___flmul+1,w
  3923  00D0  1103               	clrz
  3924  00D1  1803               	skipnc
  3925  00D2  3E01               	addlw	1
  3926  00D3  1903               	skipnz
  3927  00D4  28D6               	goto	u3091
  3928  00D5  07B6               	addwf	___flmul@grs+1,f
  3929  00D6                     u3091:
  3930  00D6  0830               	movf	??___flmul+2,w
  3931  00D7  1103               	clrz
  3932  00D8  1803               	skipnc
  3933  00D9  3E01               	addlw	1
  3934  00DA  1903               	skipnz
  3935  00DB  28DD               	goto	u3092
  3936  00DC  07B7               	addwf	___flmul@grs+2,f
  3937  00DD                     u3092:
  3938  00DD  0831               	movf	??___flmul+3,w
  3939  00DE  1103               	clrz
  3940  00DF  1803               	skipnc
  3941  00E0  3E01               	addlw	1
  3942  00E1  1903               	skipnz
  3943  00E2  28E4               	goto	u3093
  3944  00E3  07B8               	addwf	___flmul@grs+3,f
  3945  00E4                     u3093:
  3946  00E4                     l2352:
  3947  00E4  083F               	movf	___flmul@temp+1,w
  3948  00E5  00AE               	movwf	??___flmul
  3949  00E6  01AF               	clrf	??___flmul+1
  3950  00E7  01B0               	clrf	??___flmul+2
  3951  00E8  01B1               	clrf	??___flmul+3
  3952  00E9  082E               	movf	??___flmul,w
  3953  00EA  07BA               	addwf	___flmul@prod,f
  3954  00EB  082F               	movf	??___flmul+1,w
  3955  00EC  1103               	clrz
  3956  00ED  1803               	skipnc
  3957  00EE  3E01               	addlw	1
  3958  00EF  1903               	skipnz
  3959  00F0  28F2               	goto	u3101
  3960  00F1  07BB               	addwf	___flmul@prod+1,f
  3961  00F2                     u3101:
  3962  00F2  0830               	movf	??___flmul+2,w
  3963  00F3  1103               	clrz
  3964  00F4  1803               	skipnc
  3965  00F5  3E01               	addlw	1
  3966  00F6  1903               	skipnz
  3967  00F7  28F9               	goto	u3102
  3968  00F8  07BC               	addwf	___flmul@prod+2,f
  3969  00F9                     u3102:
  3970  00F9  0831               	movf	??___flmul+3,w
  3971  00FA  1103               	clrz
  3972  00FB  1803               	skipnc
  3973  00FC  3E01               	addlw	1
  3974  00FD  1903               	skipnz
  3975  00FE  2900               	goto	u3103
  3976  00FF  07BD               	addwf	___flmul@prod+3,f
  3977  0100                     u3103:
  3978  0100  0828               	movf	___flmul@b+2,w
  3979  0101  00AE               	movwf	??___flmul
  3980  0102  082E               	movf	??___flmul,w
  3981  0103  00F2               	movwf	__Umul8_16@multiplicand
  3982  0104  082A               	movf	___flmul@a,w
  3983  0105  120A  118A  27D5  120A  118A  	fcall	__Umul8_16
  3984  010A  0873               	movf	?__Umul8_16+1,w
  3985  010B  1283               	bcf	3,5	;RP0=0, select bank0
  3986  010C  1303               	bcf	3,6	;RP1=0, select bank0
  3987  010D  00BF               	movwf	___flmul@temp+1
  3988  010E  0872               	movf	?__Umul8_16,w
  3989  010F  00BE               	movwf	___flmul@temp
  3990  0110                     l2354:
  3991  0110  083E               	movf	___flmul@temp,w
  3992  0111  00AE               	movwf	??___flmul
  3993  0112  01AF               	clrf	??___flmul+1
  3994  0113  01B0               	clrf	??___flmul+2
  3995  0114  01B1               	clrf	??___flmul+3
  3996  0115  082E               	movf	??___flmul,w
  3997  0116  07B5               	addwf	___flmul@grs,f
  3998  0117  082F               	movf	??___flmul+1,w
  3999  0118  1103               	clrz
  4000  0119  1803               	skipnc
  4001  011A  3E01               	addlw	1
  4002  011B  1903               	skipnz
  4003  011C  291E               	goto	u3111
  4004  011D  07B6               	addwf	___flmul@grs+1,f
  4005  011E                     u3111:
  4006  011E  0830               	movf	??___flmul+2,w
  4007  011F  1103               	clrz
  4008  0120  1803               	skipnc
  4009  0121  3E01               	addlw	1
  4010  0122  1903               	skipnz
  4011  0123  2925               	goto	u3112
  4012  0124  07B7               	addwf	___flmul@grs+2,f
  4013  0125                     u3112:
  4014  0125  0831               	movf	??___flmul+3,w
  4015  0126  1103               	clrz
  4016  0127  1803               	skipnc
  4017  0128  3E01               	addlw	1
  4018  0129  1903               	skipnz
  4019  012A  292C               	goto	u3113
  4020  012B  07B8               	addwf	___flmul@grs+3,f
  4021  012C                     u3113:
  4022  012C                     l2356:
  4023  012C  083F               	movf	___flmul@temp+1,w
  4024  012D  00AE               	movwf	??___flmul
  4025  012E  01AF               	clrf	??___flmul+1
  4026  012F  01B0               	clrf	??___flmul+2
  4027  0130  01B1               	clrf	??___flmul+3
  4028  0131  082E               	movf	??___flmul,w
  4029  0132  07BA               	addwf	___flmul@prod,f
  4030  0133  082F               	movf	??___flmul+1,w
  4031  0134  1103               	clrz
  4032  0135  1803               	skipnc
  4033  0136  3E01               	addlw	1
  4034  0137  1903               	skipnz
  4035  0138  293A               	goto	u3121
  4036  0139  07BB               	addwf	___flmul@prod+1,f
  4037  013A                     u3121:
  4038  013A  0830               	movf	??___flmul+2,w
  4039  013B  1103               	clrz
  4040  013C  1803               	skipnc
  4041  013D  3E01               	addlw	1
  4042  013E  1903               	skipnz
  4043  013F  2941               	goto	u3122
  4044  0140  07BC               	addwf	___flmul@prod+2,f
  4045  0141                     u3122:
  4046  0141  0831               	movf	??___flmul+3,w
  4047  0142  1103               	clrz
  4048  0143  1803               	skipnc
  4049  0144  3E01               	addlw	1
  4050  0145  1903               	skipnz
  4051  0146  2948               	goto	u3123
  4052  0147  07BD               	addwf	___flmul@prod+3,f
  4053  0148                     u3123:
  4054  0148                     l2358:
  4055  0148  3008               	movlw	8
  4056  0149  00AE               	movwf	??___flmul
  4057  014A                     u3135:
  4058  014A  1003               	clrc
  4059  014B  0DB5               	rlf	___flmul@grs,f
  4060  014C  0DB6               	rlf	___flmul@grs+1,f
  4061  014D  0DB7               	rlf	___flmul@grs+2,f
  4062  014E  0DB8               	rlf	___flmul@grs+3,f
  4063  014F  0BAE               	decfsz	??___flmul,f
  4064  0150  294A               	goto	u3135
  4065  0151                     l2360:
  4066  0151  0827               	movf	___flmul@b+1,w
  4067  0152  00AE               	movwf	??___flmul
  4068  0153  082E               	movf	??___flmul,w
  4069  0154  00F2               	movwf	__Umul8_16@multiplicand
  4070  0155  082A               	movf	___flmul@a,w
  4071  0156  120A  118A  27D5  120A  118A  	fcall	__Umul8_16
  4072  015B  0873               	movf	?__Umul8_16+1,w
  4073  015C  1283               	bcf	3,5	;RP0=0, select bank0
  4074  015D  1303               	bcf	3,6	;RP1=0, select bank0
  4075  015E  00BF               	movwf	___flmul@temp+1
  4076  015F  0872               	movf	?__Umul8_16,w
  4077  0160  00BE               	movwf	___flmul@temp
  4078  0161                     l2362:
  4079  0161  083E               	movf	___flmul@temp,w
  4080  0162  00AE               	movwf	??___flmul
  4081  0163  083F               	movf	___flmul@temp+1,w
  4082  0164  00AF               	movwf	??___flmul+1
  4083  0165  01B0               	clrf	??___flmul+2
  4084  0166  01B1               	clrf	??___flmul+3
  4085  0167  082E               	movf	??___flmul,w
  4086  0168  07B5               	addwf	___flmul@grs,f
  4087  0169  082F               	movf	??___flmul+1,w
  4088  016A  1103               	clrz
  4089  016B  1803               	skipnc
  4090  016C  3E01               	addlw	1
  4091  016D  1903               	skipnz
  4092  016E  2970               	goto	u3141
  4093  016F  07B6               	addwf	___flmul@grs+1,f
  4094  0170                     u3141:
  4095  0170  0830               	movf	??___flmul+2,w
  4096  0171  1103               	clrz
  4097  0172  1803               	skipnc
  4098  0173  3E01               	addlw	1
  4099  0174  1903               	skipnz
  4100  0175  2977               	goto	u3142
  4101  0176  07B7               	addwf	___flmul@grs+2,f
  4102  0177                     u3142:
  4103  0177  0831               	movf	??___flmul+3,w
  4104  0178  1103               	clrz
  4105  0179  1803               	skipnc
  4106  017A  3E01               	addlw	1
  4107  017B  1903               	skipnz
  4108  017C  297E               	goto	u3143
  4109  017D  07B8               	addwf	___flmul@grs+3,f
  4110  017E                     u3143:
  4111  017E                     l2364:
  4112  017E  0826               	movf	___flmul@b,w
  4113  017F  00AE               	movwf	??___flmul
  4114  0180  082E               	movf	??___flmul,w
  4115  0181  00F2               	movwf	__Umul8_16@multiplicand
  4116  0182  082B               	movf	___flmul@a+1,w
  4117  0183  120A  118A  27D5  120A  118A  	fcall	__Umul8_16
  4118  0188  0873               	movf	?__Umul8_16+1,w
  4119  0189  1283               	bcf	3,5	;RP0=0, select bank0
  4120  018A  1303               	bcf	3,6	;RP1=0, select bank0
  4121  018B  00BF               	movwf	___flmul@temp+1
  4122  018C  0872               	movf	?__Umul8_16,w
  4123  018D  00BE               	movwf	___flmul@temp
  4124  018E                     l2366:
  4125  018E  083E               	movf	___flmul@temp,w
  4126  018F  00AE               	movwf	??___flmul
  4127  0190  083F               	movf	___flmul@temp+1,w
  4128  0191  00AF               	movwf	??___flmul+1
  4129  0192  01B0               	clrf	??___flmul+2
  4130  0193  01B1               	clrf	??___flmul+3
  4131  0194  082E               	movf	??___flmul,w
  4132  0195  07B5               	addwf	___flmul@grs,f
  4133  0196  082F               	movf	??___flmul+1,w
  4134  0197  1103               	clrz
  4135  0198  1803               	skipnc
  4136  0199  3E01               	addlw	1
  4137  019A  1903               	skipnz
  4138  019B  299D               	goto	u3151
  4139  019C  07B6               	addwf	___flmul@grs+1,f
  4140  019D                     u3151:
  4141  019D  0830               	movf	??___flmul+2,w
  4142  019E  1103               	clrz
  4143  019F  1803               	skipnc
  4144  01A0  3E01               	addlw	1
  4145  01A1  1903               	skipnz
  4146  01A2  29A4               	goto	u3152
  4147  01A3  07B7               	addwf	___flmul@grs+2,f
  4148  01A4                     u3152:
  4149  01A4  0831               	movf	??___flmul+3,w
  4150  01A5  1103               	clrz
  4151  01A6  1803               	skipnc
  4152  01A7  3E01               	addlw	1
  4153  01A8  1903               	skipnz
  4154  01A9  29AB               	goto	u3153
  4155  01AA  07B8               	addwf	___flmul@grs+3,f
  4156  01AB                     u3153:
  4157  01AB                     l2368:
  4158  01AB  3008               	movlw	8
  4159  01AC  00AE               	movwf	??___flmul
  4160  01AD                     u3165:
  4161  01AD  1003               	clrc
  4162  01AE  0DB5               	rlf	___flmul@grs,f
  4163  01AF  0DB6               	rlf	___flmul@grs+1,f
  4164  01B0  0DB7               	rlf	___flmul@grs+2,f
  4165  01B1  0DB8               	rlf	___flmul@grs+3,f
  4166  01B2  0BAE               	decfsz	??___flmul,f
  4167  01B3  29AD               	goto	u3165
  4168  01B4  0826               	movf	___flmul@b,w
  4169  01B5  00AE               	movwf	??___flmul
  4170  01B6  082E               	movf	??___flmul,w
  4171  01B7  00F2               	movwf	__Umul8_16@multiplicand
  4172  01B8  082A               	movf	___flmul@a,w
  4173  01B9  120A  118A  27D5  120A  118A  	fcall	__Umul8_16
  4174  01BE  0873               	movf	?__Umul8_16+1,w
  4175  01BF  1283               	bcf	3,5	;RP0=0, select bank0
  4176  01C0  1303               	bcf	3,6	;RP1=0, select bank0
  4177  01C1  00BF               	movwf	___flmul@temp+1
  4178  01C2  0872               	movf	?__Umul8_16,w
  4179  01C3  00BE               	movwf	___flmul@temp
  4180  01C4                     l2370:
  4181  01C4  083E               	movf	___flmul@temp,w
  4182  01C5  00AE               	movwf	??___flmul
  4183  01C6  083F               	movf	___flmul@temp+1,w
  4184  01C7  00AF               	movwf	??___flmul+1
  4185  01C8  01B0               	clrf	??___flmul+2
  4186  01C9  01B1               	clrf	??___flmul+3
  4187  01CA  082E               	movf	??___flmul,w
  4188  01CB  07B5               	addwf	___flmul@grs,f
  4189  01CC  082F               	movf	??___flmul+1,w
  4190  01CD  1103               	clrz
  4191  01CE  1803               	skipnc
  4192  01CF  3E01               	addlw	1
  4193  01D0  1903               	skipnz
  4194  01D1  29D3               	goto	u3171
  4195  01D2  07B6               	addwf	___flmul@grs+1,f
  4196  01D3                     u3171:
  4197  01D3  0830               	movf	??___flmul+2,w
  4198  01D4  1103               	clrz
  4199  01D5  1803               	skipnc
  4200  01D6  3E01               	addlw	1
  4201  01D7  1903               	skipnz
  4202  01D8  29DA               	goto	u3172
  4203  01D9  07B7               	addwf	___flmul@grs+2,f
  4204  01DA                     u3172:
  4205  01DA  0831               	movf	??___flmul+3,w
  4206  01DB  1103               	clrz
  4207  01DC  1803               	skipnc
  4208  01DD  3E01               	addlw	1
  4209  01DE  1903               	skipnz
  4210  01DF  29E1               	goto	u3173
  4211  01E0  07B8               	addwf	___flmul@grs+3,f
  4212  01E1                     u3173:
  4213  01E1                     l2372:
  4214  01E1  0827               	movf	___flmul@b+1,w
  4215  01E2  00AE               	movwf	??___flmul
  4216  01E3  082E               	movf	??___flmul,w
  4217  01E4  00F2               	movwf	__Umul8_16@multiplicand
  4218  01E5  082C               	movf	___flmul@a+2,w
  4219  01E6  120A  118A  27D5  120A  118A  	fcall	__Umul8_16
  4220  01EB  0873               	movf	?__Umul8_16+1,w
  4221  01EC  1283               	bcf	3,5	;RP0=0, select bank0
  4222  01ED  1303               	bcf	3,6	;RP1=0, select bank0
  4223  01EE  00BF               	movwf	___flmul@temp+1
  4224  01EF  0872               	movf	?__Umul8_16,w
  4225  01F0  00BE               	movwf	___flmul@temp
  4226  01F1  083E               	movf	___flmul@temp,w
  4227  01F2  00AE               	movwf	??___flmul
  4228  01F3  083F               	movf	___flmul@temp+1,w
  4229  01F4  00AF               	movwf	??___flmul+1
  4230  01F5  01B0               	clrf	??___flmul+2
  4231  01F6  01B1               	clrf	??___flmul+3
  4232  01F7  082E               	movf	??___flmul,w
  4233  01F8  07BA               	addwf	___flmul@prod,f
  4234  01F9  082F               	movf	??___flmul+1,w
  4235  01FA  1103               	clrz
  4236  01FB  1803               	skipnc
  4237  01FC  3E01               	addlw	1
  4238  01FD  1903               	skipnz
  4239  01FE  2A00               	goto	u3181
  4240  01FF  07BB               	addwf	___flmul@prod+1,f
  4241  0200                     u3181:
  4242  0200  0830               	movf	??___flmul+2,w
  4243  0201  1103               	clrz
  4244  0202  1803               	skipnc
  4245  0203  3E01               	addlw	1
  4246  0204  1903               	skipnz
  4247  0205  2A07               	goto	u3182
  4248  0206  07BC               	addwf	___flmul@prod+2,f
  4249  0207                     u3182:
  4250  0207  0831               	movf	??___flmul+3,w
  4251  0208  1103               	clrz
  4252  0209  1803               	skipnc
  4253  020A  3E01               	addlw	1
  4254  020B  1903               	skipnz
  4255  020C  2A0E               	goto	u3183
  4256  020D  07BD               	addwf	___flmul@prod+3,f
  4257  020E                     u3183:
  4258  020E                     l2374:
  4259  020E  0828               	movf	___flmul@b+2,w
  4260  020F  00AE               	movwf	??___flmul
  4261  0210  082E               	movf	??___flmul,w
  4262  0211  00F2               	movwf	__Umul8_16@multiplicand
  4263  0212  082B               	movf	___flmul@a+1,w
  4264  0213  120A  118A  27D5  120A  118A  	fcall	__Umul8_16
  4265  0218  0873               	movf	?__Umul8_16+1,w
  4266  0219  1283               	bcf	3,5	;RP0=0, select bank0
  4267  021A  1303               	bcf	3,6	;RP1=0, select bank0
  4268  021B  00BF               	movwf	___flmul@temp+1
  4269  021C  0872               	movf	?__Umul8_16,w
  4270  021D  00BE               	movwf	___flmul@temp
  4271  021E                     l2376:
  4272  021E  083E               	movf	___flmul@temp,w
  4273  021F  00AE               	movwf	??___flmul
  4274  0220  083F               	movf	___flmul@temp+1,w
  4275  0221  00AF               	movwf	??___flmul+1
  4276  0222  01B0               	clrf	??___flmul+2
  4277  0223  01B1               	clrf	??___flmul+3
  4278  0224  082E               	movf	??___flmul,w
  4279  0225  07BA               	addwf	___flmul@prod,f
  4280  0226  082F               	movf	??___flmul+1,w
  4281  0227  1103               	clrz
  4282  0228  1803               	skipnc
  4283  0229  3E01               	addlw	1
  4284  022A  1903               	skipnz
  4285  022B  2A2D               	goto	u3191
  4286  022C  07BB               	addwf	___flmul@prod+1,f
  4287  022D                     u3191:
  4288  022D  0830               	movf	??___flmul+2,w
  4289  022E  1103               	clrz
  4290  022F  1803               	skipnc
  4291  0230  3E01               	addlw	1
  4292  0231  1903               	skipnz
  4293  0232  2A34               	goto	u3192
  4294  0233  07BC               	addwf	___flmul@prod+2,f
  4295  0234                     u3192:
  4296  0234  0831               	movf	??___flmul+3,w
  4297  0235  1103               	clrz
  4298  0236  1803               	skipnc
  4299  0237  3E01               	addlw	1
  4300  0238  1903               	skipnz
  4301  0239  2A3B               	goto	u3193
  4302  023A  07BD               	addwf	___flmul@prod+3,f
  4303  023B                     u3193:
  4304  023B  0828               	movf	___flmul@b+2,w
  4305  023C  00AE               	movwf	??___flmul
  4306  023D  082E               	movf	??___flmul,w
  4307  023E  00F2               	movwf	__Umul8_16@multiplicand
  4308  023F  082C               	movf	___flmul@a+2,w
  4309  0240  120A  118A  27D5  120A  118A  	fcall	__Umul8_16
  4310  0245  0873               	movf	?__Umul8_16+1,w
  4311  0246  1283               	bcf	3,5	;RP0=0, select bank0
  4312  0247  1303               	bcf	3,6	;RP1=0, select bank0
  4313  0248  00BF               	movwf	___flmul@temp+1
  4314  0249  0872               	movf	?__Umul8_16,w
  4315  024A  00BE               	movwf	___flmul@temp
  4316  024B                     l2378:
  4317  024B  083E               	movf	___flmul@temp,w
  4318  024C  00AE               	movwf	??___flmul
  4319  024D  083F               	movf	___flmul@temp+1,w
  4320  024E  00AF               	movwf	??___flmul+1
  4321  024F  01B0               	clrf	??___flmul+2
  4322  0250  01B1               	clrf	??___flmul+3
  4323  0251  3008               	movlw	8
  4324  0252                     u3205:
  4325  0252  1003               	clrc
  4326  0253  0DAE               	rlf	??___flmul,f
  4327  0254  0DAF               	rlf	??___flmul+1,f
  4328  0255  0DB0               	rlf	??___flmul+2,f
  4329  0256  0DB1               	rlf	??___flmul+3,f
  4330  0257                     u3200:
  4331  0257  3EFF               	addlw	-1
  4332  0258  1D03               	skipz
  4333  0259  2A52               	goto	u3205
  4334  025A  082E               	movf	??___flmul,w
  4335  025B  07BA               	addwf	___flmul@prod,f
  4336  025C  082F               	movf	??___flmul+1,w
  4337  025D  1103               	clrz
  4338  025E  1803               	skipnc
  4339  025F  3E01               	addlw	1
  4340  0260  1903               	skipnz
  4341  0261  2A63               	goto	u3211
  4342  0262  07BB               	addwf	___flmul@prod+1,f
  4343  0263                     u3211:
  4344  0263  0830               	movf	??___flmul+2,w
  4345  0264  1103               	clrz
  4346  0265  1803               	skipnc
  4347  0266  3E01               	addlw	1
  4348  0267  1903               	skipnz
  4349  0268  2A6A               	goto	u3212
  4350  0269  07BC               	addwf	___flmul@prod+2,f
  4351  026A                     u3212:
  4352  026A  0831               	movf	??___flmul+3,w
  4353  026B  1103               	clrz
  4354  026C  1803               	skipnc
  4355  026D  3E01               	addlw	1
  4356  026E  1903               	skipnz
  4357  026F  2A71               	goto	u3213
  4358  0270  07BD               	addwf	___flmul@prod+3,f
  4359  0271                     u3213:
  4360  0271                     l2380:
  4361  0271  0835               	movf	___flmul@grs,w
  4362  0272  00AE               	movwf	??___flmul
  4363  0273  0836               	movf	___flmul@grs+1,w
  4364  0274  00AF               	movwf	??___flmul+1
  4365  0275  0837               	movf	___flmul@grs+2,w
  4366  0276  00B0               	movwf	??___flmul+2
  4367  0277  0838               	movf	___flmul@grs+3,w
  4368  0278  00B1               	movwf	??___flmul+3
  4369  0279  3018               	movlw	24
  4370  027A                     u3225:
  4371  027A  1003               	clrc
  4372  027B  0CB1               	rrf	??___flmul+3,f
  4373  027C  0CB0               	rrf	??___flmul+2,f
  4374  027D  0CAF               	rrf	??___flmul+1,f
  4375  027E  0CAE               	rrf	??___flmul,f
  4376  027F                     u3220:
  4377  027F  3EFF               	addlw	-1
  4378  0280  1D03               	skipz
  4379  0281  2A7A               	goto	u3225
  4380  0282  082E               	movf	??___flmul,w
  4381  0283  07BA               	addwf	___flmul@prod,f
  4382  0284  082F               	movf	??___flmul+1,w
  4383  0285  1103               	clrz
  4384  0286  1803               	skipnc
  4385  0287  3E01               	addlw	1
  4386  0288  1903               	skipnz
  4387  0289  2A8B               	goto	u3231
  4388  028A  07BB               	addwf	___flmul@prod+1,f
  4389  028B                     u3231:
  4390  028B  0830               	movf	??___flmul+2,w
  4391  028C  1103               	clrz
  4392  028D  1803               	skipnc
  4393  028E  3E01               	addlw	1
  4394  028F  1903               	skipnz
  4395  0290  2A92               	goto	u3232
  4396  0291  07BC               	addwf	___flmul@prod+2,f
  4397  0292                     u3232:
  4398  0292  0831               	movf	??___flmul+3,w
  4399  0293  1103               	clrz
  4400  0294  1803               	skipnc
  4401  0295  3E01               	addlw	1
  4402  0296  1903               	skipnz
  4403  0297  2A99               	goto	u3233
  4404  0298  07BD               	addwf	___flmul@prod+3,f
  4405  0299                     u3233:
  4406  0299                     l2382:
  4407  0299  3008               	movlw	8
  4408  029A  00AE               	movwf	??___flmul
  4409  029B                     u3245:
  4410  029B  1003               	clrc
  4411  029C  0DB5               	rlf	___flmul@grs,f
  4412  029D  0DB6               	rlf	___flmul@grs+1,f
  4413  029E  0DB7               	rlf	___flmul@grs+2,f
  4414  029F  0DB8               	rlf	___flmul@grs+3,f
  4415  02A0  0BAE               	decfsz	??___flmul,f
  4416  02A1  2A9B               	goto	u3245
  4417  02A2                     l2384:
  4418  02A2  0839               	movf	___flmul@bexp,w
  4419  02A3  0734               	addwf	___flmul@aexp,w
  4420  02A4  00AE               	movwf	??___flmul
  4421  02A5  01AF               	clrf	??___flmul+1
  4422  02A6  0DAF               	rlf	??___flmul+1,f
  4423  02A7  082E               	movf	??___flmul,w
  4424  02A8  3E82               	addlw	130
  4425  02A9  00BE               	movwf	___flmul@temp
  4426  02AA  082F               	movf	??___flmul+1,w
  4427  02AB  1803               	skipnc
  4428  02AC  3E01               	addlw	1
  4429  02AD  3EFF               	addlw	255
  4430  02AE  00BF               	movwf	___flmul@temp+1
  4431  02AF  2ACD               	goto	l2396
  4432  02B0                     l2386:
  4433  02B0  3001               	movlw	1
  4434  02B1  00AE               	movwf	??___flmul
  4435  02B2                     u3255:
  4436  02B2  1003               	clrc
  4437  02B3  0DBA               	rlf	___flmul@prod,f
  4438  02B4  0DBB               	rlf	___flmul@prod+1,f
  4439  02B5  0DBC               	rlf	___flmul@prod+2,f
  4440  02B6  0DBD               	rlf	___flmul@prod+3,f
  4441  02B7  0BAE               	decfsz	??___flmul,f
  4442  02B8  2AB2               	goto	u3255
  4443  02B9                     l2388:
  4444  02B9  1FB8               	btfss	___flmul@grs+3,7
  4445  02BA  2ABC               	goto	u3261
  4446  02BB  2ABD               	goto	u3260
  4447  02BC                     u3261:
  4448  02BC  2ABE               	goto	l2392
  4449  02BD                     u3260:
  4450  02BD                     l2390:
  4451  02BD  143A               	bsf	___flmul@prod,0
  4452  02BE                     l2392:
  4453  02BE  3001               	movlw	1
  4454  02BF  00AE               	movwf	??___flmul
  4455  02C0                     u3275:
  4456  02C0  1003               	clrc
  4457  02C1  0DB5               	rlf	___flmul@grs,f
  4458  02C2  0DB6               	rlf	___flmul@grs+1,f
  4459  02C3  0DB7               	rlf	___flmul@grs+2,f
  4460  02C4  0DB8               	rlf	___flmul@grs+3,f
  4461  02C5  0BAE               	decfsz	??___flmul,f
  4462  02C6  2AC0               	goto	u3275
  4463  02C7                     l2394:
  4464  02C7  30FF               	movlw	255
  4465  02C8  07BE               	addwf	___flmul@temp,f
  4466  02C9  1803               	skipnc
  4467  02CA  0ABF               	incf	___flmul@temp+1,f
  4468  02CB  30FF               	movlw	255
  4469  02CC  07BF               	addwf	___flmul@temp+1,f
  4470  02CD                     l2396:
  4471  02CD  1FBC               	btfss	___flmul@prod+2,7
  4472  02CE  2AD0               	goto	u3281
  4473  02CF  2AD1               	goto	u3280
  4474  02D0                     u3281:
  4475  02D0  2AB0               	goto	l2386
  4476  02D1                     u3280:
  4477  02D1                     l2398:
  4478  02D1  01B4               	clrf	___flmul@aexp
  4479  02D2                     l2400:
  4480  02D2  1FB8               	btfss	___flmul@grs+3,7
  4481  02D3  2AD5               	goto	u3291
  4482  02D4  2AD6               	goto	u3290
  4483  02D5                     u3291:
  4484  02D5  2AF2               	goto	l2408
  4485  02D6                     u3290:
  4486  02D6                     l2402:
  4487  02D6  30FF               	movlw	255
  4488  02D7  0535               	andwf	___flmul@grs,w
  4489  02D8  00AE               	movwf	??___flmul
  4490  02D9  30FF               	movlw	255
  4491  02DA  0536               	andwf	___flmul@grs+1,w
  4492  02DB  00AF               	movwf	??___flmul+1
  4493  02DC  30FF               	movlw	255
  4494  02DD  0537               	andwf	___flmul@grs+2,w
  4495  02DE  00B0               	movwf	??___flmul+2
  4496  02DF  307F               	movlw	127
  4497  02E0  0538               	andwf	___flmul@grs+3,w
  4498  02E1  00B1               	movwf	??___flmul+3
  4499  02E2  0831               	movf	??___flmul+3,w
  4500  02E3  0430               	iorwf	??___flmul+2,w
  4501  02E4  042F               	iorwf	??___flmul+1,w
  4502  02E5  042E               	iorwf	??___flmul,w
  4503  02E6  1903               	skipnz
  4504  02E7  2AE9               	goto	u3301
  4505  02E8  2AEA               	goto	u3300
  4506  02E9                     u3301:
  4507  02E9  2AED               	goto	l651
  4508  02EA                     u3300:
  4509  02EA                     l2404:
  4510  02EA  01B4               	clrf	___flmul@aexp
  4511  02EB  0AB4               	incf	___flmul@aexp,f
  4512  02EC  2AF2               	goto	l2408
  4513  02ED                     l651:
  4514  02ED  1C3A               	btfss	___flmul@prod,0
  4515  02EE  2AF0               	goto	u3311
  4516  02EF  2AF1               	goto	u3310
  4517  02F0                     u3311:
  4518  02F0  2AF2               	goto	l2408
  4519  02F1                     u3310:
  4520  02F1  2AEA               	goto	l2404
  4521  02F2                     l2408:
  4522  02F2  0834               	movf	___flmul@aexp,w
  4523  02F3  1903               	btfsc	3,2
  4524  02F4  2AF6               	goto	u3321
  4525  02F5  2AF7               	goto	u3320
  4526  02F6                     u3321:
  4527  02F6  2B28               	goto	l2418
  4528  02F7                     u3320:
  4529  02F7                     l2410:
  4530  02F7  3001               	movlw	1
  4531  02F8  07BA               	addwf	___flmul@prod,f
  4532  02F9  3000               	movlw	0
  4533  02FA  1803               	skipnc
  4534  02FB  3001               	movlw	1
  4535  02FC  07BB               	addwf	___flmul@prod+1,f
  4536  02FD  3000               	movlw	0
  4537  02FE  1803               	skipnc
  4538  02FF  3001               	movlw	1
  4539  0300  07BC               	addwf	___flmul@prod+2,f
  4540  0301  3000               	movlw	0
  4541  0302  1803               	skipnc
  4542  0303  3001               	movlw	1
  4543  0304  07BD               	addwf	___flmul@prod+3,f
  4544  0305                     l2412:
  4545  0305  1C3D               	btfss	___flmul@prod+3,0
  4546  0306  2B08               	goto	u3331
  4547  0307  2B09               	goto	u3330
  4548  0308                     u3331:
  4549  0308  2B28               	goto	l2418
  4550  0309                     u3330:
  4551  0309                     l2414:
  4552  0309  083A               	movf	___flmul@prod,w
  4553  030A  00AE               	movwf	??___flmul
  4554  030B  083B               	movf	___flmul@prod+1,w
  4555  030C  00AF               	movwf	??___flmul+1
  4556  030D  083C               	movf	___flmul@prod+2,w
  4557  030E  00B0               	movwf	??___flmul+2
  4558  030F  083D               	movf	___flmul@prod+3,w
  4559  0310  00B1               	movwf	??___flmul+3
  4560  0311  3001               	movlw	1
  4561  0312  00B2               	movwf	??___flmul+4
  4562  0313                     u3345:
  4563  0313  0D31               	rlf	??___flmul+3,w
  4564  0314  0CB1               	rrf	??___flmul+3,f
  4565  0315  0CB0               	rrf	??___flmul+2,f
  4566  0316  0CAF               	rrf	??___flmul+1,f
  4567  0317  0CAE               	rrf	??___flmul,f
  4568  0318                     u3340:
  4569  0318  0BB2               	decfsz	??___flmul+4,f
  4570  0319  2B13               	goto	u3345
  4571  031A  0831               	movf	??___flmul+3,w
  4572  031B  00BD               	movwf	___flmul@prod+3
  4573  031C  0830               	movf	??___flmul+2,w
  4574  031D  00BC               	movwf	___flmul@prod+2
  4575  031E  082F               	movf	??___flmul+1,w
  4576  031F  00BB               	movwf	___flmul@prod+1
  4577  0320  082E               	movf	??___flmul,w
  4578  0321  00BA               	movwf	___flmul@prod
  4579  0322                     l2416:
  4580  0322  3001               	movlw	1
  4581  0323  07BE               	addwf	___flmul@temp,f
  4582  0324  1803               	skipnc
  4583  0325  0ABF               	incf	___flmul@temp+1,f
  4584  0326  3000               	movlw	0
  4585  0327  07BF               	addwf	___flmul@temp+1,f
  4586  0328                     l2418:
  4587  0328  083F               	movf	___flmul@temp+1,w
  4588  0329  3A80               	xorlw	128
  4589  032A  00FF               	movwf	btemp+1
  4590  032B  3080               	movlw	128
  4591  032C  027F               	subwf	btemp+1,w
  4592  032D  1D03               	skipz
  4593  032E  2B31               	goto	u3355
  4594  032F  30FF               	movlw	255
  4595  0330  023E               	subwf	___flmul@temp,w
  4596  0331                     u3355:
  4597  0331  1C03               	skipc
  4598  0332  2B34               	goto	u3351
  4599  0333  2B35               	goto	u3350
  4600  0334                     u3351:
  4601  0334  2B40               	goto	l2422
  4602  0335                     u3350:
  4603  0335                     l2420:
  4604  0335  307F               	movlw	127
  4605  0336  1283               	bcf	3,5	;RP0=0, select bank0
  4606  0337  1303               	bcf	3,6	;RP1=0, select bank0
  4607  0338  00BD               	movwf	___flmul@prod+3
  4608  0339  3080               	movlw	128
  4609  033A  00BC               	movwf	___flmul@prod+2
  4610  033B  3000               	movlw	0
  4611  033C  00BB               	movwf	___flmul@prod+1
  4612  033D  3000               	movlw	0
  4613  033E  00BA               	movwf	___flmul@prod
  4614  033F  2B75               	goto	l657
  4615  0340                     l2422:
  4616  0340  1283               	bcf	3,5	;RP0=0, select bank0
  4617  0341  1303               	bcf	3,6	;RP1=0, select bank0
  4618  0342  083F               	movf	___flmul@temp+1,w
  4619  0343  3A80               	xorlw	128
  4620  0344  00FF               	movwf	btemp+1
  4621  0345  3080               	movlw	128
  4622  0346  027F               	subwf	btemp+1,w
  4623  0347  1D03               	skipz
  4624  0348  2B4B               	goto	u3365
  4625  0349  3001               	movlw	1
  4626  034A  023E               	subwf	___flmul@temp,w
  4627  034B                     u3365:
  4628  034B  1803               	skipnc
  4629  034C  2B4E               	goto	u3361
  4630  034D  2B4F               	goto	u3360
  4631  034E                     u3361:
  4632  034E  2B5B               	goto	l2428
  4633  034F                     u3360:
  4634  034F                     l2424:
  4635  034F  3000               	movlw	0
  4636  0350  1283               	bcf	3,5	;RP0=0, select bank0
  4637  0351  1303               	bcf	3,6	;RP1=0, select bank0
  4638  0352  00BD               	movwf	___flmul@prod+3
  4639  0353  3000               	movlw	0
  4640  0354  00BC               	movwf	___flmul@prod+2
  4641  0355  3000               	movlw	0
  4642  0356  00BB               	movwf	___flmul@prod+1
  4643  0357  3000               	movlw	0
  4644  0358  00BA               	movwf	___flmul@prod
  4645  0359                     l2426:
  4646  0359  01B3               	clrf	___flmul@sign
  4647  035A  2B75               	goto	l657
  4648  035B                     l2428:
  4649  035B  1283               	bcf	3,5	;RP0=0, select bank0
  4650  035C  1303               	bcf	3,6	;RP1=0, select bank0
  4651  035D  083E               	movf	___flmul@temp,w
  4652  035E  00AE               	movwf	??___flmul
  4653  035F  082E               	movf	??___flmul,w
  4654  0360  00B9               	movwf	___flmul@bexp
  4655  0361  30FF               	movlw	255
  4656  0362  05BA               	andwf	___flmul@prod,f
  4657  0363  30FF               	movlw	255
  4658  0364  05BB               	andwf	___flmul@prod+1,f
  4659  0365  307F               	movlw	127
  4660  0366  05BC               	andwf	___flmul@prod+2,f
  4661  0367  3000               	movlw	0
  4662  0368  05BD               	andwf	___flmul@prod+3,f
  4663  0369                     l2430:
  4664  0369  1C39               	btfss	___flmul@bexp,0
  4665  036A  2B6C               	goto	u3371
  4666  036B  2B6D               	goto	u3370
  4667  036C                     u3371:
  4668  036C  2B6E               	goto	l2434
  4669  036D                     u3370:
  4670  036D                     l2432:
  4671  036D  17BC               	bsf	___flmul@prod+2,7
  4672  036E                     l2434:
  4673  036E  0839               	movf	___flmul@bexp,w
  4674  036F  00AE               	movwf	??___flmul
  4675  0370  1003               	clrc
  4676  0371  0C2E               	rrf	??___flmul,w
  4677  0372  00AF               	movwf	??___flmul+1
  4678  0373  082F               	movf	??___flmul+1,w
  4679  0374  00BD               	movwf	___flmul@prod+3
  4680  0375                     l657:
  4681  0375  0833               	movf	___flmul@sign,w
  4682  0376  00AE               	movwf	??___flmul
  4683  0377  082E               	movf	??___flmul,w
  4684  0378  04BD               	iorwf	___flmul@prod+3,f
  4685  0379                     l2436:
  4686  0379  083D               	movf	___flmul@prod+3,w
  4687  037A  00A9               	movwf	?___flmul+3
  4688  037B  083C               	movf	___flmul@prod+2,w
  4689  037C  00A8               	movwf	?___flmul+2
  4690  037D  083B               	movf	___flmul@prod+1,w
  4691  037E  00A7               	movwf	?___flmul+1
  4692  037F  083A               	movf	___flmul@prod,w
  4693  0380  00A6               	movwf	?___flmul
  4694  0381                     l645:
  4695  0381  0008               	return
  4696  0382                     __end_of___flmul:
  4697                           
  4698                           	psect	text13
  4699  07D5                     __ptext13:	
  4700 ;; *************** function __Umul8_16 *****************
  4701 ;; Defined at:
  4702 ;;		line 4 in file "C:\Program Files\Microchip\xc8\v2.31\pic\sources\c90\common\Umul8_16.c"
  4703 ;; Parameters:    Size  Location     Type
  4704 ;;  multiplier      1    wreg     unsigned char 
  4705 ;;  multiplicand    1    2[COMMON] unsigned char 
  4706 ;; Auto vars:     Size  Location     Type
  4707 ;;  multiplier      1    4[BANK0 ] unsigned char 
  4708 ;;  word_mpld       2    2[BANK0 ] unsigned int 
  4709 ;;  product         2    0[BANK0 ] unsigned int 
  4710 ;; Return value:  Size  Location     Type
  4711 ;;                  2    2[COMMON] unsigned int 
  4712 ;; Registers used:
  4713 ;;		wreg, status,2, status,0
  4714 ;; Tracked objects:
  4715 ;;		On entry : 0/0
  4716 ;;		On exit  : 0/0
  4717 ;;		Unchanged: 0/0
  4718 ;; Data sizes:     COMMON   BANK0   BANK1   BANK3   BANK2
  4719 ;;      Params:         2       0       0       0       0
  4720 ;;      Locals:         0       5       0       0       0
  4721 ;;      Temps:          2       0       0       0       0
  4722 ;;      Totals:         4       5       0       0       0
  4723 ;;Total ram usage:        9 bytes
  4724 ;; Hardware stack levels used:    1
  4725 ;; Hardware stack levels required when called:    1
  4726 ;; This function calls:
  4727 ;;		Nothing
  4728 ;; This function is called by:
  4729 ;;		___flmul
  4730 ;; This function uses a non-reentrant model
  4731 ;;
  4732                           
  4733                           
  4734                           ;psect for function __Umul8_16
  4735  07D5                     __Umul8_16:
  4736                           
  4737                           ;incstack = 0
  4738                           ; Regs used in __Umul8_16: [wreg+status,2+status,0]
  4739                           ;__Umul8_16@multiplier stored from wreg
  4740  07D5  1283               	bcf	3,5	;RP0=0, select bank0
  4741  07D6  1303               	bcf	3,6	;RP1=0, select bank0
  4742  07D7  00A4               	movwf	__Umul8_16@multiplier
  4743  07D8                     l2244:
  4744  07D8  01A0               	clrf	__Umul8_16@product
  4745  07D9  01A1               	clrf	__Umul8_16@product+1
  4746  07DA                     l2246:
  4747  07DA  0872               	movf	__Umul8_16@multiplicand,w
  4748  07DB  00F4               	movwf	??__Umul8_16
  4749  07DC  01F5               	clrf	??__Umul8_16+1
  4750  07DD  0874               	movf	??__Umul8_16,w
  4751  07DE  00A2               	movwf	__Umul8_16@word_mpld
  4752  07DF  0875               	movf	??__Umul8_16+1,w
  4753  07E0  00A3               	movwf	__Umul8_16@word_mpld+1
  4754  07E1                     l2248:
  4755  07E1  1C24               	btfss	__Umul8_16@multiplier,0
  4756  07E2  2FE4               	goto	u2941
  4757  07E3  2FE5               	goto	u2940
  4758  07E4                     u2941:
  4759  07E4  2FEB               	goto	l664
  4760  07E5                     u2940:
  4761  07E5                     l2250:
  4762  07E5  0822               	movf	__Umul8_16@word_mpld,w
  4763  07E6  07A0               	addwf	__Umul8_16@product,f
  4764  07E7  1803               	skipnc
  4765  07E8  0AA1               	incf	__Umul8_16@product+1,f
  4766  07E9  0823               	movf	__Umul8_16@word_mpld+1,w
  4767  07EA  07A1               	addwf	__Umul8_16@product+1,f
  4768  07EB                     l664:
  4769  07EB  3001               	movlw	1
  4770  07EC                     u2955:
  4771  07EC  1003               	clrc
  4772  07ED  0DA2               	rlf	__Umul8_16@word_mpld,f
  4773  07EE  0DA3               	rlf	__Umul8_16@word_mpld+1,f
  4774  07EF  3EFF               	addlw	-1
  4775  07F0  1D03               	skipz
  4776  07F1  2FEC               	goto	u2955
  4777  07F2  1003               	clrc
  4778  07F3  0CA4               	rrf	__Umul8_16@multiplier,f
  4779  07F4                     l2252:
  4780  07F4  0824               	movf	__Umul8_16@multiplier,w
  4781  07F5  1D03               	btfss	3,2
  4782  07F6  2FF8               	goto	u2961
  4783  07F7  2FF9               	goto	u2960
  4784  07F8                     u2961:
  4785  07F8  2FE1               	goto	l2248
  4786  07F9                     u2960:
  4787  07F9                     l2254:
  4788  07F9  0821               	movf	__Umul8_16@product+1,w
  4789  07FA  00F3               	movwf	?__Umul8_16+1
  4790  07FB  0820               	movf	__Umul8_16@product,w
  4791  07FC  00F2               	movwf	?__Umul8_16
  4792  07FD                     l666:
  4793  07FD  0008               	return
  4794  07FE                     __end_of__Umul8_16:
  4795                           
  4796                           	psect	text14
  4797  0C37                     __ptext14:	
  4798 ;; *************** function _cursorLCD *****************
  4799 ;; Defined at:
  4800 ;;		line 50 in file "LCDD2.c"
  4801 ;; Parameters:    Size  Location     Type
  4802 ;;  fila            1    wreg     unsigned char 
  4803 ;;  columna         1    5[COMMON] unsigned char 
  4804 ;; Auto vars:     Size  Location     Type
  4805 ;;  fila            1    7[COMMON] unsigned char 
  4806 ;;  temp            1    8[COMMON] unsigned char 
  4807 ;; Return value:  Size  Location     Type
  4808 ;;                  1    wreg      void 
  4809 ;; Registers used:
  4810 ;;		wreg, status,2, status,0, pclath, cstack
  4811 ;; Tracked objects:
  4812 ;;		On entry : 0/0
  4813 ;;		On exit  : 0/0
  4814 ;;		Unchanged: 0/0
  4815 ;; Data sizes:     COMMON   BANK0   BANK1   BANK3   BANK2
  4816 ;;      Params:         1       0       0       0       0
  4817 ;;      Locals:         2       0       0       0       0
  4818 ;;      Temps:          1       0       0       0       0
  4819 ;;      Totals:         4       0       0       0       0
  4820 ;;Total ram usage:        4 bytes
  4821 ;; Hardware stack levels used:    1
  4822 ;; Hardware stack levels required when called:    2
  4823 ;; This function calls:
  4824 ;;		_comandoLCD
  4825 ;; This function is called by:
  4826 ;;		_main
  4827 ;; This function uses a non-reentrant model
  4828 ;;
  4829                           
  4830                           
  4831                           ;psect for function _cursorLCD
  4832  0C37                     _cursorLCD:
  4833                           
  4834                           ;incstack = 0
  4835                           ; Regs used in _cursorLCD: [wreg+status,2+status,0+pclath+cstack]
  4836                           ;cursorLCD@fila stored from wreg
  4837  0C37  00F7               	movwf	cursorLCD@fila
  4838  0C38                     l2128:
  4839                           
  4840                           ;LCDD2.c: 51:     uint8_t temp;;LCDD2.c: 52:     if(fila == 1){
  4841  0C38  0377               	decf	cursorLCD@fila,w
  4842  0C39  1D03               	btfss	3,2
  4843  0C3A  2C3C               	goto	u2741
  4844  0C3B  2C3D               	goto	u2740
  4845  0C3C                     u2741:
  4846  0C3C  2C48               	goto	l2134
  4847  0C3D                     u2740:
  4848  0C3D                     l2130:
  4849                           
  4850                           ;LCDD2.c: 53:         temp = 0X80 + columna - 1;
  4851  0C3D  0875               	movf	cursorLCD@columna,w
  4852  0C3E  3E7F               	addlw	127
  4853  0C3F  00F6               	movwf	??_cursorLCD
  4854  0C40  0876               	movf	??_cursorLCD,w
  4855  0C41  00F8               	movwf	cursorLCD@temp
  4856  0C42                     l2132:
  4857                           
  4858                           ;LCDD2.c: 54:         comandoLCD(temp);
  4859  0C42  0878               	movf	cursorLCD@temp,w
  4860  0C43  120A  158A  23CF  120A  158A  	fcall	_comandoLCD
  4861  0C48                     l2134:
  4862                           
  4863                           ;LCDD2.c: 57:     if(fila == 2){
  4864  0C48  3002               	movlw	2
  4865  0C49  0677               	xorwf	cursorLCD@fila,w
  4866  0C4A  1D03               	btfss	3,2
  4867  0C4B  2C4D               	goto	u2751
  4868  0C4C  2C4E               	goto	u2750
  4869  0C4D                     u2751:
  4870  0C4D  2C59               	goto	l158
  4871  0C4E                     u2750:
  4872  0C4E                     l2136:
  4873                           
  4874                           ;LCDD2.c: 58:         temp = 0XC0 + columna -1;
  4875  0C4E  0875               	movf	cursorLCD@columna,w
  4876  0C4F  3EBF               	addlw	191
  4877  0C50  00F6               	movwf	??_cursorLCD
  4878  0C51  0876               	movf	??_cursorLCD,w
  4879  0C52  00F8               	movwf	cursorLCD@temp
  4880  0C53                     l2138:
  4881                           
  4882                           ;LCDD2.c: 59:         comandoLCD(temp);
  4883  0C53  0878               	movf	cursorLCD@temp,w
  4884  0C54  120A  158A  23CF  120A  158A  	fcall	_comandoLCD
  4885  0C59                     l158:
  4886  0C59  0008               	return
  4887  0C5A                     __end_of_cursorLCD:
  4888                           
  4889                           	psect	text15
  4890  0BCF                     __ptext15:	
  4891 ;; *************** function _comandoLCD *****************
  4892 ;; Defined at:
  4893 ;;		line 63 in file "LCDD2.c"
  4894 ;; Parameters:    Size  Location     Type
  4895 ;;  cmd             1    wreg     unsigned char 
  4896 ;; Auto vars:     Size  Location     Type
  4897 ;;  cmd             1    4[COMMON] unsigned char 
  4898 ;; Return value:  Size  Location     Type
  4899 ;;                  1    wreg      void 
  4900 ;; Registers used:
  4901 ;;		wreg
  4902 ;; Tracked objects:
  4903 ;;		On entry : 0/0
  4904 ;;		On exit  : 0/0
  4905 ;;		Unchanged: 0/0
  4906 ;; Data sizes:     COMMON   BANK0   BANK1   BANK3   BANK2
  4907 ;;      Params:         0       0       0       0       0
  4908 ;;      Locals:         1       0       0       0       0
  4909 ;;      Temps:          2       0       0       0       0
  4910 ;;      Totals:         3       0       0       0       0
  4911 ;;Total ram usage:        3 bytes
  4912 ;; Hardware stack levels used:    1
  4913 ;; Hardware stack levels required when called:    1
  4914 ;; This function calls:
  4915 ;;		Nothing
  4916 ;; This function is called by:
  4917 ;;		_initLCD
  4918 ;;		_cursorLCD
  4919 ;;		_ClearLCD
  4920 ;; This function uses a non-reentrant model
  4921 ;;
  4922                           
  4923                           
  4924                           ;psect for function _comandoLCD
  4925  0BCF                     _comandoLCD:
  4926                           
  4927                           ;incstack = 0
  4928                           ; Regs used in _comandoLCD: [wreg]
  4929                           ;comandoLCD@cmd stored from wreg
  4930  0BCF  00F4               	movwf	comandoLCD@cmd
  4931  0BD0                     l1818:
  4932                           
  4933                           ;LCDD2.c: 64:     RE0 = 0;
  4934  0BD0  1283               	bcf	3,5	;RP0=0, select bank0
  4935  0BD1  1303               	bcf	3,6	;RP1=0, select bank0
  4936  0BD2  1009               	bcf	9,0	;volatile
  4937  0BD3                     l1820:
  4938                           
  4939                           ;LCDD2.c: 65:     PORTD = cmd;
  4940  0BD3  0874               	movf	comandoLCD@cmd,w
  4941  0BD4  0088               	movwf	8	;volatile
  4942  0BD5                     l1822:
  4943                           
  4944                           ;LCDD2.c: 66:     RE1 = 1;
  4945  0BD5  1489               	bsf	9,1	;volatile
  4946                           
  4947                           ;LCDD2.c: 67:     _delay((unsigned long)((4)*(8000000/4000.0)));
  4948  0BD6  300B               	movlw	11
  4949  0BD7  00F3               	movwf	??_comandoLCD+1
  4950  0BD8  3062               	movlw	98
  4951  0BD9  00F2               	movwf	??_comandoLCD
  4952  0BDA                     u3437:
  4953  0BDA  0BF2               	decfsz	??_comandoLCD,f
  4954  0BDB  2BDA               	goto	u3437
  4955  0BDC  0BF3               	decfsz	??_comandoLCD+1,f
  4956  0BDD  2BDA               	goto	u3437
  4957  0BDE  0000               	nop
  4958  0BDF                     l1824:
  4959                           
  4960                           ;LCDD2.c: 68:     RE1 = 0;
  4961  0BDF  1283               	bcf	3,5	;RP0=0, select bank0
  4962  0BE0  1303               	bcf	3,6	;RP1=0, select bank0
  4963  0BE1  1089               	bcf	9,1	;volatile
  4964  0BE2                     l161:
  4965  0BE2  0008               	return
  4966  0BE3                     __end_of_comandoLCD:
  4967                           
  4968                           	psect	text16
  4969  0C7E                     __ptext16:	
  4970 ;; *************** function _config *****************
  4971 ;; Defined at:
  4972 ;;		line 99 in file "main.c"
  4973 ;; Parameters:    Size  Location     Type
  4974 ;;		None
  4975 ;; Auto vars:     Size  Location     Type
  4976 ;;		None
  4977 ;; Return value:  Size  Location     Type
  4978 ;;                  1    wreg      void 
  4979 ;; Registers used:
  4980 ;;		wreg, status,2, status,0, pclath, cstack
  4981 ;; Tracked objects:
  4982 ;;		On entry : 0/0
  4983 ;;		On exit  : 0/0
  4984 ;;		Unchanged: 0/0
  4985 ;; Data sizes:     COMMON   BANK0   BANK1   BANK3   BANK2
  4986 ;;      Params:         0       0       0       0       0
  4987 ;;      Locals:         0       0       0       0       0
  4988 ;;      Temps:          0       0       0       0       0
  4989 ;;      Totals:         0       0       0       0       0
  4990 ;;Total ram usage:        0 bytes
  4991 ;; Hardware stack levels used:    1
  4992 ;; Hardware stack levels required when called:    3
  4993 ;; This function calls:
  4994 ;;		_MasterInit_I2C
  4995 ;; This function is called by:
  4996 ;;		_main
  4997 ;; This function uses a non-reentrant model
  4998 ;;
  4999                           
  5000                           
  5001                           ;psect for function _config
  5002  0C7E                     _config:
  5003  0C7E                     l2440:	
  5004                           ;incstack = 0
  5005                           ; Regs used in _config: [wreg+status,2+status,0+pclath+cstack]
  5006                           
  5007                           
  5008                           ;main.c: 100:     ANSEL = 0X00;
  5009  0C7E  1683               	bsf	3,5	;RP0=1, select bank3
  5010  0C7F  1703               	bsf	3,6	;RP1=1, select bank3
  5011  0C80  0188               	clrf	8	;volatile
  5012                           
  5013                           ;main.c: 101:     ANSELH = 0X00;
  5014  0C81  0189               	clrf	9	;volatile
  5015                           
  5016                           ;main.c: 102:     TRISA = 0X00;
  5017  0C82  1683               	bsf	3,5	;RP0=1, select bank1
  5018  0C83  1303               	bcf	3,6	;RP1=0, select bank1
  5019  0C84  0185               	clrf	5	;volatile
  5020                           
  5021                           ;main.c: 103:     TRISB = 0X00;
  5022  0C85  0186               	clrf	6	;volatile
  5023                           
  5024                           ;main.c: 104:     TRISD = 0X00;
  5025  0C86  0188               	clrf	8	;volatile
  5026                           
  5027                           ;main.c: 105:     TRISE = 0X00;
  5028  0C87  0189               	clrf	9	;volatile
  5029                           
  5030                           ;main.c: 106:     PORTA = 0X00;
  5031  0C88  1283               	bcf	3,5	;RP0=0, select bank0
  5032  0C89  1303               	bcf	3,6	;RP1=0, select bank0
  5033  0C8A  0185               	clrf	5	;volatile
  5034                           
  5035                           ;main.c: 107:     PORTB = 0X00;
  5036  0C8B  0186               	clrf	6	;volatile
  5037                           
  5038                           ;main.c: 108:     PORTD = 0X00;
  5039  0C8C  0188               	clrf	8	;volatile
  5040                           
  5041                           ;main.c: 109:     PORTE = 0X00;
  5042  0C8D  0189               	clrf	9	;volatile
  5043  0C8E                     l2442:
  5044                           
  5045                           ;main.c: 112:     OSCCONbits.IRCF = 0b111;
  5046  0C8E  3070               	movlw	112
  5047  0C8F  1683               	bsf	3,5	;RP0=1, select bank1
  5048  0C90  1303               	bcf	3,6	;RP1=0, select bank1
  5049  0C91  048F               	iorwf	15,f	;volatile
  5050  0C92                     l2444:
  5051                           
  5052                           ;main.c: 113:     OSCCONbits.SCS = 0b1;
  5053  0C92  140F               	bsf	15,0	;volatile
  5054  0C93                     l2446:
  5055                           
  5056                           ;main.c: 115:     MasterInit_I2C(100000);
  5057  0C93  3000               	movlw	0
  5058  0C94  1283               	bcf	3,5	;RP0=0, select bank0
  5059  0C95  1303               	bcf	3,6	;RP1=0, select bank0
  5060  0C96  00A9               	movwf	MasterInit_I2C@frec+3
  5061  0C97  3001               	movlw	1
  5062  0C98  00A8               	movwf	MasterInit_I2C@frec+2
  5063  0C99  3086               	movlw	134
  5064  0C9A  00A7               	movwf	MasterInit_I2C@frec+1
  5065  0C9B  30A0               	movlw	160
  5066  0C9C  00A6               	movwf	MasterInit_I2C@frec
  5067  0C9D  120A  158A  24CF  120A  158A  	fcall	_MasterInit_I2C
  5068  0CA2                     l78:
  5069  0CA2  0008               	return
  5070  0CA3                     __end_of_config:
  5071                           
  5072                           	psect	text17
  5073  0CCF                     __ptext17:	
  5074 ;; *************** function _MasterInit_I2C *****************
  5075 ;; Defined at:
  5076 ;;		line 13 in file "I2C.c"
  5077 ;; Parameters:    Size  Location     Type
  5078 ;;  frec            4    6[BANK0 ] unsigned long 
  5079 ;; Auto vars:     Size  Location     Type
  5080 ;;		None
  5081 ;; Return value:  Size  Location     Type
  5082 ;;                  1    wreg      void 
  5083 ;; Registers used:
  5084 ;;		wreg, status,2, status,0, pclath, cstack
  5085 ;; Tracked objects:
  5086 ;;		On entry : 0/0
  5087 ;;		On exit  : 0/0
  5088 ;;		Unchanged: 0/0
  5089 ;; Data sizes:     COMMON   BANK0   BANK1   BANK3   BANK2
  5090 ;;      Params:         0       4       0       0       0
  5091 ;;      Locals:         0       0       0       0       0
  5092 ;;      Temps:          0       4       0       0       0
  5093 ;;      Totals:         0       8       0       0       0
  5094 ;;Total ram usage:        8 bytes
  5095 ;; Hardware stack levels used:    1
  5096 ;; Hardware stack levels required when called:    2
  5097 ;; This function calls:
  5098 ;;		___lldiv
  5099 ;; This function is called by:
  5100 ;;		_config
  5101 ;; This function uses a non-reentrant model
  5102 ;;
  5103                           
  5104                           
  5105                           ;psect for function _MasterInit_I2C
  5106  0CCF                     _MasterInit_I2C:
  5107  0CCF                     l2258:	
  5108                           ;incstack = 0
  5109                           ; Regs used in _MasterInit_I2C: [wreg+status,2+status,0+pclath+cstack]
  5110                           
  5111                           
  5112                           ;I2C.c: 14:     SSPCON = 0X28;
  5113  0CCF  3028               	movlw	40
  5114  0CD0  1283               	bcf	3,5	;RP0=0, select bank0
  5115  0CD1  1303               	bcf	3,6	;RP1=0, select bank0
  5116  0CD2  0094               	movwf	20	;volatile
  5117  0CD3                     l2260:
  5118                           
  5119                           ;I2C.c: 15:     SSPCON2 = 0X00;
  5120  0CD3  1683               	bsf	3,5	;RP0=1, select bank1
  5121  0CD4  1303               	bcf	3,6	;RP1=0, select bank1
  5122  0CD5  0191               	clrf	17	;volatile
  5123  0CD6                     l2262:
  5124                           
  5125                           ;I2C.c: 16:     SSPSTAT = 0X80;
  5126  0CD6  3080               	movlw	128
  5127  0CD7  0094               	movwf	20	;volatile
  5128  0CD8                     l2264:
  5129                           
  5130                           ;I2C.c: 17:     SSPADD = (8000000/(4*frec))-1;
  5131  0CD8  1283               	bcf	3,5	;RP0=0, select bank0
  5132  0CD9  1303               	bcf	3,6	;RP1=0, select bank0
  5133  0CDA  0826               	movf	MasterInit_I2C@frec,w
  5134  0CDB  00AA               	movwf	??_MasterInit_I2C
  5135  0CDC  0827               	movf	MasterInit_I2C@frec+1,w
  5136  0CDD  00AB               	movwf	??_MasterInit_I2C+1
  5137  0CDE  0828               	movf	MasterInit_I2C@frec+2,w
  5138  0CDF  00AC               	movwf	??_MasterInit_I2C+2
  5139  0CE0  0829               	movf	MasterInit_I2C@frec+3,w
  5140  0CE1  00AD               	movwf	??_MasterInit_I2C+3
  5141  0CE2  3002               	movlw	2
  5142  0CE3                     u2975:
  5143  0CE3  1003               	clrc
  5144  0CE4  0DAA               	rlf	??_MasterInit_I2C,f
  5145  0CE5  0DAB               	rlf	??_MasterInit_I2C+1,f
  5146  0CE6  0DAC               	rlf	??_MasterInit_I2C+2,f
  5147  0CE7  0DAD               	rlf	??_MasterInit_I2C+3,f
  5148  0CE8                     u2970:
  5149  0CE8  3EFF               	addlw	-1
  5150  0CE9  1D03               	skipz
  5151  0CEA  2CE3               	goto	u2975
  5152  0CEB  082D               	movf	??_MasterInit_I2C+3,w
  5153  0CEC  00F5               	movwf	___lldiv@divisor+3
  5154  0CED  082C               	movf	??_MasterInit_I2C+2,w
  5155  0CEE  00F4               	movwf	___lldiv@divisor+2
  5156  0CEF  082B               	movf	??_MasterInit_I2C+1,w
  5157  0CF0  00F3               	movwf	___lldiv@divisor+1
  5158  0CF1  082A               	movf	??_MasterInit_I2C,w
  5159  0CF2  00F2               	movwf	___lldiv@divisor
  5160  0CF3  3000               	movlw	0
  5161  0CF4  00F9               	movwf	___lldiv@dividend+3
  5162  0CF5  307A               	movlw	122
  5163  0CF6  00F8               	movwf	___lldiv@dividend+2
  5164  0CF7  3012               	movlw	18
  5165  0CF8  00F7               	movwf	___lldiv@dividend+1
  5166  0CF9  3000               	movlw	0
  5167  0CFA  00F6               	movwf	___lldiv@dividend
  5168  0CFB  120A  158A  259A  120A  158A  	fcall	___lldiv
  5169  0D00  0872               	movf	?___lldiv,w
  5170  0D01  3EFF               	addlw	255
  5171  0D02  1683               	bsf	3,5	;RP0=1, select bank1
  5172  0D03  1303               	bcf	3,6	;RP1=0, select bank1
  5173  0D04  0093               	movwf	19	;volatile
  5174  0D05                     l2266:
  5175                           
  5176                           ;I2C.c: 19:     TRISCbits.TRISC3 = 1;
  5177  0D05  1587               	bsf	7,3	;volatile
  5178  0D06                     l2268:
  5179                           
  5180                           ;I2C.c: 20:     TRISCbits.TRISC4 = 1;
  5181  0D06  1607               	bsf	7,4	;volatile
  5182  0D07                     l116:
  5183  0D07  0008               	return
  5184  0D08                     __end_of_MasterInit_I2C:
  5185                           
  5186                           	psect	text18
  5187  0D9A                     __ptext18:	
  5188 ;; *************** function ___lldiv *****************
  5189 ;; Defined at:
  5190 ;;		line 5 in file "C:\Program Files\Microchip\xc8\v2.31\pic\sources\c90\common\__lldiv.c"
  5191 ;; Parameters:    Size  Location     Type
  5192 ;;  divisor         4    2[COMMON] unsigned long 
  5193 ;;  dividend        4    6[COMMON] unsigned long 
  5194 ;; Auto vars:     Size  Location     Type
  5195 ;;  quotient        4    1[BANK0 ] unsigned long 
  5196 ;;  counter         1    5[BANK0 ] unsigned char 
  5197 ;; Return value:  Size  Location     Type
  5198 ;;                  4    2[COMMON] unsigned long 
  5199 ;; Registers used:
  5200 ;;		wreg, status,2, status,0
  5201 ;; Tracked objects:
  5202 ;;		On entry : 0/0
  5203 ;;		On exit  : 0/0
  5204 ;;		Unchanged: 0/0
  5205 ;; Data sizes:     COMMON   BANK0   BANK1   BANK3   BANK2
  5206 ;;      Params:         8       0       0       0       0
  5207 ;;      Locals:         0       5       0       0       0
  5208 ;;      Temps:          0       1       0       0       0
  5209 ;;      Totals:         8       6       0       0       0
  5210 ;;Total ram usage:       14 bytes
  5211 ;; Hardware stack levels used:    1
  5212 ;; Hardware stack levels required when called:    1
  5213 ;; This function calls:
  5214 ;;		Nothing
  5215 ;; This function is called by:
  5216 ;;		_MasterInit_I2C
  5217 ;; This function uses a non-reentrant model
  5218 ;;
  5219                           
  5220                           
  5221                           ;psect for function ___lldiv
  5222  0D9A                     ___lldiv:
  5223  0D9A                     l2176:	
  5224                           ;incstack = 0
  5225                           ; Regs used in ___lldiv: [wreg+status,2+status,0]
  5226                           
  5227  0D9A  3000               	movlw	0
  5228  0D9B  1283               	bcf	3,5	;RP0=0, select bank0
  5229  0D9C  1303               	bcf	3,6	;RP1=0, select bank0
  5230  0D9D  00A4               	movwf	___lldiv@quotient+3
  5231  0D9E  3000               	movlw	0
  5232  0D9F  00A3               	movwf	___lldiv@quotient+2
  5233  0DA0  3000               	movlw	0
  5234  0DA1  00A2               	movwf	___lldiv@quotient+1
  5235  0DA2  3000               	movlw	0
  5236  0DA3  00A1               	movwf	___lldiv@quotient
  5237  0DA4  0875               	movf	___lldiv@divisor+3,w
  5238  0DA5  0474               	iorwf	___lldiv@divisor+2,w
  5239  0DA6  0473               	iorwf	___lldiv@divisor+1,w
  5240  0DA7  0472               	iorwf	___lldiv@divisor,w
  5241  0DA8  1903               	skipnz
  5242  0DA9  2DAB               	goto	u2771
  5243  0DAA  2DAC               	goto	u2770
  5244  0DAB                     u2771:
  5245  0DAB  2DF9               	goto	l2196
  5246  0DAC                     u2770:
  5247  0DAC                     l2178:
  5248  0DAC  01A5               	clrf	___lldiv@counter
  5249  0DAD  0AA5               	incf	___lldiv@counter,f
  5250  0DAE  2DBC               	goto	l2182
  5251  0DAF                     l2180:
  5252  0DAF  3001               	movlw	1
  5253  0DB0  00A0               	movwf	??___lldiv
  5254  0DB1                     u2785:
  5255  0DB1  1003               	clrc
  5256  0DB2  0DF2               	rlf	___lldiv@divisor,f
  5257  0DB3  0DF3               	rlf	___lldiv@divisor+1,f
  5258  0DB4  0DF4               	rlf	___lldiv@divisor+2,f
  5259  0DB5  0DF5               	rlf	___lldiv@divisor+3,f
  5260  0DB6  0BA0               	decfsz	??___lldiv,f
  5261  0DB7  2DB1               	goto	u2785
  5262  0DB8  3001               	movlw	1
  5263  0DB9  00A0               	movwf	??___lldiv
  5264  0DBA  0820               	movf	??___lldiv,w
  5265  0DBB  07A5               	addwf	___lldiv@counter,f
  5266  0DBC                     l2182:
  5267  0DBC  1FF5               	btfss	___lldiv@divisor+3,7
  5268  0DBD  2DBF               	goto	u2791
  5269  0DBE  2DC0               	goto	u2790
  5270  0DBF                     u2791:
  5271  0DBF  2DAF               	goto	l2180
  5272  0DC0                     u2790:
  5273  0DC0                     l2184:
  5274  0DC0  3001               	movlw	1
  5275  0DC1  00A0               	movwf	??___lldiv
  5276  0DC2                     u2805:
  5277  0DC2  1003               	clrc
  5278  0DC3  0DA1               	rlf	___lldiv@quotient,f
  5279  0DC4  0DA2               	rlf	___lldiv@quotient+1,f
  5280  0DC5  0DA3               	rlf	___lldiv@quotient+2,f
  5281  0DC6  0DA4               	rlf	___lldiv@quotient+3,f
  5282  0DC7  0BA0               	decfsz	??___lldiv,f
  5283  0DC8  2DC2               	goto	u2805
  5284  0DC9                     l2186:
  5285  0DC9  0875               	movf	___lldiv@divisor+3,w
  5286  0DCA  0279               	subwf	___lldiv@dividend+3,w
  5287  0DCB  1D03               	skipz
  5288  0DCC  2DD7               	goto	u2815
  5289  0DCD  0874               	movf	___lldiv@divisor+2,w
  5290  0DCE  0278               	subwf	___lldiv@dividend+2,w
  5291  0DCF  1D03               	skipz
  5292  0DD0  2DD7               	goto	u2815
  5293  0DD1  0873               	movf	___lldiv@divisor+1,w
  5294  0DD2  0277               	subwf	___lldiv@dividend+1,w
  5295  0DD3  1D03               	skipz
  5296  0DD4  2DD7               	goto	u2815
  5297  0DD5  0872               	movf	___lldiv@divisor,w
  5298  0DD6  0276               	subwf	___lldiv@dividend,w
  5299  0DD7                     u2815:
  5300  0DD7  1C03               	skipc
  5301  0DD8  2DDA               	goto	u2811
  5302  0DD9  2DDB               	goto	u2810
  5303  0DDA                     u2811:
  5304  0DDA  2DEA               	goto	l2192
  5305  0DDB                     u2810:
  5306  0DDB                     l2188:
  5307  0DDB  0872               	movf	___lldiv@divisor,w
  5308  0DDC  02F6               	subwf	___lldiv@dividend,f
  5309  0DDD  0873               	movf	___lldiv@divisor+1,w
  5310  0DDE  1C03               	skipc
  5311  0DDF  0F73               	incfsz	___lldiv@divisor+1,w
  5312  0DE0  02F7               	subwf	___lldiv@dividend+1,f
  5313  0DE1  0874               	movf	___lldiv@divisor+2,w
  5314  0DE2  1C03               	skipc
  5315  0DE3  0F74               	incfsz	___lldiv@divisor+2,w
  5316  0DE4  02F8               	subwf	___lldiv@dividend+2,f
  5317  0DE5  0875               	movf	___lldiv@divisor+3,w
  5318  0DE6  1C03               	skipc
  5319  0DE7  0F75               	incfsz	___lldiv@divisor+3,w
  5320  0DE8  02F9               	subwf	___lldiv@dividend+3,f
  5321  0DE9                     l2190:
  5322  0DE9  1421               	bsf	___lldiv@quotient,0
  5323  0DEA                     l2192:
  5324  0DEA  3001               	movlw	1
  5325  0DEB                     u2825:
  5326  0DEB  1003               	clrc
  5327  0DEC  0CF5               	rrf	___lldiv@divisor+3,f
  5328  0DED  0CF4               	rrf	___lldiv@divisor+2,f
  5329  0DEE  0CF3               	rrf	___lldiv@divisor+1,f
  5330  0DEF  0CF2               	rrf	___lldiv@divisor,f
  5331  0DF0  3EFF               	addlw	-1
  5332  0DF1  1D03               	skipz
  5333  0DF2  2DEB               	goto	u2825
  5334  0DF3                     l2194:
  5335  0DF3  3001               	movlw	1
  5336  0DF4  02A5               	subwf	___lldiv@counter,f
  5337  0DF5  1D03               	btfss	3,2
  5338  0DF6  2DF8               	goto	u2831
  5339  0DF7  2DF9               	goto	u2830
  5340  0DF8                     u2831:
  5341  0DF8  2DC0               	goto	l2184
  5342  0DF9                     u2830:
  5343  0DF9                     l2196:
  5344  0DF9  0824               	movf	___lldiv@quotient+3,w
  5345  0DFA  00F5               	movwf	?___lldiv+3
  5346  0DFB  0823               	movf	___lldiv@quotient+2,w
  5347  0DFC  00F4               	movwf	?___lldiv+2
  5348  0DFD  0822               	movf	___lldiv@quotient+1,w
  5349  0DFE  00F3               	movwf	?___lldiv+1
  5350  0DFF  0821               	movf	___lldiv@quotient,w
  5351  0E00  00F2               	movwf	?___lldiv
  5352  0E01                     l292:
  5353  0E01  0008               	return
  5354  0E02                     __end_of___lldiv:
  5355                           
  5356                           	psect	text19
  5357  0B9E                     __ptext19:	
  5358 ;; *************** function _MasterStop_I2C *****************
  5359 ;; Defined at:
  5360 ;;		line 34 in file "I2C.c"
  5361 ;; Parameters:    Size  Location     Type
  5362 ;;		None
  5363 ;; Auto vars:     Size  Location     Type
  5364 ;;		None
  5365 ;; Return value:  Size  Location     Type
  5366 ;;                  1    wreg      void 
  5367 ;; Registers used:
  5368 ;;		wreg, status,2, status,0, pclath, cstack
  5369 ;; Tracked objects:
  5370 ;;		On entry : 0/0
  5371 ;;		On exit  : 0/0
  5372 ;;		Unchanged: 0/0
  5373 ;; Data sizes:     COMMON   BANK0   BANK1   BANK3   BANK2
  5374 ;;      Params:         0       0       0       0       0
  5375 ;;      Locals:         0       0       0       0       0
  5376 ;;      Temps:          0       0       0       0       0
  5377 ;;      Totals:         0       0       0       0       0
  5378 ;;Total ram usage:        0 bytes
  5379 ;; Hardware stack levels used:    1
  5380 ;; Hardware stack levels required when called:    2
  5381 ;; This function calls:
  5382 ;;		_waitCondition
  5383 ;; This function is called by:
  5384 ;;		_main
  5385 ;; This function uses a non-reentrant model
  5386 ;;
  5387                           
  5388                           
  5389                           ;psect for function _MasterStop_I2C
  5390  0B9E                     _MasterStop_I2C:
  5391  0B9E                     l2104:	
  5392                           ;incstack = 0
  5393                           ; Regs used in _MasterStop_I2C: [wreg+status,2+status,0+pclath+cstack]
  5394                           
  5395                           
  5396                           ;I2C.c: 35:     waitCondition();
  5397  0B9E  120A  158A  23B2  120A  158A  	fcall	_waitCondition
  5398  0BA3                     l2106:
  5399                           
  5400                           ;I2C.c: 36:     SSPCON2bits.PEN = 1;
  5401  0BA3  1683               	bsf	3,5	;RP0=1, select bank1
  5402  0BA4  1303               	bcf	3,6	;RP1=0, select bank1
  5403  0BA5  1511               	bsf	17,2	;volatile
  5404  0BA6                     l128:
  5405  0BA6  0008               	return
  5406  0BA7                     __end_of_MasterStop_I2C:
  5407                           
  5408                           	psect	text20
  5409  0B95                     __ptext20:	
  5410 ;; *************** function _MasterStart_I2C *****************
  5411 ;; Defined at:
  5412 ;;		line 29 in file "I2C.c"
  5413 ;; Parameters:    Size  Location     Type
  5414 ;;		None
  5415 ;; Auto vars:     Size  Location     Type
  5416 ;;		None
  5417 ;; Return value:  Size  Location     Type
  5418 ;;                  1    wreg      void 
  5419 ;; Registers used:
  5420 ;;		wreg, status,2, status,0, pclath, cstack
  5421 ;; Tracked objects:
  5422 ;;		On entry : 0/0
  5423 ;;		On exit  : 0/0
  5424 ;;		Unchanged: 0/0
  5425 ;; Data sizes:     COMMON   BANK0   BANK1   BANK3   BANK2
  5426 ;;      Params:         0       0       0       0       0
  5427 ;;      Locals:         0       0       0       0       0
  5428 ;;      Temps:          0       0       0       0       0
  5429 ;;      Totals:         0       0       0       0       0
  5430 ;;Total ram usage:        0 bytes
  5431 ;; Hardware stack levels used:    1
  5432 ;; Hardware stack levels required when called:    2
  5433 ;; This function calls:
  5434 ;;		_waitCondition
  5435 ;; This function is called by:
  5436 ;;		_main
  5437 ;; This function uses a non-reentrant model
  5438 ;;
  5439                           
  5440                           
  5441                           ;psect for function _MasterStart_I2C
  5442  0B95                     _MasterStart_I2C:
  5443  0B95                     l2084:	
  5444                           ;incstack = 0
  5445                           ; Regs used in _MasterStart_I2C: [wreg+status,2+status,0+pclath+cstack]
  5446                           
  5447                           
  5448                           ;I2C.c: 30:     waitCondition();
  5449  0B95  120A  158A  23B2  120A  158A  	fcall	_waitCondition
  5450  0B9A                     l2086:
  5451                           
  5452                           ;I2C.c: 31:     SSPCON2bits.SEN = 1;
  5453  0B9A  1683               	bsf	3,5	;RP0=1, select bank1
  5454  0B9B  1303               	bcf	3,6	;RP1=0, select bank1
  5455  0B9C  1411               	bsf	17,0	;volatile
  5456  0B9D                     l125:
  5457  0B9D  0008               	return
  5458  0B9E                     __end_of_MasterStart_I2C:
  5459                           
  5460                           	psect	text21
  5461  0BA7                     __ptext21:	
  5462 ;; *************** function _MasterSend_I2C *****************
  5463 ;; Defined at:
  5464 ;;		line 39 in file "I2C.c"
  5465 ;; Parameters:    Size  Location     Type
  5466 ;;  dato            1    wreg     unsigned char 
  5467 ;; Auto vars:     Size  Location     Type
  5468 ;;  dato            1    2[COMMON] unsigned char 
  5469 ;; Return value:  Size  Location     Type
  5470 ;;                  1    wreg      void 
  5471 ;; Registers used:
  5472 ;;		wreg, status,2, status,0, pclath, cstack
  5473 ;; Tracked objects:
  5474 ;;		On entry : 0/0
  5475 ;;		On exit  : 0/0
  5476 ;;		Unchanged: 0/0
  5477 ;; Data sizes:     COMMON   BANK0   BANK1   BANK3   BANK2
  5478 ;;      Params:         0       0       0       0       0
  5479 ;;      Locals:         1       0       0       0       0
  5480 ;;      Temps:          0       0       0       0       0
  5481 ;;      Totals:         1       0       0       0       0
  5482 ;;Total ram usage:        1 bytes
  5483 ;; Hardware stack levels used:    1
  5484 ;; Hardware stack levels required when called:    2
  5485 ;; This function calls:
  5486 ;;		_waitCondition
  5487 ;; This function is called by:
  5488 ;;		_main
  5489 ;; This function uses a non-reentrant model
  5490 ;;
  5491                           
  5492                           
  5493                           ;psect for function _MasterSend_I2C
  5494  0BA7                     _MasterSend_I2C:
  5495                           
  5496                           ;incstack = 0
  5497                           ; Regs used in _MasterSend_I2C: [wreg+status,2+status,0+pclath+cstack]
  5498                           ;MasterSend_I2C@dato stored from wreg
  5499  0BA7  00F2               	movwf	MasterSend_I2C@dato
  5500  0BA8                     l2088:
  5501                           
  5502                           ;I2C.c: 40:     waitCondition();
  5503  0BA8  120A  158A  23B2  120A  158A  	fcall	_waitCondition
  5504  0BAD                     l2090:
  5505                           
  5506                           ;I2C.c: 41:     SSPBUF = dato;
  5507  0BAD  0872               	movf	MasterSend_I2C@dato,w
  5508  0BAE  1283               	bcf	3,5	;RP0=0, select bank0
  5509  0BAF  1303               	bcf	3,6	;RP1=0, select bank0
  5510  0BB0  0093               	movwf	19	;volatile
  5511  0BB1                     l131:
  5512  0BB1  0008               	return
  5513  0BB2                     __end_of_MasterSend_I2C:
  5514                           
  5515                           	psect	text22
  5516  0C17                     __ptext22:	
  5517 ;; *************** function _MasterReceive_I2C *****************
  5518 ;; Defined at:
  5519 ;;		line 44 in file "I2C.c"
  5520 ;; Parameters:    Size  Location     Type
  5521 ;;  valor           1    wreg     PTR unsigned char 
  5522 ;;		 -> DatS2(1), DatS1(1), 
  5523 ;; Auto vars:     Size  Location     Type
  5524 ;;  valor           1    3[COMMON] PTR unsigned char 
  5525 ;;		 -> DatS2(1), DatS1(1), 
  5526 ;; Return value:  Size  Location     Type
  5527 ;;                  1    wreg      void 
  5528 ;; Registers used:
  5529 ;;		wreg, fsr0l, fsr0h, status,2, status,0, pclath, cstack
  5530 ;; Tracked objects:
  5531 ;;		On entry : 0/0
  5532 ;;		On exit  : 0/0
  5533 ;;		Unchanged: 0/0
  5534 ;; Data sizes:     COMMON   BANK0   BANK1   BANK3   BANK2
  5535 ;;      Params:         0       0       0       0       0
  5536 ;;      Locals:         1       0       0       0       0
  5537 ;;      Temps:          1       0       0       0       0
  5538 ;;      Totals:         2       0       0       0       0
  5539 ;;Total ram usage:        2 bytes
  5540 ;; Hardware stack levels used:    1
  5541 ;; Hardware stack levels required when called:    2
  5542 ;; This function calls:
  5543 ;;		_waitCondition
  5544 ;; This function is called by:
  5545 ;;		_main
  5546 ;; This function uses a non-reentrant model
  5547 ;;
  5548                           
  5549                           
  5550                           ;psect for function _MasterReceive_I2C
  5551  0C17                     _MasterReceive_I2C:
  5552                           
  5553                           ;incstack = 0
  5554                           ; Regs used in _MasterReceive_I2C: [wreg-fsr0h+status,2+status,0+pclath+cstack]
  5555                           ;MasterReceive_I2C@valor stored from wreg
  5556  0C17  00F3               	movwf	MasterReceive_I2C@valor
  5557  0C18                     l2092:
  5558                           
  5559                           ;I2C.c: 45:     waitCondition();
  5560  0C18  120A  158A  23B2  120A  158A  	fcall	_waitCondition
  5561  0C1D                     l2094:
  5562                           
  5563                           ;I2C.c: 46:     SSPCON2bits.RCEN = 1;
  5564  0C1D  1683               	bsf	3,5	;RP0=1, select bank1
  5565  0C1E  1303               	bcf	3,6	;RP1=0, select bank1
  5566  0C1F  1591               	bsf	17,3	;volatile
  5567                           
  5568                           ;I2C.c: 47:     waitCondition();
  5569  0C20  120A  158A  23B2  120A  158A  	fcall	_waitCondition
  5570  0C25                     l2096:
  5571                           
  5572                           ;I2C.c: 48:     *valor = SSPBUF;
  5573  0C25  1283               	bcf	3,5	;RP0=0, select bank0
  5574  0C26  1303               	bcf	3,6	;RP1=0, select bank0
  5575  0C27  0813               	movf	19,w	;volatile
  5576  0C28  00F2               	movwf	??_MasterReceive_I2C
  5577  0C29  0873               	movf	MasterReceive_I2C@valor,w
  5578  0C2A  0084               	movwf	4
  5579  0C2B  0872               	movf	??_MasterReceive_I2C,w
  5580  0C2C  0080               	movwf	0
  5581  0C2D                     l2098:
  5582                           
  5583                           ;I2C.c: 49:     waitCondition();
  5584  0C2D  120A  158A  23B2  120A  158A  	fcall	_waitCondition
  5585  0C32                     l2100:
  5586                           
  5587                           ;I2C.c: 50:     SSPCON2bits.ACKDT = 1;
  5588  0C32  1683               	bsf	3,5	;RP0=1, select bank1
  5589  0C33  1303               	bcf	3,6	;RP1=0, select bank1
  5590  0C34  1691               	bsf	17,5	;volatile
  5591  0C35                     l2102:
  5592                           
  5593                           ;I2C.c: 51:     SSPCON2bits.ACKEN = 1;
  5594  0C35  1611               	bsf	17,4	;volatile
  5595  0C36                     l134:
  5596  0C36  0008               	return
  5597  0C37                     __end_of_MasterReceive_I2C:
  5598                           
  5599                           	psect	text23
  5600  0BB2                     __ptext23:	
  5601 ;; *************** function _waitCondition *****************
  5602 ;; Defined at:
  5603 ;;		line 23 in file "I2C.c"
  5604 ;; Parameters:    Size  Location     Type
  5605 ;;		None
  5606 ;; Auto vars:     Size  Location     Type
  5607 ;;		None
  5608 ;; Return value:  Size  Location     Type
  5609 ;;                  1    wreg      void 
  5610 ;; Registers used:
  5611 ;;		wreg, status,2
  5612 ;; Tracked objects:
  5613 ;;		On entry : 0/0
  5614 ;;		On exit  : 0/0
  5615 ;;		Unchanged: 0/0
  5616 ;; Data sizes:     COMMON   BANK0   BANK1   BANK3   BANK2
  5617 ;;      Params:         0       0       0       0       0
  5618 ;;      Locals:         0       0       0       0       0
  5619 ;;      Temps:          0       0       0       0       0
  5620 ;;      Totals:         0       0       0       0       0
  5621 ;;Total ram usage:        0 bytes
  5622 ;; Hardware stack levels used:    1
  5623 ;; Hardware stack levels required when called:    1
  5624 ;; This function calls:
  5625 ;;		Nothing
  5626 ;; This function is called by:
  5627 ;;		_MasterStart_I2C
  5628 ;;		_MasterStop_I2C
  5629 ;;		_MasterSend_I2C
  5630 ;;		_MasterReceive_I2C
  5631 ;; This function uses a non-reentrant model
  5632 ;;
  5633                           
  5634                           
  5635                           ;psect for function _waitCondition
  5636  0BB2                     _waitCondition:
  5637  0BB2                     l1814:	
  5638                           ;incstack = 0
  5639                           ; Regs used in _waitCondition: [wreg+status,2]
  5640                           
  5641  0BB2                     l119:	
  5642                           ;I2C.c: 24:     while ((SSPSTAT & 0x04) || (SSPCON2 & 0x1F));
  5643                           
  5644  0BB2  1683               	bsf	3,5	;RP0=1, select bank1
  5645  0BB3  1303               	bcf	3,6	;RP1=0, select bank1
  5646  0BB4  1914               	btfsc	20,2	;volatile
  5647  0BB5  2BB7               	goto	u2111
  5648  0BB6  2BB8               	goto	u2110
  5649  0BB7                     u2111:
  5650  0BB7  2BB2               	goto	l119
  5651  0BB8                     u2110:
  5652  0BB8                     l1816:
  5653  0BB8  0811               	movf	17,w	;volatile
  5654  0BB9  391F               	andlw	31
  5655  0BBA  1D03               	btfss	3,2
  5656  0BBB  2BBD               	goto	u2121
  5657  0BBC  2BBE               	goto	u2120
  5658  0BBD                     u2121:
  5659  0BBD  2BB2               	goto	l119
  5660  0BBE                     u2120:
  5661  0BBE                     l122:
  5662  0BBE  0008               	return
  5663  0BBF                     __end_of_waitCondition:
  5664                           
  5665                           	psect	text24
  5666  0BF8                     __ptext24:	
  5667 ;; *************** function _LCDstring *****************
  5668 ;; Defined at:
  5669 ;;		line 75 in file "LCDD2.c"
  5670 ;; Parameters:    Size  Location     Type
  5671 ;;  mensaje         1    wreg     PTR unsigned char 
  5672 ;;		 -> STR_1(16), 
  5673 ;; Auto vars:     Size  Location     Type
  5674 ;;  mensaje         1    5[COMMON] PTR unsigned char 
  5675 ;;		 -> STR_1(16), 
  5676 ;; Return value:  Size  Location     Type
  5677 ;;                  1    wreg      void 
  5678 ;; Registers used:
  5679 ;;		wreg, fsr0l, fsr0h, status,2, status,0, pclath, cstack
  5680 ;; Tracked objects:
  5681 ;;		On entry : 0/0
  5682 ;;		On exit  : 0/0
  5683 ;;		Unchanged: 0/0
  5684 ;; Data sizes:     COMMON   BANK0   BANK1   BANK3   BANK2
  5685 ;;      Params:         0       0       0       0       0
  5686 ;;      Locals:         1       0       0       0       0
  5687 ;;      Temps:          1       0       0       0       0
  5688 ;;      Totals:         2       0       0       0       0
  5689 ;;Total ram usage:        2 bytes
  5690 ;; Hardware stack levels used:    1
  5691 ;; Hardware stack levels required when called:    2
  5692 ;; This function calls:
  5693 ;;		_dispCHAR
  5694 ;; This function is called by:
  5695 ;;		_main
  5696 ;; This function uses a non-reentrant model
  5697 ;;
  5698                           
  5699                           
  5700                           ;psect for function _LCDstring
  5701  0BF8                     _LCDstring:
  5702                           
  5703                           ;incstack = 0
  5704                           ; Regs used in _LCDstring: [wreg-fsr0h+status,2+status,0+pclath+cstack]
  5705                           ;LCDstring@mensaje stored from wreg
  5706  0BF8  00F5               	movwf	LCDstring@mensaje
  5707  0BF9                     l2140:
  5708                           
  5709                           ;LCDD2.c: 76:     while(*mensaje != 0x00){
  5710  0BF9  2C0A               	goto	l2146
  5711  0BFA                     l2142:
  5712                           
  5713                           ;LCDD2.c: 77:         dispCHAR(*mensaje);
  5714  0BFA  0875               	movf	LCDstring@mensaje,w
  5715  0BFB  0084               	movwf	4
  5716  0BFC  120A  158A  2000  120A  158A  	fcall	stringdir
  5717  0C01  120A  158A  23BF  120A  158A  	fcall	_dispCHAR
  5718  0C06                     l2144:
  5719                           
  5720                           ;LCDD2.c: 78:         mensaje ++;
  5721  0C06  3001               	movlw	1
  5722  0C07  00F4               	movwf	??_LCDstring
  5723  0C08  0874               	movf	??_LCDstring,w
  5724  0C09  07F5               	addwf	LCDstring@mensaje,f
  5725  0C0A                     l2146:
  5726                           
  5727                           ;LCDD2.c: 76:     while(*mensaje != 0x00){
  5728  0C0A  0875               	movf	LCDstring@mensaje,w
  5729  0C0B  0084               	movwf	4
  5730  0C0C  120A  158A  2000  120A  158A  	fcall	stringdir
  5731  0C11  3A00               	xorlw	0
  5732  0C12  1D03               	skipz
  5733  0C13  2C15               	goto	u2761
  5734  0C14  2C16               	goto	u2760
  5735  0C15                     u2761:
  5736  0C15  2BFA               	goto	l2142
  5737  0C16                     u2760:
  5738  0C16                     l170:
  5739  0C16  0008               	return
  5740  0C17                     __end_of_LCDstring:
  5741                           
  5742                           	psect	text25
  5743  0BBF                     __ptext25:	
  5744 ;; *************** function _dispCHAR *****************
  5745 ;; Defined at:
  5746 ;;		line 40 in file "LCDD2.c"
  5747 ;; Parameters:    Size  Location     Type
  5748 ;;  b               1    wreg     unsigned char 
  5749 ;; Auto vars:     Size  Location     Type
  5750 ;;  b               1    3[COMMON] unsigned char 
  5751 ;; Return value:  Size  Location     Type
  5752 ;;                  1    wreg      void 
  5753 ;; Registers used:
  5754 ;;		wreg
  5755 ;; Tracked objects:
  5756 ;;		On entry : 0/0
  5757 ;;		On exit  : 0/0
  5758 ;;		Unchanged: 0/0
  5759 ;; Data sizes:     COMMON   BANK0   BANK1   BANK3   BANK2
  5760 ;;      Params:         0       0       0       0       0
  5761 ;;      Locals:         1       0       0       0       0
  5762 ;;      Temps:          1       0       0       0       0
  5763 ;;      Totals:         2       0       0       0       0
  5764 ;;Total ram usage:        2 bytes
  5765 ;; Hardware stack levels used:    1
  5766 ;; Hardware stack levels required when called:    1
  5767 ;; This function calls:
  5768 ;;		Nothing
  5769 ;; This function is called by:
  5770 ;;		_main
  5771 ;;		_LCDstring
  5772 ;; This function uses a non-reentrant model
  5773 ;;
  5774                           
  5775                           
  5776                           ;psect for function _dispCHAR
  5777  0BBF                     _dispCHAR:
  5778                           
  5779                           ;incstack = 0
  5780                           ; Regs used in _dispCHAR: [wreg]
  5781                           ;dispCHAR@b stored from wreg
  5782  0BBF  00F3               	movwf	dispCHAR@b
  5783  0BC0                     l1764:
  5784                           
  5785                           ;LCDD2.c: 42:     RE0 = 1;
  5786  0BC0  1283               	bcf	3,5	;RP0=0, select bank0
  5787  0BC1  1303               	bcf	3,6	;RP1=0, select bank0
  5788  0BC2  1409               	bsf	9,0	;volatile
  5789  0BC3                     l1766:
  5790                           
  5791                           ;LCDD2.c: 43:     PORTD = b;
  5792  0BC3  0873               	movf	dispCHAR@b,w
  5793  0BC4  0088               	movwf	8	;volatile
  5794  0BC5                     l1768:
  5795                           
  5796                           ;LCDD2.c: 44:     RE1 = 1;
  5797  0BC5  1489               	bsf	9,1	;volatile
  5798                           
  5799                           ;LCDD2.c: 45:     _delay((unsigned long)((40)*(8000000/4000000.0)));
  5800  0BC6  301A               	movlw	26
  5801  0BC7  00F2               	movwf	??_dispCHAR
  5802  0BC8                     u3447:
  5803  0BC8  0BF2               	decfsz	??_dispCHAR,f
  5804  0BC9  2BC8               	goto	u3447
  5805  0BCA  0000               	nop
  5806  0BCB                     l1770:
  5807                           
  5808                           ;LCDD2.c: 46:     RE1 = 0;
  5809  0BCB  1283               	bcf	3,5	;RP0=0, select bank0
  5810  0BCC  1303               	bcf	3,6	;RP1=0, select bank0
  5811  0BCD  1089               	bcf	9,1	;volatile
  5812  0BCE                     l153:
  5813  0BCE  0008               	return
  5814  0BCF                     __end_of_dispCHAR:
  5815                           
  5816                           	psect	text26
  5817  0B8E                     __ptext26:	
  5818 ;; *************** function _interrupcion *****************
  5819 ;; Defined at:
  5820 ;;		line 52 in file "main.c"
  5821 ;; Parameters:    Size  Location     Type
  5822 ;;		None
  5823 ;; Auto vars:     Size  Location     Type
  5824 ;;		None
  5825 ;; Return value:  Size  Location     Type
  5826 ;;                  1    wreg      void 
  5827 ;; Registers used:
  5828 ;;		None
  5829 ;; Tracked objects:
  5830 ;;		On entry : 0/0
  5831 ;;		On exit  : 0/0
  5832 ;;		Unchanged: 0/0
  5833 ;; Data sizes:     COMMON   BANK0   BANK1   BANK3   BANK2
  5834 ;;      Params:         0       0       0       0       0
  5835 ;;      Locals:         0       0       0       0       0
  5836 ;;      Temps:          2       0       0       0       0
  5837 ;;      Totals:         2       0       0       0       0
  5838 ;;Total ram usage:        2 bytes
  5839 ;; Hardware stack levels used:    1
  5840 ;; This function calls:
  5841 ;;		Nothing
  5842 ;; This function is called by:
  5843 ;;		Interrupt level 1
  5844 ;; This function uses a non-reentrant model
  5845 ;;
  5846                           
  5847                           
  5848                           ;psect for function _interrupcion
  5849  0B8E                     _interrupcion:
  5850  0B8E                     i1l67:
  5851  0B8E  0871               	movf	??_interrupcion+1,w
  5852  0B8F  008A               	movwf	10
  5853  0B90  0E70               	swapf	??_interrupcion,w
  5854  0B91  0083               	movwf	3
  5855  0B92  0EFE               	swapf	btemp,f
  5856  0B93  0E7E               	swapf	btemp,w
  5857  0B94  0009               	retfie
  5858  0B95                     __end_of_interrupcion:
  5859  007E                     btemp	set	126	;btemp
  5860  007E                     wtemp0	set	126
  5861                           
  5862                           	psect	intentry
  5863  0004                     __pintentry:	
  5864                           ;incstack = 0
  5865                           ; Regs used in _interrupcion: []
  5866                           
  5867  0004                     interrupt_function:
  5868  007E                     saved_w	set	btemp
  5869  0004  00FE               	movwf	btemp
  5870  0005  0E03               	swapf	3,w
  5871  0006  00F0               	movwf	??_interrupcion
  5872  0007  080A               	movf	10,w
  5873  0008  00F1               	movwf	??_interrupcion+1
  5874  0009  120A  158A  2B8E   	ljmp	_interrupcion
  5875                           
  5876                           	psect	config
  5877                           
  5878                           ;Config register CONFIG1 @ 0x2007
  5879                           ;	Oscillator Selection bits
  5880                           ;	FOSC = INTRC_NOCLKOUT, INTOSCIO oscillator: I/O function on RA6/OSC2/CLKOUT pin, I/O f
      +                          unction on RA7/OSC1/CLKIN
  5881                           ;	Watchdog Timer Enable bit
  5882                           ;	WDTE = OFF, WDT disabled and can be enabled by SWDTEN bit of the WDTCON register
  5883                           ;	Power-up Timer Enable bit
  5884                           ;	PWRTE = OFF, PWRT disabled
  5885                           ;	RE3/MCLR pin function select bit
  5886                           ;	MCLRE = ON, RE3/MCLR pin function is MCLR
  5887                           ;	Code Protection bit
  5888                           ;	CP = OFF, Program memory code protection is disabled
  5889                           ;	Data Code Protection bit
  5890                           ;	CPD = OFF, Data memory code protection is disabled
  5891                           ;	Brown Out Reset Selection bits
  5892                           ;	BOREN = OFF, BOR disabled
  5893                           ;	Internal External Switchover bit
  5894                           ;	IESO = OFF, Internal/External Switchover mode is disabled
  5895                           ;	Fail-Safe Clock Monitor Enabled bit
  5896                           ;	FCMEN = OFF, Fail-Safe Clock Monitor is disabled
  5897                           ;	Low Voltage Programming Enable bit
  5898                           ;	LVP = OFF, RB3 pin has digital I/O, HV on MCLR must be used for programming
  5899                           ;	In-Circuit Debugger Mode bit
  5900                           ;	DEBUG = 0x1, unprogrammed default
  5901  2007                     	org	8199
  5902  2007  20F4               	dw	8436
  5903                           
  5904                           ;Config register CONFIG2 @ 0x2008
  5905                           ;	Brown-out Reset Selection bit
  5906                           ;	BOR4V = BOR40V, Brown-out Reset set to 4.0V
  5907                           ;	Flash Program Memory Self Write Enable bits
  5908                           ;	WRT = OFF, Write protection off
  5909  2008                     	org	8200
  5910  2008  3FFF               	dw	16383

Data Sizes:
    Strings     16
    Constant    0
    Data        0
    BSS         12
    Persistent  0
    Stack       0

Auto Spaces:
    Space          Size  Autos    Used
    COMMON           14     10      12
    BANK0            80     64      74
    BANK1            80      0       0
    BANK3            96      0       0
    BANK2            96      0       0

Pointer List with Targets:

    LCDstring@mensaje	PTR unsigned char  size(1) Largest target is 16
		 -> STR_1(CODE[16]), 

    MasterReceive_I2C@valor	PTR unsigned char  size(1) Largest target is 1
		 -> DatS2(COMMON[1]), DatS1(COMMON[1]), 

    divisiondecimal@cent	PTR unsigned char  size(1) Largest target is 1
		 -> hexTochar@centena(BANK0[1]), 

    divisiondecimal@dec	PTR unsigned char  size(1) Largest target is 1
		 -> hexTochar@decena(BANK0[1]), 

    divisiondecimal@un	PTR unsigned char  size(1) Largest target is 1
		 -> hexTochar@unidad(BANK0[1]), 

    hexTochar@conv	PTR unsigned char  size(1) Largest target is 3
		 -> disp2(BANK0[3]), 

    division@dec	PTR unsigned char  size(1) Largest target is 2
		 -> floTochar@digdecimal(BANK0[2]), 

    division@un	PTR unsigned char  size(1) Largest target is 2
		 -> floTochar@digdecimal(BANK0[2]), 

    floTochar@conv	PTR unsigned char  size(1) Largest target is 3
		 -> disp1(BANK0[3]), 


Critical Paths under _main in COMMON

    _main->___xxtofl
    _initLCD->_comandoLCD
    _hexTochar->_divisiondecimal
    _divisiondecimal->___awdiv
    _floTochar->___xxtofl
    _floTochar->_division
    _division->___awdiv
    ___flsub->___fladd
    ___flsub->___xxtofl
    ___flmul->___xxtofl
    _cursorLCD->_comandoLCD
    _MasterInit_I2C->___lldiv
    _LCDstring->_dispCHAR

Critical Paths under _interrupcion in COMMON

    None.

Critical Paths under _main in BANK0

    _main->_floTochar
    _hexTochar->_divisiondecimal
    _divisiondecimal->___awdiv
    _floTochar->___fltol
    _division->___awdiv
    ___fltol->___flmul
    ___flsub->___fladd
    ___flmul->___xxtofl
    _config->_MasterInit_I2C
    _MasterInit_I2C->___lldiv

Critical Paths under _interrupcion in BANK0

    None.

Critical Paths under _main in BANK1

    None.

Critical Paths under _interrupcion in BANK1

    None.

Critical Paths under _main in BANK3

    None.

Critical Paths under _interrupcion in BANK3

    None.

Critical Paths under _main in BANK2

    None.

Critical Paths under _interrupcion in BANK2

    None.

Call Graph Tables:

 ---------------------------------------------------------------------------------
 (Depth) Function   	        Calls       Base Space   Used Autos Params    Refs
 ---------------------------------------------------------------------------------
 (0) _main                                                 4     4      0   16921
                                             60 BANK0      4     4      0
                          _LCDstring
                  _MasterReceive_I2C
                     _MasterSend_I2C
                    _MasterStart_I2C
                     _MasterStop_I2C
                            ___flmul
                           ___xxtofl
                             _config
                          _cursorLCD
                           _dispCHAR
                          _floTochar
                          _hexTochar
                            _initLCD
 ---------------------------------------------------------------------------------
 (1) _initLCD                                              2     2      0      22
                                              5 COMMON     2     2      0
                         _comandoLCD
 ---------------------------------------------------------------------------------
 (1) _hexTochar                                            8     7      1    2522
                                              9 BANK0      8     7      1
                    _divisiondecimal
 ---------------------------------------------------------------------------------
 (2) _divisiondecimal                                      8     5      3    2080
                                              7 COMMON     3     3      0
                                              4 BANK0      5     2      3
                            ___awdiv
                             ___bmul
 ---------------------------------------------------------------------------------
 (1) _floTochar                                           17    12      5    9212
                                             43 BANK0     17    12      5
                            ___flmul
                            ___flsub
                            ___fltol
                           ___xxtofl
                           _division
 ---------------------------------------------------------------------------------
 (2) _division                                             7     5      2    1801
                                              7 COMMON     3     3      0
                                              4 BANK0      4     2      2
                            ___awdiv
                             ___bmul
 ---------------------------------------------------------------------------------
 (3) ___bmul                                               4     3      1     320
                                              2 COMMON     4     3      1
 ---------------------------------------------------------------------------------
 (3) ___awdiv                                              9     5      4     985
                                              2 COMMON     5     1      4
                                              0 BANK0      4     4      0
 ---------------------------------------------------------------------------------
 (2) ___xxtofl                                            14    10      4     474
                                              2 COMMON     8     4      4
                                              0 BANK0      6     6      0
 ---------------------------------------------------------------------------------
 (2) ___fltol                                             11     7      4     381
                                             32 BANK0     11     7      4
                            ___flmul (ARG)
 ---------------------------------------------------------------------------------
 (2) ___flsub                                              8     0      8    2333
                                             12 BANK0      8     0      8
                            ___fladd
                           ___xxtofl (ARG)
 ---------------------------------------------------------------------------------
 (3) ___fladd                                             20    12      8    2136
                                              2 COMMON     8     0      8
                                              0 BANK0     12    12      0
 ---------------------------------------------------------------------------------
 (2) ___flmul                                             26    18      8    3533
                                              6 BANK0     26    18      8
                          __Umul8_16
                           ___xxtofl (ARG)
 ---------------------------------------------------------------------------------
 (3) __Umul8_16                                            9     7      2     980
                                              2 COMMON     4     2      2
                                              0 BANK0      5     5      0
 ---------------------------------------------------------------------------------
 (1) _cursorLCD                                            4     3      1     384
                                              5 COMMON     4     3      1
                         _comandoLCD
 ---------------------------------------------------------------------------------
 (2) _comandoLCD                                           3     3      0      22
                                              2 COMMON     3     3      0
 ---------------------------------------------------------------------------------
 (1) _config                                               0     0      0     542
                     _MasterInit_I2C
 ---------------------------------------------------------------------------------
 (2) _MasterInit_I2C                                       8     4      4     542
                                              6 BANK0      8     4      4
                            ___lldiv
 ---------------------------------------------------------------------------------
 (3) ___lldiv                                             14     6      8     421
                                              2 COMMON     8     0      8
                                              0 BANK0      6     6      0
 ---------------------------------------------------------------------------------
 (1) _MasterStop_I2C                                       0     0      0       0
                      _waitCondition
 ---------------------------------------------------------------------------------
 (1) _MasterStart_I2C                                      0     0      0       0
                      _waitCondition
 ---------------------------------------------------------------------------------
 (1) _MasterSend_I2C                                       1     1      0      22
                                              2 COMMON     1     1      0
                      _waitCondition
 ---------------------------------------------------------------------------------
 (1) _MasterReceive_I2C                                    2     2      0      88
                                              2 COMMON     2     2      0
                      _waitCondition
 ---------------------------------------------------------------------------------
 (2) _waitCondition                                        0     0      0       0
 ---------------------------------------------------------------------------------
 (1) _LCDstring                                            2     2      0     100
                                              4 COMMON     2     2      0
                           _dispCHAR
 ---------------------------------------------------------------------------------
 (1) _dispCHAR                                             2     2      0      22
                                              2 COMMON     2     2      0
 ---------------------------------------------------------------------------------
 Estimated maximum stack depth 3
 ---------------------------------------------------------------------------------
 (Depth) Function   	        Calls       Base Space   Used Autos Params    Refs
 ---------------------------------------------------------------------------------
 (4) _interrupcion                                         2     2      0       0
                                              0 COMMON     2     2      0
 ---------------------------------------------------------------------------------
 Estimated maximum stack depth 4
 ---------------------------------------------------------------------------------

 Call Graph Graphs:

 _main (ROOT)
   _LCDstring
     _dispCHAR
   _MasterReceive_I2C
     _waitCondition
   _MasterSend_I2C
     _waitCondition
   _MasterStart_I2C
     _waitCondition
   _MasterStop_I2C
     _waitCondition
   ___flmul
     __Umul8_16
     ___xxtofl (ARG)
   ___xxtofl
   _config
     _MasterInit_I2C
       ___lldiv
   _cursorLCD
     _comandoLCD
   _dispCHAR
   _floTochar
     ___flmul
       __Umul8_16
       ___xxtofl (ARG)
     ___flsub
       ___fladd
       ___xxtofl (ARG)
     ___fltol
       ___flmul (ARG)
         __Umul8_16
         ___xxtofl (ARG)
     ___xxtofl
     _division
       ___awdiv
       ___bmul
   _hexTochar
     _divisiondecimal
       ___awdiv
       ___bmul
   _initLCD
     _comandoLCD

 _interrupcion (ROOT)

 Address spaces:
Name               Size   Autos  Total    Cost      Usage
BITCOMMON            E      0       0       0        0.0%
EEDATA             100      0       0       0        0.0%
NULL                 0      0       0       0        0.0%
CODE                 0      0       0       0        0.0%
COMMON               E      A       C       1       85.7%
BITSFR0              0      0       0       1        0.0%
SFR0                 0      0       0       1        0.0%
BITSFR1              0      0       0       2        0.0%
SFR1                 0      0       0       2        0.0%
STACK                0      0       0       2        0.0%
ABS                  0      0      56       3        0.0%
BITBANK0            50      0       0       4        0.0%
BITSFR3              0      0       0       4        0.0%
SFR3                 0      0       0       4        0.0%
BANK0               50     40      4A       5       92.5%
BITSFR2              0      0       0       5        0.0%
SFR2                 0      0       0       5        0.0%
BITBANK1            50      0       0       6        0.0%
BANK1               50      0       0       7        0.0%
BITBANK3            60      0       0       8        0.0%
BANK3               60      0       0       9        0.0%
BITBANK2            60      0       0      10        0.0%
BANK2               60      0       0      11        0.0%
DATA                 0      0      56      12        0.0%


Microchip Technology PIC Macro Assembler V2.31 build 20201012212115 
Symbol Table                                                                                   Wed Aug 04 20:45:10 2021

                         pc 0002              ___bmul@product 0074                          l72 0614  
                        l81 0FFF                          l90 0CCE                          l78 0CA2  
                        l87 0D4F                          l99 0F63                ___awdiv@sign 0021  
                        fsr 0004         __Umul8_16@word_mpld 0022                         l122 0BBE  
                       l131 0BB1                         l116 0D07                         l125 0B9D  
                       l134 0C36                         l150 0D99                         l119 0BB2  
                       l128 0BA6                         l153 0BCE                         l161 0BE2  
                       l170 0C16                         l158 0C59                         l409 0E6A  
                       l442 0EE6                         l282 0BF7                         l292 0E01  
                       l452 0EE6                         l702 079E                         l703 07AA  
                       l553 048C                         l449 0ED1                         l570 0557  
                       l562 0609                         l651 02ED                         l555 0463  
                       l580 059D                         l645 0381                         l549 03E5  
                       l574 057B                         l591 05FD                         l583 05DB  
                       l664 07EB                         l592 0609                         l657 0375  
                       l666 07FD                         l595 0C7D                         l691 07D4  
                       l695 0782                         l689 073D                         _RE0 0048  
                       _RE1 0049                         fsr0 0004                         indf 0000  
              ___flmul@aexp 0034                ___flmul@bexp 0039                ___flmul@sign 0033  
              ___flmul@temp 003E                ___flmul@prod 003A                ___fltol@exp1 004A  
                      l2010 0721                        l2100 0C32                        l2020 074E  
                      l2012 0725                        l2102 0C35                        l2030 0779  
                      l2022 0753                        l2014 0735                        l2104 0B9E  
                      l2040 07AC                        l2032 0789                        l2024 0760  
                      l2016 0745                        l2008 071C                        l2200 0E02  
                      l2106 0BA3                        l2130 0C3D                        l2042 07C2  
                      l2034 0794                        l2026 0767                        l2210 0E14  
                      l2202 0E05                        l2140 0BF9                        l2132 0C42  
                      l2300 0021                        l2044 07C7                        l2036 0798  
                      l2028 076B                        l2220 0E28                        l2212 0E19  
                      l2204 0E09                        l2060 0D50                        l2142 0BFA  
                      l2134 0C48                        l2310 0038                        l2302 0028  
                      l2046 07CB                        l2038 07A2                        l2230 0E4E  
                      l2222 0E2F                        l2214 0E1D                        l2206 0E0E  
                      l2070 0D6C                        l2062 0D53                        l2144 0C06  
                      l2136 0C4E                        l2128 0C38                        l2400 02D2  
                      l2320 0054                        l2312 003D                        l2304 002E  
                      l1600 03EB                        l2048 07CC                        l2240 0E66  
                      l2232 0E4F                        l2224 0E33                        l2216 0E1F  
                      l2208 0E10                        l2080 0D8D                        l2072 0D72  
                      l2064 0D54                        l2146 0C0A                        l2090 0BAD  
                      l2138 0C53                        l2250 07E5                        l2410 02F7  
                      l2402 02D6                        l2330 0069                        l2322 005A  
                      l2314 0045                        l2306 0032                        l1610 03FF  
                      l1602 03EF                        l2234 0E56                        l2226 0E37  
                      l2218 0E25                        l2082 0D93                        l2074 0D7B  
                      l2066 0D5D                        l2092 0C18                        l2084 0B95  
                      l2180 0DAF                        l2260 0CD3                        l2252 07F4  
                      l2244 07D8                        l2420 0335                        l2412 0305  
                      l2404 02EA                        l2340 0085                        l2332 0071  
                      l2324 005E                        l2316 0047                        l2308 0033  
                      l1700 057A                        l1620 0413                        l1612 0403  
                      l1604 03F3                        l2228 0E48                        l2236 0E5C  
                      l2076 0D81                        l2068 0D63                        l2094 0C1D  
                      l2086 0B9A                        l2190 0DE9                        l2182 0DBC  
                      l2262 0CD6                        l2254 07F9                        l2246 07DA  
                      l2430 0369                        l2422 0340                        l2414 0309  
                      l2350 00C8                        l2334 0073                        l2326 005F  
                      l2318 004F                        l1702 057F                        l1710 058B  
                      l1630 0427                        l1622 0417                        l1614 0407  
                      l1606 03F7                        l2238 0E61                        l2270 0D0B  
                      l2078 0D87                        l2096 0C25                        l2088 0BA8  
                      l2192 0DEA                        l2184 0DC0                        l2176 0D9A  
                      l2264 0CD8                        l2440 0C7E                        l2248 07E1  
                      l2432 036D                        l2424 034F                        l2416 0322  
                      l2408 02F2                        l2360 0151                        l2352 00E4  
                      l2344 008E                        l2336 007B                        l2328 0064  
                      l1704 0582                        l1712 058F                        l1640 0467  
                      l1632 042B                        l1624 041B                        l1616 040B  
                      l1608 03FB                        l1560 038F                        l1480 0BED  
                      l2280 0D48                        l2272 0D0F                        l2098 0C2D  
                      l2194 0DF3                        l2186 0DC9                        l2178 0DAC  
                      l2266 0D05                        l2258 0CCF                        l2442 0C8E  
                      l2434 036E                        l2426 0359                        l2418 0328  
                      l2370 01C4                        l2362 0161                        l2354 0110  
                      l2346 009E                        l2338 0080                        l1730 05D7  
                      l1722 05A2                        l1714 0590                        l1706 0584  
                      l1650 0480                        l1642 0470                        l1626 041F  
                      l1618 040F                        l1634 042F                        l1570 03A6  
                      l1562 0393                        l1482 0BEF                        l1474 0BE4  
                      l2274 0D13                        l2450 0F79                        l2290 0EF9  
                      l2282 0EEA                        l2188 0DDB                        l2196 0DF9  
                      l2268 0D06                        l2444 0C92                        l1820 0BD3  
                      l2436 0379                        l2428 035B                        l2380 0271  
                      l2372 01E1                        l2364 017E                        l2356 012C  
                      l2348 00AB                        l1740 05F3                        l1732 05E0  
                      l1724 05A7                        l1716 0594                        l1708 0589  
                      l1660 049E                        l1644 0472                        l1652 0484  
                      l1636 0430                        l1628 0423                        l1580 03BC  
                      l1572 03A7                        l1564 0394                        l1556 0382  
                      l1484 0BF6                        l1476 0BE5                        l2276 0D17  
                      l2452 0F7D                        l2292 0F24                        l2284 0EEE  
                      l2460 0CA6                        l1814 0BB2                        l2446 0C93  
                      l1822 0BD5                        l2390 02BD                        l2382 0299  
                      l2374 020E                        l2366 018E                        l2358 0148  
                      l1742 05F7                        l1734 05E5                        l1726 05B5  
                      l1718 059A                        l1670 04C8                        l1662 04B5  
                      l1654 0490                        l1646 0476                        l1638 0447  
                      l1590 03CD                        l1582 03BD                        l1566 0399  
                      l1574 03A9                        l1558 0389                        l1478 0BE9  
                      l2278 0D42                        l2454 0FB1                        l2294 0F2B  
                      l2286 0EF2                        l2462 0CB8                        l2470 061F  
                      l1816 0BB8                        l1824 0BDF                        l2392 02BE  
                      l2384 02A2                        l2376 021E                        l2368 01AB  
                      l1744 05F9                        l1736 05ED                        l1728 05B9  
                      l1680 04F1                        l1672 04CC                        l1664 04B9  
                      l1656 0495                        l1648 0477                        l1592 03D2  
                      l1584 03C3                        l1576 03B1                        l1568 039E  
                      l1840 0EA1                        l1832 0E81                        l2456 0FDB  
                      l2448 0F64                        l2296 0F56                        l2288 0EF5  
                      l2464 0CC1                        l2480 0644                        l2472 0625  
                      l1770 0BCB                        l1818 0BD0                        l2394 02C7  
                      l2386 02B0                        l2378 024B                        l1746 0604  
                      l1738 05F2                        l1690 055F                        l1682 052F  
                      l1674 04CD                        l1666 04BD                        l1594 03DA  
                      l1586 03C7                        l1578 03B6                        l1842 0EA5  
                      l1850 0EBF                        l1834 0E96                        l1826 0E6B  
                      l2458 0FF8                        l2298 0F5C                        l2466 0CC7  
                      l2490 06B1                        l2482 064A                        l2474 062A  
                      l1764 0BC0                        l2388 02B9                        l2396 02CD  
                      l1748 0608                        l1692 0564                        l1684 0535  
                      l1676 04D6                        l1668 04C6                        l1596 03DB  
                      l1588 03C8                        l1860 0EDB                        l1836 0E97  
                      l1828 0E78                        l2492 06B9                        l2484 064F  
                      l2476 0639                        l2468 060A                        l1766 0BC3  
                      l2398 02D1                        l1686 053A                        l1678 04DB  
                      l1598 03DD                        l1862 0C5A                        l1838 0E9F  
                      l2486 065E                        l2478 063E                        l1768 0BC5  
                      l1696 056D                        l1688 0549                        l1864 0C5E  
                      l1856 0EC6                        l1848 0EAD                        l2488 0694  
                      l1698 0576                        l1858 0ED6                        STR_1 0806  
                      u2000 05E5                        u2001 05E4                        u2010 05F2  
                      u2011 05F1                        u2020 05F7                        u2021 05F6  
                      u2110 0BB8                        u2030 0608                        u2111 0BB7  
                      u2031 0607                        u2120 0BBE                        u1400 0BF6  
                      u3000 0F5C                        u2121 0BBD                        u1401 0BF5  
                      u3001 0F5B                        u3010 0032                        u2210 0ED6  
                      u2130 0E78                        u3011 0031                        u2211 0ED5  
                      u2131 0E77                        u3020 0038                        u2220 0EDB  
                      u2140 0E8F                        u3101 00F2                        u3021 0037  
                      u2221 0EDA                        u2205 0EC8                        u3102 00F9  
                      u3030 003D                        u2150 0EA5                        u3111 011E  
                      u3103 0100                        u3031 003C                        u2151 0EA4  
                      u3200 0257                        u3112 0125                        u3040 005E  
                      u1600 039E                        u2160 0EAC                        u3121 013A  
                      u3113 012C                        u3041 005D                        u1601 039D  
                      u2161 0EAB                        u2145 0E8A                        u3122 0141  
                      u3050 0064                        u1610 03BC                        u3211 0263  
                      u3123 0148                        u3051 0063                        u1611 03BB  
                      u3300 02EA                        u3220 027F                        u3212 026A  
                      u3060 0069                        u1700 0467                        u1620 03C7  
                      u2180 0EBE                        u3301 02E9                        u3213 0271  
                      u3205 0252                        u3141 0170                        u3061 0068  
                      u1701 0466                        u1621 03C6                        u2181 0EBD  
                      u3310 02F1                        u3142 0177                        u3070 0080  
                      u1710 0476                        u1630 03CD                        u2190 0EC5  
                      u1390 0BE9                        u3311 02F0                        u3231 028B  
                      u3151 019D                        u3143 017E                        u3135 014A  
                      u3071 007F                        u1711 0475                        u1631 03CC  
                      u2191 0EC4                        u2175 0EAE                        u1391 0BE8  
                      u3320 02F7                        u3232 0292                        u3152 01A4  
                      u3080 0085                        u1640 03D2                        u2600 0721  
                      u3321 02F6                        u3233 0299                        u3225 027A  
                      u3153 01AB                        u3081 0084                        u1641 03D1  
                      u2601 0720                        u3330 0309                        u1810 04F1  
                      u1730 048C                        u1650 03EB                        u2610 0725  
                      u3331 0308                        u3171 01D3                        u3091 00D6  
                      u1811 04F0                        u1731 048B                        u1651 03EA  
                      u2611 0724                        u3340 0318                        u3260 02BD  
                      u3172 01DA                        u3092 00DD                        u1900 0589  
                      u1740 0490                        u1660 03EF                        u1580 0393  
                      u2700 07A2                        u2620 0745                        u3261 02BC  
                      u3245 029B                        u3181 0200                        u3173 01E1  
                      u3165 01AD                        u3093 00E4                        u1901 0588  
                      u1821 0508                        u1813 04ED                        u1805 04CF  
                      u1741 048F                        u1725 0479                        u1661 03EE  
                      u1581 0392                        u2701 07A1                        u2621 0744  
                      u3350 0335                        u3182 0207                        u1910 058F  
                      u1830 051C                        u1822 0509                        u1750 0495  
                      u1670 0447                        u1590 0399                        u2710 07B7  
                      u3351 0334                        u3255 02B2                        u3191 022D  
                      u3183 020E                        u1911 058E                        u1831 051D  
                      u1823 050E                        u1751 0494                        u1671 0446  
                      u1591 0398                        u3407 0D58                        u3360 034F  
                      u3280 02D1                        u3192 0234                        u1920 0594  
                      u1840 053A                        u1832 0522                        u1824 050F  
                      u1680 0450                        u2720 07C7                        u2640 0766  
                      u3361 034E                        u3345 0313                        u3281 02D0  
                      u3193 023B                        u1921 0593                        u1841 0539  
                      u1833 0523                        u1825 0514                        u1761 04A7  
                      u1681 044E                        u2721 07C6                        u2641 0765  
                      u3417 0D67                        u2810 0DDB                        u3370 036D  
                      u3290 02D6                        u1930 059A                        u1850 055F  
                      u1826 0515                        u1770 04B9                        u1762 04AE  
                      u1690 0451                        u2730 07CB                        u2811 0DDA  
                      u3371 036C                        u3355 0331                        u3291 02D5  
                      u3275 02C0                        u1931 0599                        u1851 055E  
                      u1771 04B8                        u1763 04B5                        u1675 0443  
                      u2731 07CA                        u2715 07B2                        u2635 0758  
                      u3427 0D76                        u2740 0C3D                        u1940 05A1  
                      u1860 0564                        u1780 04BD                        u2660 0788  
                      u2900 0E48                        u2805 0DC2                        u3437 0BDA  
                      u2741 0C3C                        u3365 034B                        u1941 05A0  
                      u1861 0563                        u1781 04BC                        u2661 0787  
                      u2901 0E47                        u2830 0DF9                        u2750 0C4E  
                      u1950 05A7                        u1790 04CC                        u3447 0BC8  
                      u2831 0DF8                        u2815 0DD7                        u2751 0C4D  
                      u1951 05A6                        u1791 04CB                        u2655 077A  
                      u2760 0C16                        u1960 05B9                        u1880 057A  
                      u2680 0798                        u2920 0E5C                        u2840 0E09  
                      u2761 0C15                        u2825 0DEB                        u1961 05B8  
                      u1881 0579                        u2681 0797                        u2921 0E5B  
                      u2905 0E44                        u2841 0E08                        u2770 0DAC  
                      u1970 05C8                        u1890 057F                        u2690 079E  
                      u2930 0E61                        u2850 0E14                        u2771 0DAB  
                      u1891 057E                        u1875 056F                        u2691 079D  
                      u2675 078D                        u2931 0E60                        u2915 0E50  
                      u2851 0E13                        u3387 0632                        u2940 07E5  
                      u1980 05D7                        u2860 0E25                        u2941 07E4  
                      u1981 05D6                        u2861 0E24                        u3397 0657  
                      u2790 0DC0                        u1990 05E0                        u2791 0DBF  
                      u1991 05DF                        u1975 05C3                        u2960 07F9  
                      u2880 0E37                        u2785 0DB1                        u2961 07F8  
                      u2881 0E36                        u2970 0CE8                        u2955 07EC  
                      u2875 0E29                        u2980 0D48                        u2981 0D47  
                      u2990 0F2A                        u2975 0CE3                        u2895 0E38  
                      u2991 0F29                        i1l67 0B8E                        _main 060A  
                      btemp 007E             _divisiondecimal 0EE7                        start 000C  
         ___bmul@multiplier 0075                 division@dec 0025                 division@div 0027  
        __size_of_LCDstring 001F               ___fltol@sign1 0049             __end_of___fladd 060A  
                     ?_main 0070             __end_of___awdiv 0E6B             __end_of___flmul 0382  
           __end_of___flsub 0C7E             __end_of___fltol 0EE7                       _ANSEL 0188  
           __end_of___lldiv 0E02             ___awdiv@divisor 0072             ___awdiv@counter 0020  
             floTochar@conv 004F                       _PORTA 0005                       _PORTB 0006  
                     _PORTD 0008                       _PORTE 0009               floTochar@temp 0054  
                     _TRISA 0085                       _TRISB 0086                       _TRISD 0088  
                     _TRISE 0089                       _DatS1 007B                       _DatS2 007A  
   __size_of_MasterInit_I2C 0039             __end_of_initLCD 0D9A                       _disp1 0067  
                     _disp2 0064                       _lect1 0060     __size_of_MasterSend_I2C 000B  
                     pclath 000A                       status 0003                       wtemp0 007E  
   __size_of_MasterStop_I2C 0009             __initialization 000F                __end_of_main 0719  
                    ??_main 005C         divisiondecimal@cent 0026            ___awdiv@dividend 0074  
   __end_of_divisiondecimal 0F64                      _ANSELH 0189          MasterInit_I2C@frec 0026  
         __end_of_LCDstring 0C17              floTochar@valor 004B                      _SSPADD 0093  
                    _SSPCON 0014                      _SSPBUF 0013            __end_of___xxtofl 07D5  
             hexTochar@conv 0029            __end_of_dispCHAR 0BCF                      ___bmul 0BE3  
          __end_of_division 0D50                   ??___fladd 0020                   ??___awdiv 0076  
                 ??___flmul 002E                   ??___flsub 007A                   ??___fltol 0044  
                 ??___lldiv 0020                      _config 0C7E            ___awdiv@quotient 0022  
                 ??_initLCD 0075          __size_of__Umul8_16 0029                      saved_w 007E  
     __end_of_waitCondition 0BBF                ___xxtofl@arg 0022                ___xxtofl@exp 0021  
              ___xxtofl@val 0072     __end_of__initialization 001D    __size_of_MasterStart_I2C 0009  
                ___fltol@f1 0040      MasterReceive_I2C@valor 0073         ___bmul@multiplicand 0072  
            __pcstackCOMMON 0070               ?_interrupcion 0070              _MasterInit_I2C 0CCF  
        __size_of_floTochar 009C          __size_of_hexTochar 002C              _MasterSend_I2C 0BA7  
          ?_divisiondecimal 0024                  __pbssBANK0 0060          __size_of_cursorLCD 0023  
            _MasterStop_I2C 0B9E           __end_of__Umul8_16 07FE              ??_interrupcion 0070  
                __pmaintext 060A                     ?___bmul 0072                  __pintentry 0004  
                   ?_config 0070      __end_of_MasterInit_I2C 0D08                  _comandoLCD 0BCF  
                 ?___xxtofl 0072      __end_of_MasterSend_I2C 0BB2             floTochar@entero 0059  
                 ?_dispCHAR 0070                     _SSPCON2 0091                     _SSPSTAT 0094  
                __stringtab 0800                   ?_division 0024      __end_of_MasterStop_I2C 0BA7  
            hexTochar@valor 002D           __end_of_floTochar 1000             __size_of___bmul 0015  
         __end_of_hexTochar 0CCF                     ___fladd 0382                     ___awdiv 0E02  
         ??_MasterStart_I2C 0072                     ___flmul 0021                     ___flsub 0C5A  
                   ___fltol 0E6B                     ___lldiv 0D9A             __size_of_config 0025  
                   __ptext1 0D50                     __ptext2 0CA3                     __ptext3 0EE7  
                   __ptext4 0F64                     __ptext5 0D08                     __ptext6 0BE3  
                   __ptext7 0E02                     __ptext8 0719                     __ptext9 0E6B  
                   _initLCD 0D50             ?_MasterInit_I2C 0026           __end_of_cursorLCD 0C5A  
                ??___xxtofl 0076                  ??_dispCHAR 0072             ?_MasterSend_I2C 0070  
      end_of_initialization 001D                  ??_division 0077           _MasterReceive_I2C 0C17  
           ?_MasterStop_I2C 0070                   _LCDstring 0BF8          ?_MasterReceive_I2C 0070  
           ___lldiv@divisor 0072             ___lldiv@counter 0025         ??_MasterReceive_I2C 0072  
               ?_comandoLCD 0070                 ___fladd@grs 002B               ___xxtofl@sign 0020  
                 _TRISCbits 0087          MasterSend_I2C@dato 0072        __end_of_interrupcion 0B95  
 __end_of_MasterReceive_I2C 0C37                 ___flmul@grs 0035                  ?_LCDstring 0070  
                division@un 0024            hexTochar@centena 002F              __end_of___bmul 0BF8  
            __end_of_config 0CA3         start_initialization 000F              division@conteo 0026  
        divisiondecimal@dec 0025          divisiondecimal@div 0028         __size_of_comandoLCD 0014  
                  ??___bmul 0073                   __Umul8_16 07D5                    ??_config 007A  
    __size_of_waitCondition 000D                   ___fladd@a 0076                   ___fladd@b 0072  
     divisiondecimal@conteo 0027                   ___flmul@a 002A                   ___flmul@b 0026  
               __pbssCOMMON 007A                   ___flsub@a 002C                   ___flsub@b 0030  
                 ___latbits 0002               __pcstackBANK0 0020           __size_of___xxtofl 00BC  
         __size_of_dispCHAR 0010  __size_of_MasterReceive_I2C 0020             _MasterStart_I2C 0B95  
         __size_of_division 0048                 ??_LCDstring 0074    __size_of_divisiondecimal 007D  
                  ?___fladd 0072                    ?___awdiv 0072                    ?___flmul 0026  
                  ?___flsub 002C                    ?___fltol 0040                    ?___lldiv 0072  
                ?__Umul8_16 0072            ??_MasterInit_I2C 002A                   _floTochar 0F64  
                 __pstrings 0800                   _hexTochar 0CA3            ??_MasterSend_I2C 0072  
     __size_of_interrupcion 0007                    ?_initLCD 0070            ??_MasterStop_I2C 0072  
                 _cursorLCD 0C37               _waitCondition 0BB2           interrupt_function 0004  
          floTochar@decimal 0058                   dispCHAR@b 0073                _interrupcion 0B8E  
                ?_floTochar 004B                  ?_hexTochar 0029                 __stringbase 0805  
              ??_comandoLCD 0072             hexTochar@decena 0030     __end_of_MasterStart_I2C 0B9E  
                ?_cursorLCD 0075              ?_waitCondition 0070             hexTochar@unidad 002E  
         divisiondecimal@un 0024          __end_of_comandoLCD 0BE3         floTochar@digdecimal 005A  
               ??__Umul8_16 0074            __size_of___fladd 0288            __size_of___awdiv 0069  
          __size_of___flmul 0361            __size_of___flsub 0024            __size_of___fltol 007C  
          __size_of___lldiv 0068           ??_divisiondecimal 0077          __end_of__stringtab 0806  
          __size_of_initLCD 004A                    ___xxtofl 0719                    _dispCHAR 0BBF  
                  __ptext10 0C5A                    __ptext11 0382                    __ptext20 0B95  
                  __ptext12 0021                    __ptext21 0BA7                    __ptext13 07D5  
                  __ptext22 0C17                    __ptext14 0C37                    __ptext23 0BB2  
                  __ptext15 0BCF                    __ptext24 0BF8                    __ptext16 0C7E  
                  __ptext25 0BBF                    __ptext17 0CCF                    __ptext26 0B8E  
                  __ptext18 0D9A                    __ptext19 0B9E            LCDstring@mensaje 0075  
                  _division 0D08               __size_of_main 010F               cursorLCD@fila 0077  
             cursorLCD@temp 0078                 ??_floTochar 0050                 ??_hexTochar 002A  
           ??_waitCondition 0072            ?_MasterStart_I2C 0070                 ??_cursorLCD 0076  
                  intlevel1 0000            ___lldiv@dividend 0076                   stringcode 0800  
                _OSCCONbits 008F            cursorLCD@columna 0075      __Umul8_16@multiplicand 0072  
          ___lldiv@quotient 0021                    stringdir 0800                    stringtab 0800  
               _SSPCON2bits 0091               ___fladd@signs 0028                ___fladd@aexp 0029  
              ___fladd@bexp 002A        __Umul8_16@multiplier 0024           __Umul8_16@product 0020  
             comandoLCD@cmd 0074  
