

Microchip MPLAB XC8 Assembler V2.31 build 20201012212115 
                                                                                               Wed Aug 04 20:25:16 2021

Microchip MPLAB XC8 C Compiler v2.31 (Free license) build 20201012212115 Og1 
     1                           	processor	16F887
     2                           	pagewidth 120
     3                           	opt	flic
     4                           	psect	strings,global,class=STRING,delta=2,noexec
     5                           	psect	cinit,global,class=CODE,merge=1,delta=2
     6                           	psect	bssBANK0,global,class=BANK0,space=1,delta=1,noexec
     7                           	psect	cstackCOMMON,global,class=COMMON,space=1,delta=1,noexec
     8                           	psect	cstackBANK0,global,class=BANK0,space=1,delta=1,noexec
     9                           	psect	maintext,global,class=CODE,split=1,delta=2
    10                           	psect	text1,local,class=CODE,merge=1,delta=2
    11                           	psect	text2,local,class=CODE,merge=1,delta=2
    12                           	psect	text3,local,class=CODE,merge=1,delta=2
    13                           	psect	text4,local,class=CODE,merge=1,delta=2,group=1
    14                           	psect	text5,local,class=CODE,merge=1,delta=2,group=1
    15                           	psect	text6,local,class=CODE,merge=1,delta=2,group=1
    16                           	psect	text7,local,class=CODE,merge=1,delta=2,group=1
    17                           	psect	text8,local,class=CODE,merge=1,delta=2,group=1
    18                           	psect	text9,local,class=CODE,merge=1,delta=2,group=1
    19                           	psect	text10,local,class=CODE,merge=1,delta=2,group=1
    20                           	psect	text11,local,class=CODE,merge=1,delta=2,group=1
    21                           	psect	text12,local,class=CODE,merge=1,delta=2
    22                           	psect	text13,local,class=CODE,merge=1,delta=2
    23                           	psect	text14,local,class=CODE,merge=1,delta=2
    24                           	psect	text15,local,class=CODE,merge=1,delta=2
    25                           	psect	text16,local,class=CODE,merge=1,delta=2,group=1
    26                           	psect	text17,local,class=CODE,merge=1,delta=2
    27                           	psect	text18,local,class=CODE,merge=1,delta=2
    28                           	psect	text19,local,class=CODE,merge=1,delta=2
    29                           	psect	text20,local,class=CODE,merge=1,delta=2
    30                           	psect	text21,local,class=CODE,merge=1,delta=2
    31                           	psect	text22,local,class=CODE,merge=1,delta=2
    32                           	psect	text23,local,class=CODE,merge=1,delta=2
    33                           	psect	text24,local,class=CODE,merge=1,delta=2
    34                           	psect	intentry,global,class=CODE,delta=2
    35                           	psect	config,global,abs,ovrld,class=CONFIG,space=4,delta=2,noexec
    36                           	dabs	1,0x7E,2
    37  0000                     
    38                           ; Version 2.20
    39                           ; Generated 12/02/2020 GMT
    40                           ; 
    41                           ; Copyright © 2020, Microchip Technology Inc. and its subsidiaries ("Microchip")
    42                           ; All rights reserved.
    43                           ; 
    44                           ; This software is developed by Microchip Technology Inc. and its subsidiaries ("Microch
      +                          ip").
    45                           ; 
    46                           ; Redistribution and use in source and binary forms, with or without modification, are
    47                           ; permitted provided that the following conditions are met:
    48                           ; 
    49                           ;     1. Redistributions of source code must retain the above copyright notice, this lis
      +                          t of
    50                           ;        conditions and the following disclaimer.
    51                           ; 
    52                           ;     2. Redistributions in binary form must reproduce the above copyright notice, this 
      +                          list
    53                           ;        of conditions and the following disclaimer in the documentation and/or other
    54                           ;        materials provided with the distribution.
    55                           ; 
    56                           ;     3. Microchip's name may not be used to endorse or promote products derived from th
      +                          is
    57                           ;        software without specific prior written permission.
    58                           ; 
    59                           ; THIS SOFTWARE IS PROVIDED BY MICROCHIP "AS IS" AND ANY EXPRESS OR IMPLIED WARRANTIES,
    60                           ; INCLUDING, BUT NOT LIMITED TO, THE IMPLIED WARRANTIES OF MERCHANTABILITY AND FITNESS F
      +                          OR
    61                           ; PURPOSE ARE DISCLAIMED.  IN NO EVENT SHALL MICROCHIP BE LIABLE FOR ANY DIRECT, INDIREC
      +                          T,
    62                           ; INCIDENTAL, SPECIAL, EXEMPLARY, OR CONSEQUENTIAL DAMAGES (INCLUDING BUT NOT LIMITED TO
    63                           ; PROCUREMENT OF SUBSTITUTE GOODS OR SERVICES; LOSS OF USE, DATA OR PROFITS; OR BUSINESS
    64                           ; INTERRUPTION) HOWSOEVER CAUSED AND ON ANY THEORY OF LIABILITY, WHETHER IN CONTRACT, ST
      +                          RICT
    65                           ; LIABILITY, OR TORT (INCLUDING NEGLIGENCE OR OTHERWISE) ARISING IN ANY WAY OUT OF THE U
      +                          SE OF
    66                           ; THIS SOFTWARE, EVEN IF ADVISED OF THE POSSIBILITY OF SUCH DAMAGE.
    67                           ; 
    68                           ; 
    69                           ; Code-generator required, PIC16F887 Definitions
    70                           ; 
    71                           ; SFR Addresses
    72  0000                     	;# 
    73  0001                     	;# 
    74  0002                     	;# 
    75  0003                     	;# 
    76  0004                     	;# 
    77  0005                     	;# 
    78  0006                     	;# 
    79  0007                     	;# 
    80  0008                     	;# 
    81  0009                     	;# 
    82  000A                     	;# 
    83  000B                     	;# 
    84  000C                     	;# 
    85  000D                     	;# 
    86  000E                     	;# 
    87  000E                     	;# 
    88  000F                     	;# 
    89  0010                     	;# 
    90  0011                     	;# 
    91  0012                     	;# 
    92  0013                     	;# 
    93  0014                     	;# 
    94  0015                     	;# 
    95  0015                     	;# 
    96  0016                     	;# 
    97  0017                     	;# 
    98  0018                     	;# 
    99  0019                     	;# 
   100  001A                     	;# 
   101  001B                     	;# 
   102  001B                     	;# 
   103  001C                     	;# 
   104  001D                     	;# 
   105  001E                     	;# 
   106  001F                     	;# 
   107  0081                     	;# 
   108  0085                     	;# 
   109  0086                     	;# 
   110  0087                     	;# 
   111  0088                     	;# 
   112  0089                     	;# 
   113  008C                     	;# 
   114  008D                     	;# 
   115  008E                     	;# 
   116  008F                     	;# 
   117  0090                     	;# 
   118  0091                     	;# 
   119  0092                     	;# 
   120  0093                     	;# 
   121  0093                     	;# 
   122  0093                     	;# 
   123  0094                     	;# 
   124  0095                     	;# 
   125  0096                     	;# 
   126  0097                     	;# 
   127  0098                     	;# 
   128  0099                     	;# 
   129  009A                     	;# 
   130  009B                     	;# 
   131  009C                     	;# 
   132  009D                     	;# 
   133  009E                     	;# 
   134  009F                     	;# 
   135  0105                     	;# 
   136  0107                     	;# 
   137  0108                     	;# 
   138  0109                     	;# 
   139  010C                     	;# 
   140  010C                     	;# 
   141  010D                     	;# 
   142  010E                     	;# 
   143  010F                     	;# 
   144  0185                     	;# 
   145  0187                     	;# 
   146  0188                     	;# 
   147  0189                     	;# 
   148  018C                     	;# 
   149  018D                     	;# 
   150  0000                     	;# 
   151  0001                     	;# 
   152  0002                     	;# 
   153  0003                     	;# 
   154  0004                     	;# 
   155  0005                     	;# 
   156  0006                     	;# 
   157  0007                     	;# 
   158  0008                     	;# 
   159  0009                     	;# 
   160  000A                     	;# 
   161  000B                     	;# 
   162  000C                     	;# 
   163  000D                     	;# 
   164  000E                     	;# 
   165  000E                     	;# 
   166  000F                     	;# 
   167  0010                     	;# 
   168  0011                     	;# 
   169  0012                     	;# 
   170  0013                     	;# 
   171  0014                     	;# 
   172  0015                     	;# 
   173  0015                     	;# 
   174  0016                     	;# 
   175  0017                     	;# 
   176  0018                     	;# 
   177  0019                     	;# 
   178  001A                     	;# 
   179  001B                     	;# 
   180  001B                     	;# 
   181  001C                     	;# 
   182  001D                     	;# 
   183  001E                     	;# 
   184  001F                     	;# 
   185  0081                     	;# 
   186  0085                     	;# 
   187  0086                     	;# 
   188  0087                     	;# 
   189  0088                     	;# 
   190  0089                     	;# 
   191  008C                     	;# 
   192  008D                     	;# 
   193  008E                     	;# 
   194  008F                     	;# 
   195  0090                     	;# 
   196  0091                     	;# 
   197  0092                     	;# 
   198  0093                     	;# 
   199  0093                     	;# 
   200  0093                     	;# 
   201  0094                     	;# 
   202  0095                     	;# 
   203  0096                     	;# 
   204  0097                     	;# 
   205  0098                     	;# 
   206  0099                     	;# 
   207  009A                     	;# 
   208  009B                     	;# 
   209  009C                     	;# 
   210  009D                     	;# 
   211  009E                     	;# 
   212  009F                     	;# 
   213  0105                     	;# 
   214  0107                     	;# 
   215  0108                     	;# 
   216  0109                     	;# 
   217  010C                     	;# 
   218  010C                     	;# 
   219  010D                     	;# 
   220  010E                     	;# 
   221  010F                     	;# 
   222  0185                     	;# 
   223  0187                     	;# 
   224  0188                     	;# 
   225  0189                     	;# 
   226  018C                     	;# 
   227  018D                     	;# 
   228  0000                     	;# 
   229  0001                     	;# 
   230  0002                     	;# 
   231  0003                     	;# 
   232  0004                     	;# 
   233  0005                     	;# 
   234  0006                     	;# 
   235  0007                     	;# 
   236  0008                     	;# 
   237  0009                     	;# 
   238  000A                     	;# 
   239  000B                     	;# 
   240  000C                     	;# 
   241  000D                     	;# 
   242  000E                     	;# 
   243  000E                     	;# 
   244  000F                     	;# 
   245  0010                     	;# 
   246  0011                     	;# 
   247  0012                     	;# 
   248  0013                     	;# 
   249  0014                     	;# 
   250  0015                     	;# 
   251  0015                     	;# 
   252  0016                     	;# 
   253  0017                     	;# 
   254  0018                     	;# 
   255  0019                     	;# 
   256  001A                     	;# 
   257  001B                     	;# 
   258  001B                     	;# 
   259  001C                     	;# 
   260  001D                     	;# 
   261  001E                     	;# 
   262  001F                     	;# 
   263  0081                     	;# 
   264  0085                     	;# 
   265  0086                     	;# 
   266  0087                     	;# 
   267  0088                     	;# 
   268  0089                     	;# 
   269  008C                     	;# 
   270  008D                     	;# 
   271  008E                     	;# 
   272  008F                     	;# 
   273  0090                     	;# 
   274  0091                     	;# 
   275  0092                     	;# 
   276  0093                     	;# 
   277  0093                     	;# 
   278  0093                     	;# 
   279  0094                     	;# 
   280  0095                     	;# 
   281  0096                     	;# 
   282  0097                     	;# 
   283  0098                     	;# 
   284  0099                     	;# 
   285  009A                     	;# 
   286  009B                     	;# 
   287  009C                     	;# 
   288  009D                     	;# 
   289  009E                     	;# 
   290  009F                     	;# 
   291  0105                     	;# 
   292  0107                     	;# 
   293  0108                     	;# 
   294  0109                     	;# 
   295  010C                     	;# 
   296  010C                     	;# 
   297  010D                     	;# 
   298  010E                     	;# 
   299  010F                     	;# 
   300  0185                     	;# 
   301  0187                     	;# 
   302  0188                     	;# 
   303  0189                     	;# 
   304  018C                     	;# 
   305  018D                     	;# 
   306  0000                     	;# 
   307  0001                     	;# 
   308  0002                     	;# 
   309  0003                     	;# 
   310  0004                     	;# 
   311  0005                     	;# 
   312  0006                     	;# 
   313  0007                     	;# 
   314  0008                     	;# 
   315  0009                     	;# 
   316  000A                     	;# 
   317  000B                     	;# 
   318  000C                     	;# 
   319  000D                     	;# 
   320  000E                     	;# 
   321  000E                     	;# 
   322  000F                     	;# 
   323  0010                     	;# 
   324  0011                     	;# 
   325  0012                     	;# 
   326  0013                     	;# 
   327  0014                     	;# 
   328  0015                     	;# 
   329  0015                     	;# 
   330  0016                     	;# 
   331  0017                     	;# 
   332  0018                     	;# 
   333  0019                     	;# 
   334  001A                     	;# 
   335  001B                     	;# 
   336  001B                     	;# 
   337  001C                     	;# 
   338  001D                     	;# 
   339  001E                     	;# 
   340  001F                     	;# 
   341  0081                     	;# 
   342  0085                     	;# 
   343  0086                     	;# 
   344  0087                     	;# 
   345  0088                     	;# 
   346  0089                     	;# 
   347  008C                     	;# 
   348  008D                     	;# 
   349  008E                     	;# 
   350  008F                     	;# 
   351  0090                     	;# 
   352  0091                     	;# 
   353  0092                     	;# 
   354  0093                     	;# 
   355  0093                     	;# 
   356  0093                     	;# 
   357  0094                     	;# 
   358  0095                     	;# 
   359  0096                     	;# 
   360  0097                     	;# 
   361  0098                     	;# 
   362  0099                     	;# 
   363  009A                     	;# 
   364  009B                     	;# 
   365  009C                     	;# 
   366  009D                     	;# 
   367  009E                     	;# 
   368  009F                     	;# 
   369  0105                     	;# 
   370  0107                     	;# 
   371  0108                     	;# 
   372  0109                     	;# 
   373  010C                     	;# 
   374  010C                     	;# 
   375  010D                     	;# 
   376  010E                     	;# 
   377  010F                     	;# 
   378  0185                     	;# 
   379  0187                     	;# 
   380  0188                     	;# 
   381  0189                     	;# 
   382  018C                     	;# 
   383  018D                     	;# 
   384  0013                     _SSPBUF	set	19
   385  0014                     _SSPCON	set	20
   386  0009                     _PORTE	set	9
   387  0008                     _PORTD	set	8
   388  0006                     _PORTB	set	6
   389  0005                     _PORTA	set	5
   390  0049                     _RE1	set	73
   391  0048                     _RE0	set	72
   392  0091                     _SSPCON2bits	set	145
   393  0087                     _TRISCbits	set	135
   394  0093                     _SSPADD	set	147
   395  0094                     _SSPSTAT	set	148
   396  0091                     _SSPCON2	set	145
   397  0089                     _TRISE	set	137
   398  0088                     _TRISD	set	136
   399  0086                     _TRISB	set	134
   400  0085                     _TRISA	set	133
   401  0189                     _ANSELH	set	393
   402  0188                     _ANSEL	set	392
   403                           
   404                           	psect	strings
   405  0800                     __pstrings:
   406  0800                     stringtab:
   407  0800                     __stringtab:
   408  0800                     stringcode:	
   409                           ;	String table - string pointers are 1 byte each
   410                           
   411  0800                     stringdir:
   412  0800  3008               	movlw	high stringdir
   413  0801  008A               	movwf	10
   414  0802  0804               	movf	4,w
   415  0803  0A84               	incf	4,f
   416  0804  0782               	addwf	2,f
   417  0805                     __stringbase:
   418  0805  3400               	retlw	0
   419  0806                     __end_of__stringtab:
   420  0806                     STR_1:
   421  0806  3453               	retlw	83	;'S'
   422  0807  3431               	retlw	49	;'1'
   423  0808  343A               	retlw	58	;':'
   424  0809  3420               	retlw	32	;' '
   425  080A  3420               	retlw	32	;' '
   426  080B  3420               	retlw	32	;' '
   427  080C  3453               	retlw	83	;'S'
   428  080D  3432               	retlw	50	;'2'
   429  080E  343A               	retlw	58	;':'
   430  080F  3420               	retlw	32	;' '
   431  0810  3420               	retlw	32	;' '
   432  0811  3420               	retlw	32	;' '
   433  0812  3453               	retlw	83	;'S'
   434  0813  3433               	retlw	51	;'3'
   435  0814  343A               	retlw	58	;':'
   436  0815  3400               	retlw	0
   437                           
   438                           	psect	cinit
   439  000F                     start_initialization:	
   440                           ; #config settings
   441                           
   442  000F                     __initialization:
   443                           
   444                           ; Clear objects allocated to BANK0
   445  000F  1283               	bcf	3,5	;RP0=0, select bank0
   446  0010  1303               	bcf	3,6	;RP1=0, select bank0
   447  0011  01E0               	clrf	__pbssBANK0& (0+127)
   448  0012  01E1               	clrf	(__pbssBANK0+1)& (0+127)
   449  0013  01E2               	clrf	(__pbssBANK0+2)& (0+127)
   450  0014  01E3               	clrf	(__pbssBANK0+3)& (0+127)
   451  0015  01E4               	clrf	(__pbssBANK0+4)& (0+127)
   452  0016  01E5               	clrf	(__pbssBANK0+5)& (0+127)
   453  0017  01E6               	clrf	(__pbssBANK0+6)& (0+127)
   454  0018  01E7               	clrf	(__pbssBANK0+7)& (0+127)
   455  0019                     end_of_initialization:	
   456                           ;End of C runtime variable initialization code
   457                           
   458  0019                     __end_of__initialization:
   459  0019  0183               	clrf	3
   460  001A  120A  118A  2E06   	ljmp	_main	;jump to C main() function
   461                           
   462                           	psect	bssBANK0
   463  0060                     __pbssBANK0:
   464  0060                     _lect1:
   465  0060                     	ds	4
   466  0064                     _disp1:
   467  0064                     	ds	3
   468  0067                     _DatS1:
   469  0067                     	ds	1
   470                           
   471                           	psect	cstackCOMMON
   472  0070                     __pcstackCOMMON:
   473  0070                     ?_config:
   474  0070                     ?_initLCD:	
   475                           ; 1 bytes @ 0x0
   476                           
   477  0070                     ?_MasterStart_I2C:	
   478                           ; 1 bytes @ 0x0
   479                           
   480  0070                     ?_MasterSend_I2C:	
   481                           ; 1 bytes @ 0x0
   482                           
   483  0070                     ?_MasterReceive_I2C:	
   484                           ; 1 bytes @ 0x0
   485                           
   486  0070                     ?_MasterStop_I2C:	
   487                           ; 1 bytes @ 0x0
   488                           
   489  0070                     ?_LCDstring:	
   490                           ; 1 bytes @ 0x0
   491                           
   492  0070                     ?_dispCHAR:	
   493                           ; 1 bytes @ 0x0
   494                           
   495  0070                     ?_comandoLCD:	
   496                           ; 1 bytes @ 0x0
   497                           
   498  0070                     ?_interrupcion:	
   499                           ; 1 bytes @ 0x0
   500                           
   501  0070                     ??_interrupcion:	
   502                           ; 1 bytes @ 0x0
   503                           
   504  0070                     ?_main:	
   505                           ; 1 bytes @ 0x0
   506                           
   507  0070                     ?_waitCondition:	
   508                           ; 1 bytes @ 0x0
   509                           
   510                           
   511                           ; 1 bytes @ 0x0
   512  0070                     	ds	2
   513  0072                     ??_MasterStart_I2C:
   514  0072                     ??_MasterSend_I2C:	
   515                           ; 1 bytes @ 0x2
   516                           
   517  0072                     ??_MasterReceive_I2C:	
   518                           ; 1 bytes @ 0x2
   519                           
   520  0072                     ??_MasterStop_I2C:	
   521                           ; 1 bytes @ 0x2
   522                           
   523  0072                     ??_dispCHAR:	
   524                           ; 1 bytes @ 0x2
   525                           
   526  0072                     ??_comandoLCD:	
   527                           ; 1 bytes @ 0x2
   528                           
   529  0072                     ??_waitCondition:	
   530                           ; 1 bytes @ 0x2
   531                           
   532  0072                     ?___bmul:	
   533                           ; 1 bytes @ 0x2
   534                           
   535  0072                     ?__Umul8_16:	
   536                           ; 1 bytes @ 0x2
   537                           
   538  0072                     ?___awdiv:	
   539                           ; 2 bytes @ 0x2
   540                           
   541  0072                     ?___lldiv:	
   542                           ; 2 bytes @ 0x2
   543                           
   544  0072                     ?___fladd:	
   545                           ; 4 bytes @ 0x2
   546                           
   547  0072                     ?___xxtofl:	
   548                           ; 4 bytes @ 0x2
   549                           
   550  0072                     MasterSend_I2C@dato:	
   551                           ; 4 bytes @ 0x2
   552                           
   553  0072                     ___bmul@multiplicand:	
   554                           ; 1 bytes @ 0x2
   555                           
   556  0072                     __Umul8_16@multiplicand:	
   557                           ; 1 bytes @ 0x2
   558                           
   559  0072                     ___awdiv@divisor:	
   560                           ; 1 bytes @ 0x2
   561                           
   562  0072                     ___lldiv@divisor:	
   563                           ; 2 bytes @ 0x2
   564                           
   565  0072                     ___fladd@b:	
   566                           ; 4 bytes @ 0x2
   567                           
   568  0072                     ___xxtofl@val:	
   569                           ; 4 bytes @ 0x2
   570                           
   571                           
   572                           ; 4 bytes @ 0x2
   573  0072                     	ds	1
   574  0073                     ??___bmul:
   575  0073                     MasterReceive_I2C@valor:	
   576                           ; 1 bytes @ 0x3
   577                           
   578  0073                     dispCHAR@b:	
   579                           ; 1 bytes @ 0x3
   580                           
   581                           
   582                           ; 1 bytes @ 0x3
   583  0073                     	ds	1
   584  0074                     ??_LCDstring:
   585  0074                     ??__Umul8_16:	
   586                           ; 1 bytes @ 0x4
   587                           
   588  0074                     comandoLCD@cmd:	
   589                           ; 1 bytes @ 0x4
   590                           
   591  0074                     ___bmul@product:	
   592                           ; 1 bytes @ 0x4
   593                           
   594  0074                     ___awdiv@dividend:	
   595                           ; 1 bytes @ 0x4
   596                           
   597                           
   598                           ; 2 bytes @ 0x4
   599  0074                     	ds	1
   600  0075                     ??_initLCD:
   601  0075                     ?_cursorLCD:	
   602                           ; 1 bytes @ 0x5
   603                           
   604  0075                     cursorLCD@columna:	
   605                           ; 1 bytes @ 0x5
   606                           
   607  0075                     LCDstring@mensaje:	
   608                           ; 1 bytes @ 0x5
   609                           
   610  0075                     ___bmul@multiplier:	
   611                           ; 1 bytes @ 0x5
   612                           
   613                           
   614                           ; 1 bytes @ 0x5
   615  0075                     	ds	1
   616  0076                     ??_cursorLCD:
   617  0076                     ??___awdiv:	
   618                           ; 1 bytes @ 0x6
   619                           
   620  0076                     ??___xxtofl:	
   621                           ; 1 bytes @ 0x6
   622                           
   623  0076                     __Umul8_16@product:	
   624                           ; 1 bytes @ 0x6
   625                           
   626  0076                     ___lldiv@dividend:	
   627                           ; 2 bytes @ 0x6
   628                           
   629  0076                     ___fladd@a:	
   630                           ; 4 bytes @ 0x6
   631                           
   632                           
   633                           ; 4 bytes @ 0x6
   634  0076                     	ds	1
   635  0077                     cursorLCD@fila:
   636  0077                     ___awdiv@counter:	
   637                           ; 1 bytes @ 0x7
   638                           
   639                           
   640                           ; 1 bytes @ 0x7
   641  0077                     	ds	1
   642  0078                     cursorLCD@temp:
   643  0078                     ___awdiv@sign:	
   644                           ; 1 bytes @ 0x8
   645                           
   646  0078                     __Umul8_16@word_mpld:	
   647                           ; 1 bytes @ 0x8
   648                           
   649                           
   650                           ; 2 bytes @ 0x8
   651  0078                     	ds	1
   652  0079                     ___awdiv@quotient:
   653                           
   654                           ; 2 bytes @ 0x9
   655  0079                     	ds	1
   656  007A                     ??___lldiv:
   657  007A                     ??___flsub:	
   658                           ; 1 bytes @ 0xA
   659                           
   660  007A                     __Umul8_16@multiplier:	
   661                           ; 1 bytes @ 0xA
   662                           
   663                           
   664                           ; 1 bytes @ 0xA
   665  007A                     	ds	1
   666  007B                     ??_config:
   667                           
   668                           	psect	cstackBANK0
   669  0020                     __pcstackBANK0:	
   670                           ; 1 bytes @ 0xB
   671                           
   672  0020                     ?_division:
   673  0020                     ??___fladd:	
   674                           ; 1 bytes @ 0x0
   675                           
   676  0020                     division@un:	
   677                           ; 1 bytes @ 0x0
   678                           
   679  0020                     ___xxtofl@sign:	
   680                           ; 1 bytes @ 0x0
   681                           
   682  0020                     ___lldiv@quotient:	
   683                           ; 1 bytes @ 0x0
   684                           
   685                           
   686                           ; 4 bytes @ 0x0
   687  0020                     	ds	1
   688  0021                     division@dec:
   689  0021                     ___xxtofl@exp:	
   690                           ; 1 bytes @ 0x1
   691                           
   692                           
   693                           ; 1 bytes @ 0x1
   694  0021                     	ds	1
   695  0022                     ??_division:
   696  0022                     ___xxtofl@arg:	
   697                           ; 1 bytes @ 0x2
   698                           
   699                           
   700                           ; 4 bytes @ 0x2
   701  0022                     	ds	2
   702  0024                     ___lldiv@counter:
   703                           
   704                           ; 1 bytes @ 0x4
   705  0024                     	ds	1
   706  0025                     ?_MasterInit_I2C:
   707  0025                     division@conteo:	
   708                           ; 1 bytes @ 0x5
   709                           
   710  0025                     MasterInit_I2C@frec:	
   711                           ; 1 bytes @ 0x5
   712                           
   713                           
   714                           ; 4 bytes @ 0x5
   715  0025                     	ds	1
   716  0026                     ?___flmul:
   717  0026                     division@div:	
   718                           ; 4 bytes @ 0x6
   719                           
   720  0026                     ___flmul@b:	
   721                           ; 1 bytes @ 0x6
   722                           
   723                           
   724                           ; 4 bytes @ 0x6
   725  0026                     	ds	2
   726  0028                     ___fladd@signs:
   727                           
   728                           ; 1 bytes @ 0x8
   729  0028                     	ds	1
   730  0029                     ??_MasterInit_I2C:
   731  0029                     ___fladd@aexp:	
   732                           ; 1 bytes @ 0x9
   733                           
   734                           
   735                           ; 1 bytes @ 0x9
   736  0029                     	ds	1
   737  002A                     ___fladd@bexp:
   738  002A                     ___flmul@a:	
   739                           ; 1 bytes @ 0xA
   740                           
   741                           
   742                           ; 4 bytes @ 0xA
   743  002A                     	ds	1
   744  002B                     ___fladd@grs:
   745                           
   746                           ; 1 bytes @ 0xB
   747  002B                     	ds	1
   748  002C                     ?___flsub:
   749  002C                     ___flsub@a:	
   750                           ; 4 bytes @ 0xC
   751                           
   752                           
   753                           ; 4 bytes @ 0xC
   754  002C                     	ds	2
   755  002E                     ??___flmul:
   756                           
   757                           ; 1 bytes @ 0xE
   758  002E                     	ds	2
   759  0030                     ___flsub@b:
   760                           
   761                           ; 4 bytes @ 0x10
   762  0030                     	ds	3
   763  0033                     ___flmul@sign:
   764                           
   765                           ; 1 bytes @ 0x13
   766  0033                     	ds	1
   767  0034                     ___flmul@grs:
   768                           
   769                           ; 4 bytes @ 0x14
   770  0034                     	ds	4
   771  0038                     ___flmul@aexp:
   772                           
   773                           ; 1 bytes @ 0x18
   774  0038                     	ds	1
   775  0039                     ___flmul@bexp:
   776                           
   777                           ; 1 bytes @ 0x19
   778  0039                     	ds	1
   779  003A                     ___flmul@prod:
   780                           
   781                           ; 4 bytes @ 0x1A
   782  003A                     	ds	4
   783  003E                     ___flmul@temp:
   784                           
   785                           ; 2 bytes @ 0x1E
   786  003E                     	ds	2
   787  0040                     ?___fltol:
   788  0040                     ___fltol@f1:	
   789                           ; 4 bytes @ 0x20
   790                           
   791                           
   792                           ; 4 bytes @ 0x20
   793  0040                     	ds	4
   794  0044                     ??___fltol:
   795                           
   796                           ; 1 bytes @ 0x24
   797  0044                     	ds	5
   798  0049                     ___fltol@sign1:
   799                           
   800                           ; 1 bytes @ 0x29
   801  0049                     	ds	1
   802  004A                     ___fltol@exp1:
   803                           
   804                           ; 1 bytes @ 0x2A
   805  004A                     	ds	1
   806  004B                     ?_floTochar:
   807  004B                     floTochar@valor:	
   808                           ; 1 bytes @ 0x2B
   809                           
   810                           
   811                           ; 4 bytes @ 0x2B
   812  004B                     	ds	4
   813  004F                     floTochar@conv:
   814                           
   815                           ; 1 bytes @ 0x2F
   816  004F                     	ds	1
   817  0050                     ??_floTochar:
   818                           
   819                           ; 1 bytes @ 0x30
   820  0050                     	ds	4
   821  0054                     floTochar@temp:
   822                           
   823                           ; 4 bytes @ 0x34
   824  0054                     	ds	4
   825  0058                     floTochar@decimal:
   826                           
   827                           ; 1 bytes @ 0x38
   828  0058                     	ds	1
   829  0059                     floTochar@entero:
   830                           
   831                           ; 1 bytes @ 0x39
   832  0059                     	ds	1
   833  005A                     floTochar@digdecimal:
   834                           
   835                           ; 2 bytes @ 0x3A
   836  005A                     	ds	2
   837  005C                     ??_main:
   838                           
   839                           ; 1 bytes @ 0x3C
   840  005C                     	ds	4
   841                           
   842                           	psect	maintext
   843  0606                     __pmaintext:	
   844 ;;
   845 ;;Main: autosize = 0, tempsize = 4, incstack = 0, save=0
   846 ;;
   847 ;; *************** function _main *****************
   848 ;; Defined at:
   849 ;;		line 55 in file "main.c"
   850 ;; Parameters:    Size  Location     Type
   851 ;;		None
   852 ;; Auto vars:     Size  Location     Type
   853 ;;		None
   854 ;; Return value:  Size  Location     Type
   855 ;;                  1    wreg      void 
   856 ;; Registers used:
   857 ;;		wreg, fsr0l, fsr0h, status,2, status,0, btemp+1, pclath, cstack
   858 ;; Tracked objects:
   859 ;;		On entry : B00/0
   860 ;;		On exit  : 0/0
   861 ;;		Unchanged: 0/0
   862 ;; Data sizes:     COMMON   BANK0   BANK1   BANK3   BANK2
   863 ;;      Params:         0       0       0       0       0
   864 ;;      Locals:         0       0       0       0       0
   865 ;;      Temps:          0       4       0       0       0
   866 ;;      Totals:         0       4       0       0       0
   867 ;;Total ram usage:        4 bytes
   868 ;; Hardware stack levels required when called:    4
   869 ;; This function calls:
   870 ;;		_LCDstring
   871 ;;		_MasterReceive_I2C
   872 ;;		_MasterSend_I2C
   873 ;;		_MasterStart_I2C
   874 ;;		_MasterStop_I2C
   875 ;;		___flmul
   876 ;;		___xxtofl
   877 ;;		_config
   878 ;;		_cursorLCD
   879 ;;		_dispCHAR
   880 ;;		_floTochar
   881 ;;		_initLCD
   882 ;; This function is called by:
   883 ;;		Startup code after reset
   884 ;; This function uses a non-reentrant model
   885 ;;
   886                           
   887                           
   888                           ;psect for function _main
   889  0606                     _main:
   890  0606                     l2068:	
   891                           ;incstack = 0
   892                           ; Regs used in _main: [wreg-fsr0h+status,2+status,0+btemp+1+pclath+cstack]
   893                           
   894                           
   895                           ;main.c: 56:     config();
   896  0606  120A  158A  24EA  120A  118A  	fcall	_config
   897                           
   898                           ;main.c: 57:     initLCD();
   899  060B  120A  158A  2637  120A  118A  	fcall	_initLCD
   900  0610                     l62:	
   901                           ;main.c: 58:     while(1){
   902                           
   903                           
   904                           ;main.c: 59:         MasterStart_I2C();
   905  0610  120A  158A  2497  120A  118A  	fcall	_MasterStart_I2C
   906                           
   907                           ;main.c: 60:         MasterSend_I2C(0X21);
   908  0615  3021               	movlw	33
   909  0616  120A  158A  24A9  120A  118A  	fcall	_MasterSend_I2C
   910  061B                     l2070:
   911                           
   912                           ;main.c: 61:         MasterReceive_I2C(&DatS1);
   913  061B  3067               	movlw	(low (_DatS1| 0))& (0+255)
   914  061C  120A  158A  2527  120A  118A  	fcall	_MasterReceive_I2C
   915  0621                     l2072:
   916                           
   917                           ;main.c: 62:         MasterStop_I2C();
   918  0621  120A  158A  24A0  120A  118A  	fcall	_MasterStop_I2C
   919  0626                     l2074:
   920                           
   921                           ;main.c: 63:         _delay((unsigned long)((100)*(8000000/4000.0)));
   922  0626  3002               	movlw	2
   923  0627  1283               	bcf	3,5	;RP0=0, select bank0
   924  0628  1303               	bcf	3,6	;RP1=0, select bank0
   925  0629  00DE               	movwf	??_main+2
   926  062A  3004               	movlw	4
   927  062B  00DD               	movwf	??_main+1
   928  062C  30B9               	movlw	185
   929  062D  00DC               	movwf	??_main
   930  062E                     u2737:
   931  062E  0BDC               	decfsz	??_main,f
   932  062F  2E2E               	goto	u2737
   933  0630  0BDD               	decfsz	??_main+1,f
   934  0631  2E2E               	goto	u2737
   935  0632  0BDE               	decfsz	??_main+2,f
   936  0633  2E2E               	goto	u2737
   937  0634  2E35               	nop2
   938  0635                     l2076:
   939                           
   940                           ;main.c: 65:         lect1 = (float)(0.01961)*(DatS1);
   941  0635  303C               	movlw	60
   942  0636  1283               	bcf	3,5	;RP0=0, select bank0
   943  0637  1303               	bcf	3,6	;RP1=0, select bank0
   944  0638  00A9               	movwf	___flmul@b+3
   945  0639  30A0               	movlw	160
   946  063A  00A8               	movwf	___flmul@b+2
   947  063B  30A5               	movlw	165
   948  063C  00A7               	movwf	___flmul@b+1
   949  063D  3027               	movlw	39
   950  063E  00A6               	movwf	___flmul@b
   951  063F  0867               	movf	_DatS1,w
   952  0640  00DC               	movwf	??_main
   953  0641  01DD               	clrf	??_main+1
   954  0642  01DE               	clrf	??_main+2
   955  0643  01DF               	clrf	??_main+3
   956  0644  085F               	movf	??_main+3,w
   957  0645  00F5               	movwf	___xxtofl@val+3
   958  0646  085E               	movf	??_main+2,w
   959  0647  00F4               	movwf	___xxtofl@val+2
   960  0648  085D               	movf	??_main+1,w
   961  0649  00F3               	movwf	___xxtofl@val+1
   962  064A  085C               	movf	??_main,w
   963  064B  00F2               	movwf	___xxtofl@val
   964  064C  3001               	movlw	1
   965  064D  120A  118A  26C9  120A  118A  	fcall	___xxtofl
   966  0652  0875               	movf	?___xxtofl+3,w
   967  0653  1283               	bcf	3,5	;RP0=0, select bank0
   968  0654  1303               	bcf	3,6	;RP1=0, select bank0
   969  0655  00AD               	movwf	___flmul@a+3
   970  0656  0874               	movf	?___xxtofl+2,w
   971  0657  00AC               	movwf	___flmul@a+2
   972  0658  0873               	movf	?___xxtofl+1,w
   973  0659  00AB               	movwf	___flmul@a+1
   974  065A  0872               	movf	?___xxtofl,w
   975  065B  00AA               	movwf	___flmul@a
   976  065C  120A  118A  201D  120A  118A  	fcall	___flmul
   977  0661  1283               	bcf	3,5	;RP0=0, select bank0
   978  0662  1303               	bcf	3,6	;RP1=0, select bank0
   979  0663  0829               	movf	?___flmul+3,w
   980  0664  00E3               	movwf	_lect1+3
   981  0665  0828               	movf	?___flmul+2,w
   982  0666  00E2               	movwf	_lect1+2
   983  0667  0827               	movf	?___flmul+1,w
   984  0668  00E1               	movwf	_lect1+1
   985  0669  0826               	movf	?___flmul,w
   986  066A  00E0               	movwf	_lect1
   987  066B                     l2078:
   988                           
   989                           ;main.c: 66:         _delay((unsigned long)((1)*(8000000/4000.0)));
   990  066B  3003               	movlw	3
   991  066C  1283               	bcf	3,5	;RP0=0, select bank0
   992  066D  1303               	bcf	3,6	;RP1=0, select bank0
   993  066E  00DD               	movwf	??_main+1
   994  066F  3097               	movlw	151
   995  0670  00DC               	movwf	??_main
   996  0671                     u2747:
   997  0671  0BDC               	decfsz	??_main,f
   998  0672  2E71               	goto	u2747
   999  0673  0BDD               	decfsz	??_main+1,f
  1000  0674  2E71               	goto	u2747
  1001  0675                     l2080:
  1002                           
  1003                           ;main.c: 68:         floTochar(lect1,&disp1);
  1004  0675  1283               	bcf	3,5	;RP0=0, select bank0
  1005  0676  1303               	bcf	3,6	;RP1=0, select bank0
  1006  0677  0863               	movf	_lect1+3,w
  1007  0678  00CE               	movwf	floTochar@valor+3
  1008  0679  0862               	movf	_lect1+2,w
  1009  067A  00CD               	movwf	floTochar@valor+2
  1010  067B  0861               	movf	_lect1+1,w
  1011  067C  00CC               	movwf	floTochar@valor+1
  1012  067D  0860               	movf	_lect1,w
  1013  067E  00CB               	movwf	floTochar@valor
  1014  067F  3064               	movlw	(low (_disp1| 0))& (0+255)
  1015  0680  00DC               	movwf	??_main
  1016  0681  085C               	movf	??_main,w
  1017  0682  00CF               	movwf	floTochar@conv
  1018  0683  120A  158A  2764  120A  118A  	fcall	_floTochar
  1019                           
  1020                           ;main.c: 69:         cursorLCD(1,1);
  1021  0688  01F5               	clrf	cursorLCD@columna
  1022  0689  0AF5               	incf	cursorLCD@columna,f
  1023  068A  3001               	movlw	1
  1024  068B  120A  158A  2548  120A  118A  	fcall	_cursorLCD
  1025  0690                     l2082:
  1026                           
  1027                           ;main.c: 70:         LCDstring("S1:   S2:   S3:");
  1028  0690  3001               	movlw	(low ((STR_1-__stringbase)| (0+32768)))& (0+255)
  1029  0691  120A  158A  2508  120A  118A  	fcall	_LCDstring
  1030  0696                     l2084:
  1031                           
  1032                           ;main.c: 71:         cursorLCD(2,1);
  1033  0696  01F5               	clrf	cursorLCD@columna
  1034  0697  0AF5               	incf	cursorLCD@columna,f
  1035  0698  3002               	movlw	2
  1036  0699  120A  158A  2548  120A  118A  	fcall	_cursorLCD
  1037  069E                     l2086:
  1038                           
  1039                           ;main.c: 72:         dispCHAR(disp1[0]+48);
  1040  069E  1283               	bcf	3,5	;RP0=0, select bank0
  1041  069F  1303               	bcf	3,6	;RP1=0, select bank0
  1042  06A0  0864               	movf	_disp1,w
  1043  06A1  3E30               	addlw	48
  1044  06A2  120A  118A  27ED  120A  118A  	fcall	_dispCHAR
  1045  06A7                     l2088:
  1046                           
  1047                           ;main.c: 73:         dispCHAR('.');
  1048  06A7  302E               	movlw	46
  1049  06A8  120A  118A  27ED  120A  118A  	fcall	_dispCHAR
  1050  06AD                     l2090:
  1051                           
  1052                           ;main.c: 74:         dispCHAR(disp1[1]+48);
  1053  06AD  1283               	bcf	3,5	;RP0=0, select bank0
  1054  06AE  1303               	bcf	3,6	;RP1=0, select bank0
  1055  06AF  0865               	movf	_disp1+1,w
  1056  06B0  3E30               	addlw	48
  1057  06B1  120A  118A  27ED  120A  118A  	fcall	_dispCHAR
  1058  06B6                     l2092:
  1059                           
  1060                           ;main.c: 75:         dispCHAR(disp1[2]+48);
  1061  06B6  1283               	bcf	3,5	;RP0=0, select bank0
  1062  06B7  1303               	bcf	3,6	;RP1=0, select bank0
  1063  06B8  0866               	movf	_disp1+2,w
  1064  06B9  3E30               	addlw	48
  1065  06BA  120A  118A  27ED  120A  118A  	fcall	_dispCHAR
  1066  06BF                     l2094:
  1067                           
  1068                           ;main.c: 76:         dispCHAR('V');
  1069  06BF  3056               	movlw	86
  1070  06C0  120A  118A  27ED  120A  118A  	fcall	_dispCHAR
  1071  06C5  2E10               	goto	l62
  1072  06C6  120A  118A  280C   	ljmp	start
  1073  06C9                     __end_of_main:
  1074                           
  1075                           	psect	text1
  1076  0E37                     __ptext1:	
  1077 ;; *************** function _initLCD *****************
  1078 ;; Defined at:
  1079 ;;		line 20 in file "LCDD2.c"
  1080 ;; Parameters:    Size  Location     Type
  1081 ;;		None
  1082 ;; Auto vars:     Size  Location     Type
  1083 ;;		None
  1084 ;; Return value:  Size  Location     Type
  1085 ;;                  1    wreg      void 
  1086 ;; Registers used:
  1087 ;;		wreg, status,2, status,0, pclath, cstack
  1088 ;; Tracked objects:
  1089 ;;		On entry : 0/0
  1090 ;;		On exit  : 0/0
  1091 ;;		Unchanged: 0/0
  1092 ;; Data sizes:     COMMON   BANK0   BANK1   BANK3   BANK2
  1093 ;;      Params:         0       0       0       0       0
  1094 ;;      Locals:         0       0       0       0       0
  1095 ;;      Temps:          2       0       0       0       0
  1096 ;;      Totals:         2       0       0       0       0
  1097 ;;Total ram usage:        2 bytes
  1098 ;; Hardware stack levels used:    1
  1099 ;; Hardware stack levels required when called:    2
  1100 ;; This function calls:
  1101 ;;		_comandoLCD
  1102 ;; This function is called by:
  1103 ;;		_main
  1104 ;; This function uses a non-reentrant model
  1105 ;;
  1106                           
  1107                           
  1108                           ;psect for function _initLCD
  1109  0E37                     _initLCD:
  1110  0E37                     l1988:	
  1111                           ;incstack = 0
  1112                           ; Regs used in _initLCD: [wreg+status,2+status,0+pclath+cstack]
  1113                           
  1114                           
  1115                           ;LCDD2.c: 21:     RE0 = 0;
  1116  0E37  1283               	bcf	3,5	;RP0=0, select bank0
  1117  0E38  1303               	bcf	3,6	;RP1=0, select bank0
  1118  0E39  1009               	bcf	9,0	;volatile
  1119  0E3A                     l1990:
  1120                           
  1121                           ;LCDD2.c: 22:     PORTD = 0X00;
  1122  0E3A  0188               	clrf	8	;volatile
  1123  0E3B                     l1992:
  1124                           
  1125                           ;LCDD2.c: 23:     _delay((unsigned long)((50)*(8000000/4000.0)));
  1126  0E3B  3082               	movlw	130
  1127  0E3C  00F6               	movwf	??_initLCD+1
  1128  0E3D  30DD               	movlw	221
  1129  0E3E  00F5               	movwf	??_initLCD
  1130  0E3F                     u2757:
  1131  0E3F  0BF5               	decfsz	??_initLCD,f
  1132  0E40  2E3F               	goto	u2757
  1133  0E41  0BF6               	decfsz	??_initLCD+1,f
  1134  0E42  2E3F               	goto	u2757
  1135  0E43  2E44               	nop2
  1136  0E44                     l1994:
  1137                           
  1138                           ;LCDD2.c: 24:     comandoLCD(0X30);
  1139  0E44  3030               	movlw	48
  1140  0E45  120A  158A  24C1  120A  158A  	fcall	_comandoLCD
  1141  0E4A                     l1996:
  1142                           
  1143                           ;LCDD2.c: 25:     _delay((unsigned long)((5)*(8000000/4000.0)));
  1144  0E4A  300D               	movlw	13
  1145  0E4B  00F6               	movwf	??_initLCD+1
  1146  0E4C  30FB               	movlw	251
  1147  0E4D  00F5               	movwf	??_initLCD
  1148  0E4E                     u2767:
  1149  0E4E  0BF5               	decfsz	??_initLCD,f
  1150  0E4F  2E4E               	goto	u2767
  1151  0E50  0BF6               	decfsz	??_initLCD+1,f
  1152  0E51  2E4E               	goto	u2767
  1153  0E52  2E53               	nop2
  1154  0E53                     l1998:
  1155                           
  1156                           ;LCDD2.c: 26:     comandoLCD(0X30);
  1157  0E53  3030               	movlw	48
  1158  0E54  120A  158A  24C1  120A  158A  	fcall	_comandoLCD
  1159  0E59                     l2000:
  1160                           
  1161                           ;LCDD2.c: 27:     _delay((unsigned long)((5)*(8000000/4000.0)));
  1162  0E59  300D               	movlw	13
  1163  0E5A  00F6               	movwf	??_initLCD+1
  1164  0E5B  30FB               	movlw	251
  1165  0E5C  00F5               	movwf	??_initLCD
  1166  0E5D                     u2777:
  1167  0E5D  0BF5               	decfsz	??_initLCD,f
  1168  0E5E  2E5D               	goto	u2777
  1169  0E5F  0BF6               	decfsz	??_initLCD+1,f
  1170  0E60  2E5D               	goto	u2777
  1171  0E61  2E62               	nop2
  1172  0E62                     l2002:
  1173                           
  1174                           ;LCDD2.c: 28:     comandoLCD(0X30);
  1175  0E62  3030               	movlw	48
  1176  0E63  120A  158A  24C1  120A  158A  	fcall	_comandoLCD
  1177  0E68                     l2004:
  1178                           
  1179                           ;LCDD2.c: 29:     comandoLCD(0X38);
  1180  0E68  3038               	movlw	56
  1181  0E69  120A  158A  24C1  120A  158A  	fcall	_comandoLCD
  1182  0E6E                     l2006:
  1183                           
  1184                           ;LCDD2.c: 30:     comandoLCD(0X06);
  1185  0E6E  3006               	movlw	6
  1186  0E6F  120A  158A  24C1  120A  158A  	fcall	_comandoLCD
  1187  0E74                     l2008:
  1188                           
  1189                           ;LCDD2.c: 31:     comandoLCD(0X0C);
  1190  0E74  300C               	movlw	12
  1191  0E75  120A  158A  24C1  120A  158A  	fcall	_comandoLCD
  1192  0E7A                     l2010:
  1193                           
  1194                           ;LCDD2.c: 32:     comandoLCD(0X01);
  1195  0E7A  3001               	movlw	1
  1196  0E7B  120A  158A  24C1  120A  158A  	fcall	_comandoLCD
  1197  0E80                     l128:
  1198  0E80  0008               	return
  1199  0E81                     __end_of_initLCD:
  1200                           
  1201                           	psect	text2
  1202  0F64                     __ptext2:	
  1203 ;; *************** function _floTochar *****************
  1204 ;; Defined at:
  1205 ;;		line 98 in file "main.c"
  1206 ;; Parameters:    Size  Location     Type
  1207 ;;  valor           4   43[BANK0 ] const float 
  1208 ;;  conv            1   47[BANK0 ] PTR unsigned char 
  1209 ;;		 -> disp1(3), 
  1210 ;; Auto vars:     Size  Location     Type
  1211 ;;  temp            4   52[BANK0 ] float 
  1212 ;;  digdecimal      2   58[BANK0 ] unsigned char [2]
  1213 ;;  entero          1   57[BANK0 ] unsigned char 
  1214 ;;  decimal         1   56[BANK0 ] unsigned char 
  1215 ;; Return value:  Size  Location     Type
  1216 ;;                  1    wreg      void 
  1217 ;; Registers used:
  1218 ;;		wreg, fsr0l, fsr0h, status,2, status,0, btemp+1, pclath, cstack
  1219 ;; Tracked objects:
  1220 ;;		On entry : 0/0
  1221 ;;		On exit  : 0/0
  1222 ;;		Unchanged: 0/0
  1223 ;; Data sizes:     COMMON   BANK0   BANK1   BANK3   BANK2
  1224 ;;      Params:         0       5       0       0       0
  1225 ;;      Locals:         0       8       0       0       0
  1226 ;;      Temps:          0       4       0       0       0
  1227 ;;      Totals:         0      17       0       0       0
  1228 ;;Total ram usage:       17 bytes
  1229 ;; Hardware stack levels used:    1
  1230 ;; Hardware stack levels required when called:    3
  1231 ;; This function calls:
  1232 ;;		___flmul
  1233 ;;		___flsub
  1234 ;;		___fltol
  1235 ;;		___xxtofl
  1236 ;;		_division
  1237 ;; This function is called by:
  1238 ;;		_main
  1239 ;; This function uses a non-reentrant model
  1240 ;;
  1241                           
  1242                           
  1243                           ;psect for function _floTochar
  1244  0F64                     _floTochar:
  1245  0F64                     l2036:	
  1246                           ;incstack = 0
  1247                           ; Regs used in _floTochar: [wreg-fsr0h+status,2+status,0+btemp+1+pclath+cstack]
  1248                           
  1249                           
  1250                           ;main.c: 99:     uint8_t entero;;main.c: 100:     uint8_t decimal;;main.c: 101:     floa
      +                          t temp;;main.c: 102:     unsigned char digdecimal[2];;main.c: 108:     entero = valor;
  1251  0F64  1283               	bcf	3,5	;RP0=0, select bank0
  1252  0F65  1303               	bcf	3,6	;RP1=0, select bank0
  1253  0F66  084E               	movf	floTochar@valor+3,w
  1254  0F67  00C3               	movwf	___fltol@f1+3
  1255  0F68  084D               	movf	floTochar@valor+2,w
  1256  0F69  00C2               	movwf	___fltol@f1+2
  1257  0F6A  084C               	movf	floTochar@valor+1,w
  1258  0F6B  00C1               	movwf	___fltol@f1+1
  1259  0F6C  084B               	movf	floTochar@valor,w
  1260  0F6D  00C0               	movwf	___fltol@f1
  1261  0F6E  120A  158A  26E8  120A  158A  	fcall	___fltol
  1262  0F73  1283               	bcf	3,5	;RP0=0, select bank0
  1263  0F74  1303               	bcf	3,6	;RP1=0, select bank0
  1264  0F75  0840               	movf	?___fltol,w
  1265  0F76  00D0               	movwf	??_floTochar
  1266  0F77  0850               	movf	??_floTochar,w
  1267  0F78  00D9               	movwf	floTochar@entero
  1268  0F79                     l2038:
  1269                           
  1270                           ;main.c: 109:     digdecimal[2] = entero;
  1271  0F79  0859               	movf	floTochar@entero,w
  1272  0F7A  00D0               	movwf	??_floTochar
  1273  0F7B  0850               	movf	??_floTochar,w
  1274  0F7C  00DC               	movwf	floTochar@digdecimal+2
  1275  0F7D                     l2040:
  1276                           
  1277                           ;main.c: 110:     temp = valor-(float)entero;
  1278  0F7D  0859               	movf	floTochar@entero,w
  1279  0F7E  00D0               	movwf	??_floTochar
  1280  0F7F  01D1               	clrf	??_floTochar+1
  1281  0F80  01D2               	clrf	??_floTochar+2
  1282  0F81  01D3               	clrf	??_floTochar+3
  1283  0F82  0853               	movf	??_floTochar+3,w
  1284  0F83  00F5               	movwf	___xxtofl@val+3
  1285  0F84  0852               	movf	??_floTochar+2,w
  1286  0F85  00F4               	movwf	___xxtofl@val+2
  1287  0F86  0851               	movf	??_floTochar+1,w
  1288  0F87  00F3               	movwf	___xxtofl@val+1
  1289  0F88  0850               	movf	??_floTochar,w
  1290  0F89  00F2               	movwf	___xxtofl@val
  1291  0F8A  3000               	movlw	0
  1292  0F8B  120A  118A  26C9  120A  158A  	fcall	___xxtofl
  1293  0F90  0875               	movf	?___xxtofl+3,w
  1294  0F91  1283               	bcf	3,5	;RP0=0, select bank0
  1295  0F92  1303               	bcf	3,6	;RP1=0, select bank0
  1296  0F93  00AF               	movwf	___flsub@a+3
  1297  0F94  0874               	movf	?___xxtofl+2,w
  1298  0F95  00AE               	movwf	___flsub@a+2
  1299  0F96  0873               	movf	?___xxtofl+1,w
  1300  0F97  00AD               	movwf	___flsub@a+1
  1301  0F98  0872               	movf	?___xxtofl,w
  1302  0F99  00AC               	movwf	___flsub@a
  1303  0F9A  084E               	movf	floTochar@valor+3,w
  1304  0F9B  00B3               	movwf	___flsub@b+3
  1305  0F9C  084D               	movf	floTochar@valor+2,w
  1306  0F9D  00B2               	movwf	___flsub@b+2
  1307  0F9E  084C               	movf	floTochar@valor+1,w
  1308  0F9F  00B1               	movwf	___flsub@b+1
  1309  0FA0  084B               	movf	floTochar@valor,w
  1310  0FA1  00B0               	movwf	___flsub@b
  1311  0FA2  120A  158A  256B  120A  158A  	fcall	___flsub
  1312  0FA7  1283               	bcf	3,5	;RP0=0, select bank0
  1313  0FA8  1303               	bcf	3,6	;RP1=0, select bank0
  1314  0FA9  082F               	movf	?___flsub+3,w
  1315  0FAA  00D7               	movwf	floTochar@temp+3
  1316  0FAB  082E               	movf	?___flsub+2,w
  1317  0FAC  00D6               	movwf	floTochar@temp+2
  1318  0FAD  082D               	movf	?___flsub+1,w
  1319  0FAE  00D5               	movwf	floTochar@temp+1
  1320  0FAF  082C               	movf	?___flsub,w
  1321  0FB0  00D4               	movwf	floTochar@temp
  1322  0FB1                     l2042:
  1323                           
  1324                           ;main.c: 111:     decimal = (temp*100);
  1325  0FB1  0857               	movf	floTochar@temp+3,w
  1326  0FB2  00AD               	movwf	___flmul@a+3
  1327  0FB3  0856               	movf	floTochar@temp+2,w
  1328  0FB4  00AC               	movwf	___flmul@a+2
  1329  0FB5  0855               	movf	floTochar@temp+1,w
  1330  0FB6  00AB               	movwf	___flmul@a+1
  1331  0FB7  0854               	movf	floTochar@temp,w
  1332  0FB8  00AA               	movwf	___flmul@a
  1333  0FB9  3042               	movlw	66
  1334  0FBA  00A9               	movwf	___flmul@b+3
  1335  0FBB  30C8               	movlw	200
  1336  0FBC  00A8               	movwf	___flmul@b+2
  1337  0FBD  3000               	movlw	0
  1338  0FBE  00A7               	movwf	___flmul@b+1
  1339  0FBF  3000               	movlw	0
  1340  0FC0  00A6               	movwf	___flmul@b
  1341  0FC1  120A  118A  201D  120A  158A  	fcall	___flmul
  1342  0FC6  1283               	bcf	3,5	;RP0=0, select bank0
  1343  0FC7  1303               	bcf	3,6	;RP1=0, select bank0
  1344  0FC8  0829               	movf	?___flmul+3,w
  1345  0FC9  00C3               	movwf	___fltol@f1+3
  1346  0FCA  0828               	movf	?___flmul+2,w
  1347  0FCB  00C2               	movwf	___fltol@f1+2
  1348  0FCC  0827               	movf	?___flmul+1,w
  1349  0FCD  00C1               	movwf	___fltol@f1+1
  1350  0FCE  0826               	movf	?___flmul,w
  1351  0FCF  00C0               	movwf	___fltol@f1
  1352  0FD0  120A  158A  26E8  120A  158A  	fcall	___fltol
  1353  0FD5  1283               	bcf	3,5	;RP0=0, select bank0
  1354  0FD6  1303               	bcf	3,6	;RP1=0, select bank0
  1355  0FD7  0840               	movf	?___fltol,w
  1356  0FD8  00D0               	movwf	??_floTochar
  1357  0FD9  0850               	movf	??_floTochar,w
  1358  0FDA  00D8               	movwf	floTochar@decimal
  1359  0FDB                     l2044:
  1360                           
  1361                           ;main.c: 112:     division(decimal,&digdecimal[0],&digdecimal[1]);
  1362  0FDB  305A               	movlw	(low (floTochar@digdecimal| 0))& (0+255)
  1363  0FDC  00D0               	movwf	??_floTochar
  1364  0FDD  0850               	movf	??_floTochar,w
  1365  0FDE  00A0               	movwf	division@un
  1366  0FDF  305B               	movlw	(low ((floTochar@digdecimal| 0+1)))& (0+255)
  1367  0FE0  00D1               	movwf	??_floTochar+1
  1368  0FE1  0851               	movf	??_floTochar+1,w
  1369  0FE2  00A1               	movwf	division@dec
  1370  0FE3  0858               	movf	floTochar@decimal,w
  1371  0FE4  120A  158A  25EF  120A  158A  	fcall	_division
  1372                           
  1373                           ;main.c: 113:     conv[0] = entero;
  1374  0FE9  1283               	bcf	3,5	;RP0=0, select bank0
  1375  0FEA  1303               	bcf	3,6	;RP1=0, select bank0
  1376  0FEB  0859               	movf	floTochar@entero,w
  1377  0FEC  00D0               	movwf	??_floTochar
  1378  0FED  084F               	movf	floTochar@conv,w
  1379  0FEE  0084               	movwf	4
  1380  0FEF  0850               	movf	??_floTochar,w
  1381  0FF0  1383               	bcf	3,7	;select IRP bank0
  1382  0FF1  0080               	movwf	0
  1383                           
  1384                           ;main.c: 114:     conv[1] = digdecimal[1];
  1385  0FF2  085B               	movf	floTochar@digdecimal+1,w
  1386  0FF3  00D0               	movwf	??_floTochar
  1387  0FF4  0A4F               	incf	floTochar@conv,w
  1388  0FF5  0084               	movwf	4
  1389  0FF6  0850               	movf	??_floTochar,w
  1390  0FF7  0080               	movwf	0
  1391  0FF8                     l2046:
  1392                           
  1393                           ;main.c: 115:     conv[2] = digdecimal[0];
  1394  0FF8  085A               	movf	floTochar@digdecimal,w
  1395  0FF9  00D0               	movwf	??_floTochar
  1396  0FFA  084F               	movf	floTochar@conv,w
  1397  0FFB  3E02               	addlw	2
  1398  0FFC  0084               	movwf	4
  1399  0FFD  0850               	movf	??_floTochar,w
  1400  0FFE  0080               	movwf	0
  1401  0FFF                     l71:
  1402  0FFF  0008               	return
  1403  1000                     __end_of_floTochar:
  1404                           
  1405                           	psect	text3
  1406  0DEF                     __ptext3:	
  1407 ;; *************** function _division *****************
  1408 ;; Defined at:
  1409 ;;		line 120 in file "main.c"
  1410 ;; Parameters:    Size  Location     Type
  1411 ;;  conteo          1    wreg     unsigned char 
  1412 ;;  un              1    0[BANK0 ] PTR unsigned char 
  1413 ;;		 -> floTochar@digdecimal(2), 
  1414 ;;  dec             1    1[BANK0 ] PTR unsigned char 
  1415 ;;		 -> floTochar@digdecimal(2), 
  1416 ;; Auto vars:     Size  Location     Type
  1417 ;;  conteo          1    5[BANK0 ] unsigned char 
  1418 ;;  div             1    6[BANK0 ] unsigned char 
  1419 ;; Return value:  Size  Location     Type
  1420 ;;                  1    wreg      void 
  1421 ;; Registers used:
  1422 ;;		wreg, fsr0l, fsr0h, status,2, status,0, pclath, cstack
  1423 ;; Tracked objects:
  1424 ;;		On entry : 0/0
  1425 ;;		On exit  : 0/0
  1426 ;;		Unchanged: 0/0
  1427 ;; Data sizes:     COMMON   BANK0   BANK1   BANK3   BANK2
  1428 ;;      Params:         0       2       0       0       0
  1429 ;;      Locals:         0       2       0       0       0
  1430 ;;      Temps:          0       3       0       0       0
  1431 ;;      Totals:         0       7       0       0       0
  1432 ;;Total ram usage:        7 bytes
  1433 ;; Hardware stack levels used:    1
  1434 ;; Hardware stack levels required when called:    2
  1435 ;; This function calls:
  1436 ;;		___awdiv
  1437 ;;		___bmul
  1438 ;; This function is called by:
  1439 ;;		_floTochar
  1440 ;; This function uses a non-reentrant model
  1441 ;;
  1442                           
  1443                           
  1444                           ;psect for function _division
  1445  0DEF                     _division:
  1446                           
  1447                           ;incstack = 0
  1448                           ; Regs used in _division: [wreg-fsr0h+status,2+status,0+pclath+cstack]
  1449                           ;division@conteo stored from wreg
  1450  0DEF  1283               	bcf	3,5	;RP0=0, select bank0
  1451  0DF0  1303               	bcf	3,6	;RP1=0, select bank0
  1452  0DF1  00A5               	movwf	division@conteo
  1453  0DF2                     l1734:
  1454                           
  1455                           ;main.c: 121:     uint8_t div = conteo;
  1456  0DF2  0825               	movf	division@conteo,w
  1457  0DF3  00A2               	movwf	??_division
  1458  0DF4  0822               	movf	??_division,w
  1459  0DF5  00A6               	movwf	division@div
  1460  0DF6                     l1736:
  1461                           
  1462                           ;main.c: 122:     *un = 0;
  1463  0DF6  0820               	movf	division@un,w
  1464  0DF7  0084               	movwf	4
  1465  0DF8  1383               	bcf	3,7	;select IRP bank0
  1466  0DF9  0180               	clrf	0
  1467  0DFA                     l1738:
  1468                           
  1469                           ;main.c: 123:     *dec = 0;
  1470  0DFA  0821               	movf	division@dec,w
  1471  0DFB  0084               	movwf	4
  1472  0DFC  0180               	clrf	0
  1473                           
  1474                           ;main.c: 126:     while (div >= 10){
  1475  0DFD  2E29               	goto	l1742
  1476  0DFE                     l1740:
  1477                           
  1478                           ;main.c: 127:     *dec = div/10;
  1479  0DFE  300A               	movlw	10
  1480  0DFF  00F2               	movwf	___awdiv@divisor
  1481  0E00  3000               	movlw	0
  1482  0E01  00F3               	movwf	___awdiv@divisor+1
  1483  0E02  0826               	movf	division@div,w
  1484  0E03  00A2               	movwf	??_division
  1485  0E04  01A3               	clrf	??_division+1
  1486  0E05  0822               	movf	??_division,w
  1487  0E06  00F4               	movwf	___awdiv@dividend
  1488  0E07  0823               	movf	??_division+1,w
  1489  0E08  00F5               	movwf	___awdiv@dividend+1
  1490  0E09  120A  158A  2681  120A  158A  	fcall	___awdiv
  1491  0E0E  0872               	movf	?___awdiv,w
  1492  0E0F  1283               	bcf	3,5	;RP0=0, select bank0
  1493  0E10  1303               	bcf	3,6	;RP1=0, select bank0
  1494  0E11  00A4               	movwf	??_division+2
  1495  0E12  0821               	movf	division@dec,w
  1496  0E13  0084               	movwf	4
  1497  0E14  0824               	movf	??_division+2,w
  1498  0E15  1383               	bcf	3,7	;select IRP bank0
  1499  0E16  0080               	movwf	0
  1500                           
  1501                           ;main.c: 128:     div = div - (*dec)*(10);
  1502  0E17  30F6               	movlw	246
  1503  0E18  00A2               	movwf	??_division
  1504  0E19  0822               	movf	??_division,w
  1505  0E1A  00F2               	movwf	___bmul@multiplicand
  1506  0E1B  0821               	movf	division@dec,w
  1507  0E1C  0084               	movwf	4
  1508  0E1D  0800               	movf	0,w
  1509  0E1E  120A  158A  24D5  120A  158A  	fcall	___bmul
  1510  0E23  1283               	bcf	3,5	;RP0=0, select bank0
  1511  0E24  1303               	bcf	3,6	;RP1=0, select bank0
  1512  0E25  0726               	addwf	division@div,w
  1513  0E26  00A3               	movwf	??_division+1
  1514  0E27  0823               	movf	??_division+1,w
  1515  0E28  00A6               	movwf	division@div
  1516  0E29                     l1742:
  1517                           
  1518                           ;main.c: 126:     while (div >= 10){
  1519  0E29  300A               	movlw	10
  1520  0E2A  0226               	subwf	division@div,w
  1521  0E2B  1803               	skipnc
  1522  0E2C  2E2E               	goto	u2061
  1523  0E2D  2E2F               	goto	u2060
  1524  0E2E                     u2061:
  1525  0E2E  2DFE               	goto	l1740
  1526  0E2F                     u2060:
  1527  0E2F                     l1744:
  1528                           
  1529                           ;main.c: 131:     *un = div;
  1530  0E2F  0826               	movf	division@div,w
  1531  0E30  00A2               	movwf	??_division
  1532  0E31  0820               	movf	division@un,w
  1533  0E32  0084               	movwf	4
  1534  0E33  0822               	movf	??_division,w
  1535  0E34  1383               	bcf	3,7	;select IRP bank0
  1536  0E35  0080               	movwf	0
  1537  0E36                     l77:
  1538  0E36  0008               	return
  1539  0E37                     __end_of_division:
  1540                           
  1541                           	psect	text4
  1542  0CD5                     __ptext4:	
  1543 ;; *************** function ___bmul *****************
  1544 ;; Defined at:
  1545 ;;		line 4 in file "C:\Program Files\Microchip\xc8\v2.31\pic\sources\c90\common\Umul8.c"
  1546 ;; Parameters:    Size  Location     Type
  1547 ;;  multiplier      1    wreg     unsigned char 
  1548 ;;  multiplicand    1    2[COMMON] unsigned char 
  1549 ;; Auto vars:     Size  Location     Type
  1550 ;;  multiplier      1    5[COMMON] unsigned char 
  1551 ;;  product         1    4[COMMON] unsigned char 
  1552 ;; Return value:  Size  Location     Type
  1553 ;;                  1    wreg      unsigned char 
  1554 ;; Registers used:
  1555 ;;		wreg, status,2, status,0
  1556 ;; Tracked objects:
  1557 ;;		On entry : 0/0
  1558 ;;		On exit  : 0/0
  1559 ;;		Unchanged: 0/0
  1560 ;; Data sizes:     COMMON   BANK0   BANK1   BANK3   BANK2
  1561 ;;      Params:         1       0       0       0       0
  1562 ;;      Locals:         2       0       0       0       0
  1563 ;;      Temps:          1       0       0       0       0
  1564 ;;      Totals:         4       0       0       0       0
  1565 ;;Total ram usage:        4 bytes
  1566 ;; Hardware stack levels used:    1
  1567 ;; Hardware stack levels required when called:    1
  1568 ;; This function calls:
  1569 ;;		Nothing
  1570 ;; This function is called by:
  1571 ;;		_division
  1572 ;; This function uses a non-reentrant model
  1573 ;;
  1574                           
  1575                           
  1576                           ;psect for function ___bmul
  1577  0CD5                     ___bmul:
  1578                           
  1579                           ;incstack = 0
  1580                           ; Regs used in ___bmul: [wreg+status,2+status,0]
  1581                           ;___bmul@multiplier stored from wreg
  1582  0CD5  00F5               	movwf	___bmul@multiplier
  1583  0CD6                     l1424:
  1584  0CD6  01F4               	clrf	___bmul@product
  1585  0CD7                     l1426:
  1586  0CD7  1C75               	btfss	___bmul@multiplier,0
  1587  0CD8  2CDA               	goto	u1371
  1588  0CD9  2CDB               	goto	u1370
  1589  0CDA                     u1371:
  1590  0CDA  2CDF               	goto	l1430
  1591  0CDB                     u1370:
  1592  0CDB                     l1428:
  1593  0CDB  0872               	movf	___bmul@multiplicand,w
  1594  0CDC  00F3               	movwf	??___bmul
  1595  0CDD  0873               	movf	??___bmul,w
  1596  0CDE  07F4               	addwf	___bmul@product,f
  1597  0CDF                     l1430:
  1598  0CDF  1003               	clrc
  1599  0CE0  0DF2               	rlf	___bmul@multiplicand,f
  1600  0CE1                     l1432:
  1601  0CE1  1003               	clrc
  1602  0CE2  0CF5               	rrf	___bmul@multiplier,f
  1603  0CE3  0875               	movf	___bmul@multiplier,w
  1604  0CE4  1D03               	btfss	3,2
  1605  0CE5  2CE7               	goto	u1381
  1606  0CE6  2CE8               	goto	u1380
  1607  0CE7                     u1381:
  1608  0CE7  2CD7               	goto	l1426
  1609  0CE8                     u1380:
  1610  0CE8                     l1434:
  1611  0CE8  0874               	movf	___bmul@product,w
  1612  0CE9                     l260:
  1613  0CE9  0008               	return
  1614  0CEA                     __end_of___bmul:
  1615                           
  1616                           	psect	text5
  1617  0E81                     __ptext5:	
  1618 ;; *************** function ___awdiv *****************
  1619 ;; Defined at:
  1620 ;;		line 5 in file "C:\Program Files\Microchip\xc8\v2.31\pic\sources\c90\common\awdiv.c"
  1621 ;; Parameters:    Size  Location     Type
  1622 ;;  divisor         2    2[COMMON] int 
  1623 ;;  dividend        2    4[COMMON] int 
  1624 ;; Auto vars:     Size  Location     Type
  1625 ;;  quotient        2    9[COMMON] int 
  1626 ;;  sign            1    8[COMMON] unsigned char 
  1627 ;;  counter         1    7[COMMON] unsigned char 
  1628 ;; Return value:  Size  Location     Type
  1629 ;;                  2    2[COMMON] int 
  1630 ;; Registers used:
  1631 ;;		wreg, status,2, status,0
  1632 ;; Tracked objects:
  1633 ;;		On entry : 0/0
  1634 ;;		On exit  : 0/0
  1635 ;;		Unchanged: 0/0
  1636 ;; Data sizes:     COMMON   BANK0   BANK1   BANK3   BANK2
  1637 ;;      Params:         4       0       0       0       0
  1638 ;;      Locals:         4       0       0       0       0
  1639 ;;      Temps:          1       0       0       0       0
  1640 ;;      Totals:         9       0       0       0       0
  1641 ;;Total ram usage:        9 bytes
  1642 ;; Hardware stack levels used:    1
  1643 ;; Hardware stack levels required when called:    1
  1644 ;; This function calls:
  1645 ;;		Nothing
  1646 ;; This function is called by:
  1647 ;;		_division
  1648 ;; This function uses a non-reentrant model
  1649 ;;
  1650                           
  1651                           
  1652                           ;psect for function ___awdiv
  1653  0E81                     ___awdiv:
  1654  0E81                     l1462:	
  1655                           ;incstack = 0
  1656                           ; Regs used in ___awdiv: [wreg+status,2+status,0]
  1657                           
  1658  0E81  01F8               	clrf	___awdiv@sign
  1659  0E82                     l1464:
  1660  0E82  1FF3               	btfss	___awdiv@divisor+1,7
  1661  0E83  2E85               	goto	u1461
  1662  0E84  2E86               	goto	u1460
  1663  0E85                     u1461:
  1664  0E85  2E8D               	goto	l1470
  1665  0E86                     u1460:
  1666  0E86                     l1466:
  1667  0E86  09F2               	comf	___awdiv@divisor,f
  1668  0E87  09F3               	comf	___awdiv@divisor+1,f
  1669  0E88  0AF2               	incf	___awdiv@divisor,f
  1670  0E89  1903               	skipnz
  1671  0E8A  0AF3               	incf	___awdiv@divisor+1,f
  1672  0E8B                     l1468:
  1673  0E8B  01F8               	clrf	___awdiv@sign
  1674  0E8C  0AF8               	incf	___awdiv@sign,f
  1675  0E8D                     l1470:
  1676  0E8D  1FF5               	btfss	___awdiv@dividend+1,7
  1677  0E8E  2E90               	goto	u1471
  1678  0E8F  2E91               	goto	u1470
  1679  0E90                     u1471:
  1680  0E90  2E9A               	goto	l1476
  1681  0E91                     u1470:
  1682  0E91                     l1472:
  1683  0E91  09F4               	comf	___awdiv@dividend,f
  1684  0E92  09F5               	comf	___awdiv@dividend+1,f
  1685  0E93  0AF4               	incf	___awdiv@dividend,f
  1686  0E94  1903               	skipnz
  1687  0E95  0AF5               	incf	___awdiv@dividend+1,f
  1688  0E96                     l1474:
  1689  0E96  3001               	movlw	1
  1690  0E97  00F6               	movwf	??___awdiv
  1691  0E98  0876               	movf	??___awdiv,w
  1692  0E99  06F8               	xorwf	___awdiv@sign,f
  1693  0E9A                     l1476:
  1694  0E9A  01F9               	clrf	___awdiv@quotient
  1695  0E9B  01FA               	clrf	___awdiv@quotient+1
  1696  0E9C                     l1478:
  1697  0E9C  0872               	movf	___awdiv@divisor,w
  1698  0E9D  0473               	iorwf	___awdiv@divisor+1,w
  1699  0E9E  1903               	btfsc	3,2
  1700  0E9F  2EA1               	goto	u1481
  1701  0EA0  2EA2               	goto	u1480
  1702  0EA1                     u1481:
  1703  0EA1  2ED9               	goto	l1498
  1704  0EA2                     u1480:
  1705  0EA2                     l1480:
  1706  0EA2  01F7               	clrf	___awdiv@counter
  1707  0EA3  0AF7               	incf	___awdiv@counter,f
  1708  0EA4  2EB0               	goto	l1486
  1709  0EA5                     l1482:
  1710  0EA5  3001               	movlw	1
  1711  0EA6                     u1495:
  1712  0EA6  1003               	clrc
  1713  0EA7  0DF2               	rlf	___awdiv@divisor,f
  1714  0EA8  0DF3               	rlf	___awdiv@divisor+1,f
  1715  0EA9  3EFF               	addlw	-1
  1716  0EAA  1D03               	skipz
  1717  0EAB  2EA6               	goto	u1495
  1718  0EAC                     l1484:
  1719  0EAC  3001               	movlw	1
  1720  0EAD  00F6               	movwf	??___awdiv
  1721  0EAE  0876               	movf	??___awdiv,w
  1722  0EAF  07F7               	addwf	___awdiv@counter,f
  1723  0EB0                     l1486:
  1724  0EB0  1FF3               	btfss	___awdiv@divisor+1,7
  1725  0EB1  2EB3               	goto	u1501
  1726  0EB2  2EB4               	goto	u1500
  1727  0EB3                     u1501:
  1728  0EB3  2EA5               	goto	l1482
  1729  0EB4                     u1500:
  1730  0EB4                     l1488:
  1731  0EB4  3001               	movlw	1
  1732  0EB5                     u1515:
  1733  0EB5  1003               	clrc
  1734  0EB6  0DF9               	rlf	___awdiv@quotient,f
  1735  0EB7  0DFA               	rlf	___awdiv@quotient+1,f
  1736  0EB8  3EFF               	addlw	-1
  1737  0EB9  1D03               	skipz
  1738  0EBA  2EB5               	goto	u1515
  1739  0EBB  0873               	movf	___awdiv@divisor+1,w
  1740  0EBC  0275               	subwf	___awdiv@dividend+1,w
  1741  0EBD  1D03               	skipz
  1742  0EBE  2EC1               	goto	u1525
  1743  0EBF  0872               	movf	___awdiv@divisor,w
  1744  0EC0  0274               	subwf	___awdiv@dividend,w
  1745  0EC1                     u1525:
  1746  0EC1  1C03               	skipc
  1747  0EC2  2EC4               	goto	u1521
  1748  0EC3  2EC5               	goto	u1520
  1749  0EC4                     u1521:
  1750  0EC4  2ECC               	goto	l1494
  1751  0EC5                     u1520:
  1752  0EC5                     l1490:
  1753  0EC5  0872               	movf	___awdiv@divisor,w
  1754  0EC6  02F4               	subwf	___awdiv@dividend,f
  1755  0EC7  0873               	movf	___awdiv@divisor+1,w
  1756  0EC8  1C03               	skipc
  1757  0EC9  03F5               	decf	___awdiv@dividend+1,f
  1758  0ECA  02F5               	subwf	___awdiv@dividend+1,f
  1759  0ECB                     l1492:
  1760  0ECB  1479               	bsf	___awdiv@quotient,0
  1761  0ECC                     l1494:
  1762  0ECC  3001               	movlw	1
  1763  0ECD                     u1535:
  1764  0ECD  1003               	clrc
  1765  0ECE  0CF3               	rrf	___awdiv@divisor+1,f
  1766  0ECF  0CF2               	rrf	___awdiv@divisor,f
  1767  0ED0  3EFF               	addlw	-1
  1768  0ED1  1D03               	skipz
  1769  0ED2  2ECD               	goto	u1535
  1770  0ED3                     l1496:
  1771  0ED3  3001               	movlw	1
  1772  0ED4  02F7               	subwf	___awdiv@counter,f
  1773  0ED5  1D03               	btfss	3,2
  1774  0ED6  2ED8               	goto	u1541
  1775  0ED7  2ED9               	goto	u1540
  1776  0ED8                     u1541:
  1777  0ED8  2EB4               	goto	l1488
  1778  0ED9                     u1540:
  1779  0ED9                     l1498:
  1780  0ED9  0878               	movf	___awdiv@sign,w
  1781  0EDA  1903               	btfsc	3,2
  1782  0EDB  2EDD               	goto	u1551
  1783  0EDC  2EDE               	goto	u1550
  1784  0EDD                     u1551:
  1785  0EDD  2EE3               	goto	l1502
  1786  0EDE                     u1550:
  1787  0EDE                     l1500:
  1788  0EDE  09F9               	comf	___awdiv@quotient,f
  1789  0EDF  09FA               	comf	___awdiv@quotient+1,f
  1790  0EE0  0AF9               	incf	___awdiv@quotient,f
  1791  0EE1  1903               	skipnz
  1792  0EE2  0AFA               	incf	___awdiv@quotient+1,f
  1793  0EE3                     l1502:
  1794  0EE3  087A               	movf	___awdiv@quotient+1,w
  1795  0EE4  00F3               	movwf	?___awdiv+1
  1796  0EE5  0879               	movf	___awdiv@quotient,w
  1797  0EE6  00F2               	movwf	?___awdiv
  1798  0EE7                     l387:
  1799  0EE7  0008               	return
  1800  0EE8                     __end_of___awdiv:
  1801                           
  1802                           	psect	text6
  1803  06C9                     __ptext6:	
  1804 ;; *************** function ___xxtofl *****************
  1805 ;; Defined at:
  1806 ;;		line 10 in file "C:\Program Files\Microchip\xc8\v2.31\pic\sources\c90\common\xxtofl.c"
  1807 ;; Parameters:    Size  Location     Type
  1808 ;;  sign            1    wreg     unsigned char 
  1809 ;;  val             4    2[COMMON] long 
  1810 ;; Auto vars:     Size  Location     Type
  1811 ;;  sign            1    0[BANK0 ] unsigned char 
  1812 ;;  arg             4    2[BANK0 ] unsigned long 
  1813 ;;  exp             1    1[BANK0 ] unsigned char 
  1814 ;; Return value:  Size  Location     Type
  1815 ;;                  4    2[COMMON] unsigned char 
  1816 ;; Registers used:
  1817 ;;		wreg, status,2, status,0
  1818 ;; Tracked objects:
  1819 ;;		On entry : 0/0
  1820 ;;		On exit  : 0/0
  1821 ;;		Unchanged: 0/0
  1822 ;; Data sizes:     COMMON   BANK0   BANK1   BANK3   BANK2
  1823 ;;      Params:         4       0       0       0       0
  1824 ;;      Locals:         0       6       0       0       0
  1825 ;;      Temps:          4       0       0       0       0
  1826 ;;      Totals:         8       6       0       0       0
  1827 ;;Total ram usage:       14 bytes
  1828 ;; Hardware stack levels used:    1
  1829 ;; Hardware stack levels required when called:    1
  1830 ;; This function calls:
  1831 ;;		Nothing
  1832 ;; This function is called by:
  1833 ;;		_main
  1834 ;;		_floTochar
  1835 ;; This function uses a non-reentrant model
  1836 ;;
  1837                           
  1838                           
  1839                           ;psect for function ___xxtofl
  1840  06C9                     ___xxtofl:
  1841                           
  1842                           ;incstack = 0
  1843                           ; Regs used in ___xxtofl: [wreg+status,2+status,0]
  1844                           ;___xxtofl@sign stored from wreg
  1845  06C9  1283               	bcf	3,5	;RP0=0, select bank0
  1846  06CA  1303               	bcf	3,6	;RP1=0, select bank0
  1847  06CB  00A0               	movwf	___xxtofl@sign
  1848  06CC                     l1940:
  1849  06CC  0820               	movf	___xxtofl@sign,w
  1850  06CD  1903               	btfsc	3,2
  1851  06CE  2ED0               	goto	u2561
  1852  06CF  2ED1               	goto	u2560
  1853  06D0                     u2561:
  1854  06D0  2EE5               	goto	l1946
  1855  06D1                     u2560:
  1856  06D1                     l1942:
  1857  06D1  1FF5               	btfss	___xxtofl@val+3,7
  1858  06D2  2ED4               	goto	u2571
  1859  06D3  2ED5               	goto	u2570
  1860  06D4                     u2571:
  1861  06D4  2EE5               	goto	l1946
  1862  06D5                     u2570:
  1863  06D5                     l1944:
  1864  06D5  0972               	comf	___xxtofl@val,w
  1865  06D6  00A2               	movwf	___xxtofl@arg
  1866  06D7  0973               	comf	___xxtofl@val+1,w
  1867  06D8  00A3               	movwf	___xxtofl@arg+1
  1868  06D9  0974               	comf	___xxtofl@val+2,w
  1869  06DA  00A4               	movwf	___xxtofl@arg+2
  1870  06DB  0975               	comf	___xxtofl@val+3,w
  1871  06DC  00A5               	movwf	___xxtofl@arg+3
  1872  06DD  0AA2               	incf	___xxtofl@arg,f
  1873  06DE  1903               	skipnz
  1874  06DF  0AA3               	incf	___xxtofl@arg+1,f
  1875  06E0  1903               	skipnz
  1876  06E1  0AA4               	incf	___xxtofl@arg+2,f
  1877  06E2  1903               	skipnz
  1878  06E3  0AA5               	incf	___xxtofl@arg+3,f
  1879  06E4  2EED               	goto	l667
  1880  06E5                     l1946:
  1881  06E5  0875               	movf	___xxtofl@val+3,w
  1882  06E6  00A5               	movwf	___xxtofl@arg+3
  1883  06E7  0874               	movf	___xxtofl@val+2,w
  1884  06E8  00A4               	movwf	___xxtofl@arg+2
  1885  06E9  0873               	movf	___xxtofl@val+1,w
  1886  06EA  00A3               	movwf	___xxtofl@arg+1
  1887  06EB  0872               	movf	___xxtofl@val,w
  1888  06EC  00A2               	movwf	___xxtofl@arg
  1889  06ED                     l667:
  1890  06ED  0875               	movf	___xxtofl@val+3,w
  1891  06EE  0474               	iorwf	___xxtofl@val+2,w
  1892  06EF  0473               	iorwf	___xxtofl@val+1,w
  1893  06F0  0472               	iorwf	___xxtofl@val,w
  1894  06F1  1D03               	skipz
  1895  06F2  2EF4               	goto	u2581
  1896  06F3  2EF5               	goto	u2580
  1897  06F4                     u2581:
  1898  06F4  2EFE               	goto	l1952
  1899  06F5                     u2580:
  1900  06F5                     l1948:
  1901  06F5  3000               	movlw	0
  1902  06F6  00F5               	movwf	?___xxtofl+3
  1903  06F7  3000               	movlw	0
  1904  06F8  00F4               	movwf	?___xxtofl+2
  1905  06F9  3000               	movlw	0
  1906  06FA  00F3               	movwf	?___xxtofl+1
  1907  06FB  3000               	movlw	0
  1908  06FC  00F2               	movwf	?___xxtofl
  1909  06FD  2F84               	goto	l669
  1910  06FE                     l1952:
  1911  06FE  3096               	movlw	150
  1912  06FF  00F6               	movwf	??___xxtofl
  1913  0700  0876               	movf	??___xxtofl,w
  1914  0701  00A1               	movwf	___xxtofl@exp
  1915  0702  2F10               	goto	l1956
  1916  0703                     l1954:
  1917  0703  3001               	movlw	1
  1918  0704  00F6               	movwf	??___xxtofl
  1919  0705  0876               	movf	??___xxtofl,w
  1920  0706  07A1               	addwf	___xxtofl@exp,f
  1921  0707  3001               	movlw	1
  1922  0708                     u2595:
  1923  0708  1003               	clrc
  1924  0709  0CA5               	rrf	___xxtofl@arg+3,f
  1925  070A  0CA4               	rrf	___xxtofl@arg+2,f
  1926  070B  0CA3               	rrf	___xxtofl@arg+1,f
  1927  070C  0CA2               	rrf	___xxtofl@arg,f
  1928  070D  3EFF               	addlw	-1
  1929  070E  1D03               	skipz
  1930  070F  2F08               	goto	u2595
  1931  0710                     l1956:
  1932  0710  30FE               	movlw	254
  1933  0711  0525               	andwf	___xxtofl@arg+3,w
  1934  0712  1D03               	btfss	3,2
  1935  0713  2F15               	goto	u2601
  1936  0714  2F16               	goto	u2600
  1937  0715                     u2601:
  1938  0715  2F03               	goto	l1954
  1939  0716                     u2600:
  1940  0716  2F32               	goto	l673
  1941  0717                     l1958:
  1942  0717  3001               	movlw	1
  1943  0718  00F6               	movwf	??___xxtofl
  1944  0719  0876               	movf	??___xxtofl,w
  1945  071A  07A1               	addwf	___xxtofl@exp,f
  1946  071B                     l1960:
  1947  071B  3001               	movlw	1
  1948  071C  07A2               	addwf	___xxtofl@arg,f
  1949  071D  3000               	movlw	0
  1950  071E  1803               	skipnc
  1951  071F  3001               	movlw	1
  1952  0720  07A3               	addwf	___xxtofl@arg+1,f
  1953  0721  3000               	movlw	0
  1954  0722  1803               	skipnc
  1955  0723  3001               	movlw	1
  1956  0724  07A4               	addwf	___xxtofl@arg+2,f
  1957  0725  3000               	movlw	0
  1958  0726  1803               	skipnc
  1959  0727  3001               	movlw	1
  1960  0728  07A5               	addwf	___xxtofl@arg+3,f
  1961  0729                     l1962:
  1962  0729  3001               	movlw	1
  1963  072A                     u2615:
  1964  072A  1003               	clrc
  1965  072B  0CA5               	rrf	___xxtofl@arg+3,f
  1966  072C  0CA4               	rrf	___xxtofl@arg+2,f
  1967  072D  0CA3               	rrf	___xxtofl@arg+1,f
  1968  072E  0CA2               	rrf	___xxtofl@arg,f
  1969  072F  3EFF               	addlw	-1
  1970  0730  1D03               	skipz
  1971  0731  2F2A               	goto	u2615
  1972  0732                     l673:
  1973  0732  30FF               	movlw	255
  1974  0733  0525               	andwf	___xxtofl@arg+3,w
  1975  0734  1D03               	btfss	3,2
  1976  0735  2F37               	goto	u2621
  1977  0736  2F38               	goto	u2620
  1978  0737                     u2621:
  1979  0737  2F17               	goto	l1958
  1980  0738                     u2620:
  1981  0738  2F44               	goto	l1966
  1982  0739                     l1964:
  1983  0739  3001               	movlw	1
  1984  073A  02A1               	subwf	___xxtofl@exp,f
  1985  073B  3001               	movlw	1
  1986  073C  00F6               	movwf	??___xxtofl
  1987  073D                     u2635:
  1988  073D  1003               	clrc
  1989  073E  0DA2               	rlf	___xxtofl@arg,f
  1990  073F  0DA3               	rlf	___xxtofl@arg+1,f
  1991  0740  0DA4               	rlf	___xxtofl@arg+2,f
  1992  0741  0DA5               	rlf	___xxtofl@arg+3,f
  1993  0742  0BF6               	decfsz	??___xxtofl,f
  1994  0743  2F3D               	goto	u2635
  1995  0744                     l1966:
  1996  0744  1BA4               	btfsc	___xxtofl@arg+2,7
  1997  0745  2F47               	goto	u2641
  1998  0746  2F48               	goto	u2640
  1999  0747                     u2641:
  2000  0747  2F4E               	goto	l680
  2001  0748                     u2640:
  2002  0748                     l1968:
  2003  0748  3002               	movlw	2
  2004  0749  0221               	subwf	___xxtofl@exp,w
  2005  074A  1803               	skipnc
  2006  074B  2F4D               	goto	u2651
  2007  074C  2F4E               	goto	u2650
  2008  074D                     u2651:
  2009  074D  2F39               	goto	l1964
  2010  074E                     u2650:
  2011  074E                     l680:
  2012  074E  1821               	btfsc	___xxtofl@exp,0
  2013  074F  2F51               	goto	u2661
  2014  0750  2F52               	goto	u2660
  2015  0751                     u2661:
  2016  0751  2F5A               	goto	l681
  2017  0752                     u2660:
  2018  0752                     l1970:
  2019  0752  30FF               	movlw	255
  2020  0753  05A2               	andwf	___xxtofl@arg,f
  2021  0754  30FF               	movlw	255
  2022  0755  05A3               	andwf	___xxtofl@arg+1,f
  2023  0756  307F               	movlw	127
  2024  0757  05A4               	andwf	___xxtofl@arg+2,f
  2025  0758  30FF               	movlw	255
  2026  0759  05A5               	andwf	___xxtofl@arg+3,f
  2027  075A                     l681:
  2028  075A  1003               	clrc
  2029  075B  0CA1               	rrf	___xxtofl@exp,f
  2030  075C                     l1972:
  2031  075C  0821               	movf	___xxtofl@exp,w
  2032  075D  00F6               	movwf	??___xxtofl
  2033  075E  01F7               	clrf	??___xxtofl+1
  2034  075F  01F8               	clrf	??___xxtofl+2
  2035  0760  01F9               	clrf	??___xxtofl+3
  2036  0761  3018               	movlw	24
  2037  0762                     u2675:
  2038  0762  1003               	clrc
  2039  0763  0DF6               	rlf	??___xxtofl,f
  2040  0764  0DF7               	rlf	??___xxtofl+1,f
  2041  0765  0DF8               	rlf	??___xxtofl+2,f
  2042  0766  0DF9               	rlf	??___xxtofl+3,f
  2043  0767                     u2670:
  2044  0767  3EFF               	addlw	-1
  2045  0768  1D03               	skipz
  2046  0769  2F62               	goto	u2675
  2047  076A  0876               	movf	??___xxtofl,w
  2048  076B  04A2               	iorwf	___xxtofl@arg,f
  2049  076C  0877               	movf	??___xxtofl+1,w
  2050  076D  04A3               	iorwf	___xxtofl@arg+1,f
  2051  076E  0878               	movf	??___xxtofl+2,w
  2052  076F  04A4               	iorwf	___xxtofl@arg+2,f
  2053  0770  0879               	movf	??___xxtofl+3,w
  2054  0771  04A5               	iorwf	___xxtofl@arg+3,f
  2055  0772                     l1974:
  2056  0772  0820               	movf	___xxtofl@sign,w
  2057  0773  1903               	btfsc	3,2
  2058  0774  2F76               	goto	u2681
  2059  0775  2F77               	goto	u2680
  2060  0776                     u2681:
  2061  0776  2F7C               	goto	l1980
  2062  0777                     u2680:
  2063  0777                     l1976:
  2064  0777  1FF5               	btfss	___xxtofl@val+3,7
  2065  0778  2F7A               	goto	u2691
  2066  0779  2F7B               	goto	u2690
  2067  077A                     u2691:
  2068  077A  2F7C               	goto	l1980
  2069  077B                     u2690:
  2070  077B                     l1978:
  2071  077B  17A5               	bsf	___xxtofl@arg+3,7
  2072  077C                     l1980:
  2073  077C  0825               	movf	___xxtofl@arg+3,w
  2074  077D  00F5               	movwf	?___xxtofl+3
  2075  077E  0824               	movf	___xxtofl@arg+2,w
  2076  077F  00F4               	movwf	?___xxtofl+2
  2077  0780  0823               	movf	___xxtofl@arg+1,w
  2078  0781  00F3               	movwf	?___xxtofl+1
  2079  0782  0822               	movf	___xxtofl@arg,w
  2080  0783  00F2               	movwf	?___xxtofl
  2081  0784                     l669:
  2082  0784  0008               	return
  2083  0785                     __end_of___xxtofl:
  2084                           
  2085                           	psect	text7
  2086  0EE8                     __ptext7:	
  2087 ;; *************** function ___fltol *****************
  2088 ;; Defined at:
  2089 ;;		line 43 in file "C:\Program Files\Microchip\xc8\v2.31\pic\sources\c90\common\fltol.c"
  2090 ;; Parameters:    Size  Location     Type
  2091 ;;  f1              4   32[BANK0 ] unsigned char 
  2092 ;; Auto vars:     Size  Location     Type
  2093 ;;  exp1            1   42[BANK0 ] unsigned char 
  2094 ;;  sign1           1   41[BANK0 ] unsigned char 
  2095 ;; Return value:  Size  Location     Type
  2096 ;;                  4   32[BANK0 ] long 
  2097 ;; Registers used:
  2098 ;;		wreg, status,2, status,0
  2099 ;; Tracked objects:
  2100 ;;		On entry : 0/0
  2101 ;;		On exit  : 0/0
  2102 ;;		Unchanged: 0/0
  2103 ;; Data sizes:     COMMON   BANK0   BANK1   BANK3   BANK2
  2104 ;;      Params:         0       4       0       0       0
  2105 ;;      Locals:         0       2       0       0       0
  2106 ;;      Temps:          0       5       0       0       0
  2107 ;;      Totals:         0      11       0       0       0
  2108 ;;Total ram usage:       11 bytes
  2109 ;; Hardware stack levels used:    1
  2110 ;; Hardware stack levels required when called:    1
  2111 ;; This function calls:
  2112 ;;		Nothing
  2113 ;; This function is called by:
  2114 ;;		_floTochar
  2115 ;; This function uses a non-reentrant model
  2116 ;;
  2117                           
  2118                           
  2119                           ;psect for function ___fltol
  2120  0EE8                     ___fltol:
  2121  0EE8                     l1758:	
  2122                           ;incstack = 0
  2123                           ; Regs used in ___fltol: [wreg+status,2+status,0]
  2124                           
  2125  0EE8  1003               	clrc
  2126  0EE9  1283               	bcf	3,5	;RP0=0, select bank0
  2127  0EEA  1303               	bcf	3,6	;RP1=0, select bank0
  2128  0EEB  0D42               	rlf	___fltol@f1+2,w
  2129  0EEC  0D43               	rlf	___fltol@f1+3,w
  2130  0EED  00C4               	movwf	??___fltol
  2131  0EEE  0844               	movf	??___fltol,w
  2132  0EEF  00CA               	movwf	___fltol@exp1
  2133  0EF0  084A               	movf	___fltol@exp1,w
  2134  0EF1  1D03               	btfss	3,2
  2135  0EF2  2EF4               	goto	u2091
  2136  0EF3  2EF5               	goto	u2090
  2137  0EF4                     u2091:
  2138  0EF4  2EFE               	goto	l1764
  2139  0EF5                     u2090:
  2140  0EF5                     l1760:
  2141  0EF5  3000               	movlw	0
  2142  0EF6  00C3               	movwf	?___fltol+3
  2143  0EF7  3000               	movlw	0
  2144  0EF8  00C2               	movwf	?___fltol+2
  2145  0EF9  3000               	movlw	0
  2146  0EFA  00C1               	movwf	?___fltol+1
  2147  0EFB  3000               	movlw	0
  2148  0EFC  00C0               	movwf	?___fltol
  2149  0EFD  2F63               	goto	l420
  2150  0EFE                     l1764:
  2151  0EFE  0840               	movf	___fltol@f1,w
  2152  0EFF  00C4               	movwf	??___fltol
  2153  0F00  0841               	movf	___fltol@f1+1,w
  2154  0F01  00C5               	movwf	??___fltol+1
  2155  0F02  0842               	movf	___fltol@f1+2,w
  2156  0F03  00C6               	movwf	??___fltol+2
  2157  0F04  0843               	movf	___fltol@f1+3,w
  2158  0F05  00C7               	movwf	??___fltol+3
  2159  0F06  301F               	movlw	31
  2160  0F07                     u2105:
  2161  0F07  1003               	clrc
  2162  0F08  0CC7               	rrf	??___fltol+3,f
  2163  0F09  0CC6               	rrf	??___fltol+2,f
  2164  0F0A  0CC5               	rrf	??___fltol+1,f
  2165  0F0B  0CC4               	rrf	??___fltol,f
  2166  0F0C                     u2100:
  2167  0F0C  3EFF               	addlw	-1
  2168  0F0D  1D03               	skipz
  2169  0F0E  2F07               	goto	u2105
  2170  0F0F  0844               	movf	??___fltol,w
  2171  0F10  00C8               	movwf	??___fltol+4
  2172  0F11  0848               	movf	??___fltol+4,w
  2173  0F12  00C9               	movwf	___fltol@sign1
  2174  0F13                     l1766:
  2175  0F13  17C2               	bsf	___fltol@f1+2,7
  2176  0F14                     l1768:
  2177  0F14  30FF               	movlw	255
  2178  0F15  05C0               	andwf	___fltol@f1,f
  2179  0F16  30FF               	movlw	255
  2180  0F17  05C1               	andwf	___fltol@f1+1,f
  2181  0F18  30FF               	movlw	255
  2182  0F19  05C2               	andwf	___fltol@f1+2,f
  2183  0F1A  3000               	movlw	0
  2184  0F1B  05C3               	andwf	___fltol@f1+3,f
  2185  0F1C                     l1770:
  2186  0F1C  3096               	movlw	150
  2187  0F1D  02CA               	subwf	___fltol@exp1,f
  2188  0F1E                     l1772:
  2189  0F1E  1FCA               	btfss	___fltol@exp1,7
  2190  0F1F  2F21               	goto	u2111
  2191  0F20  2F22               	goto	u2110
  2192  0F21                     u2111:
  2193  0F21  2F3C               	goto	l1782
  2194  0F22                     u2110:
  2195  0F22                     l1774:
  2196  0F22  084A               	movf	___fltol@exp1,w
  2197  0F23  3A80               	xorlw	128
  2198  0F24  3E97               	addlw	151
  2199  0F25  1803               	skipnc
  2200  0F26  2F28               	goto	u2121
  2201  0F27  2F29               	goto	u2120
  2202  0F28                     u2121:
  2203  0F28  2F2A               	goto	l1780
  2204  0F29                     u2120:
  2205  0F29  2EF5               	goto	l1760
  2206  0F2A                     l1780:
  2207  0F2A  3001               	movlw	1
  2208  0F2B                     u2135:
  2209  0F2B  1003               	clrc
  2210  0F2C  0CC3               	rrf	___fltol@f1+3,f
  2211  0F2D  0CC2               	rrf	___fltol@f1+2,f
  2212  0F2E  0CC1               	rrf	___fltol@f1+1,f
  2213  0F2F  0CC0               	rrf	___fltol@f1,f
  2214  0F30  3EFF               	addlw	-1
  2215  0F31  1D03               	skipz
  2216  0F32  2F2B               	goto	u2135
  2217  0F33  3001               	movlw	1
  2218  0F34  00C4               	movwf	??___fltol
  2219  0F35  0844               	movf	??___fltol,w
  2220  0F36  07CA               	addwf	___fltol@exp1,f
  2221  0F37  1D03               	btfss	3,2
  2222  0F38  2F3A               	goto	u2141
  2223  0F39  2F3B               	goto	u2140
  2224  0F3A                     u2141:
  2225  0F3A  2F2A               	goto	l1780
  2226  0F3B                     u2140:
  2227  0F3B  2F53               	goto	l1790
  2228  0F3C                     l1782:
  2229  0F3C  3020               	movlw	32
  2230  0F3D  024A               	subwf	___fltol@exp1,w
  2231  0F3E  1C03               	skipc
  2232  0F3F  2F41               	goto	u2151
  2233  0F40  2F42               	goto	u2150
  2234  0F41                     u2151:
  2235  0F41  2F4E               	goto	l427
  2236  0F42                     u2150:
  2237  0F42  2EF5               	goto	l1760
  2238  0F43                     l1788:
  2239  0F43  3001               	movlw	1
  2240  0F44  00C4               	movwf	??___fltol
  2241  0F45                     u2165:
  2242  0F45  1003               	clrc
  2243  0F46  0DC0               	rlf	___fltol@f1,f
  2244  0F47  0DC1               	rlf	___fltol@f1+1,f
  2245  0F48  0DC2               	rlf	___fltol@f1+2,f
  2246  0F49  0DC3               	rlf	___fltol@f1+3,f
  2247  0F4A  0BC4               	decfsz	??___fltol,f
  2248  0F4B  2F45               	goto	u2165
  2249  0F4C  3001               	movlw	1
  2250  0F4D  02CA               	subwf	___fltol@exp1,f
  2251  0F4E                     l427:
  2252  0F4E  084A               	movf	___fltol@exp1,w
  2253  0F4F  1D03               	btfss	3,2
  2254  0F50  2F52               	goto	u2171
  2255  0F51  2F53               	goto	u2170
  2256  0F52                     u2171:
  2257  0F52  2F43               	goto	l1788
  2258  0F53                     u2170:
  2259  0F53                     l1790:
  2260  0F53  0849               	movf	___fltol@sign1,w
  2261  0F54  1903               	btfsc	3,2
  2262  0F55  2F57               	goto	u2181
  2263  0F56  2F58               	goto	u2180
  2264  0F57                     u2181:
  2265  0F57  2F63               	goto	l430
  2266  0F58                     u2180:
  2267  0F58                     l1792:
  2268  0F58  09C0               	comf	___fltol@f1,f
  2269  0F59  09C1               	comf	___fltol@f1+1,f
  2270  0F5A  09C2               	comf	___fltol@f1+2,f
  2271  0F5B  09C3               	comf	___fltol@f1+3,f
  2272  0F5C  0AC0               	incf	___fltol@f1,f
  2273  0F5D  1903               	skipnz
  2274  0F5E  0AC1               	incf	___fltol@f1+1,f
  2275  0F5F  1903               	skipnz
  2276  0F60  0AC2               	incf	___fltol@f1+2,f
  2277  0F61  1903               	skipnz
  2278  0F62  0AC3               	incf	___fltol@f1+3,f
  2279  0F63                     l430:
  2280  0F63                     l420:
  2281  0F63  0008               	return
  2282  0F64                     __end_of___fltol:
  2283                           
  2284                           	psect	text8
  2285  0D6B                     __ptext8:	
  2286 ;; *************** function ___flsub *****************
  2287 ;; Defined at:
  2288 ;;		line 242 in file "C:\Program Files\Microchip\xc8\v2.31\pic\sources\c90\common\sprcadd.c"
  2289 ;; Parameters:    Size  Location     Type
  2290 ;;  a               4   12[BANK0 ] long 
  2291 ;;  b               4   16[BANK0 ] long 
  2292 ;; Auto vars:     Size  Location     Type
  2293 ;;		None
  2294 ;; Return value:  Size  Location     Type
  2295 ;;                  4   12[BANK0 ] long 
  2296 ;; Registers used:
  2297 ;;		wreg, status,2, status,0, btemp+1, pclath, cstack
  2298 ;; Tracked objects:
  2299 ;;		On entry : 0/0
  2300 ;;		On exit  : 0/0
  2301 ;;		Unchanged: 0/0
  2302 ;; Data sizes:     COMMON   BANK0   BANK1   BANK3   BANK2
  2303 ;;      Params:         0       8       0       0       0
  2304 ;;      Locals:         0       0       0       0       0
  2305 ;;      Temps:          0       0       0       0       0
  2306 ;;      Totals:         0       8       0       0       0
  2307 ;;Total ram usage:        8 bytes
  2308 ;; Hardware stack levels used:    1
  2309 ;; Hardware stack levels required when called:    2
  2310 ;; This function calls:
  2311 ;;		___fladd
  2312 ;; This function is called by:
  2313 ;;		_floTochar
  2314 ;; This function uses a non-reentrant model
  2315 ;;
  2316                           
  2317                           
  2318                           ;psect for function ___flsub
  2319  0D6B                     ___flsub:
  2320  0D6B                     l1794:	
  2321                           ;incstack = 0
  2322                           ; Regs used in ___flsub: [wreg+status,2+status,0+btemp+1+pclath+cstack]
  2323                           
  2324  0D6B  3080               	movlw	128
  2325  0D6C  1283               	bcf	3,5	;RP0=0, select bank0
  2326  0D6D  1303               	bcf	3,6	;RP1=0, select bank0
  2327  0D6E  06AF               	xorwf	___flsub@a+3,f
  2328  0D6F                     l1796:
  2329  0D6F  0833               	movf	___flsub@b+3,w
  2330  0D70  00F5               	movwf	___fladd@b+3
  2331  0D71  0832               	movf	___flsub@b+2,w
  2332  0D72  00F4               	movwf	___fladd@b+2
  2333  0D73  0831               	movf	___flsub@b+1,w
  2334  0D74  00F3               	movwf	___fladd@b+1
  2335  0D75  0830               	movf	___flsub@b,w
  2336  0D76  00F2               	movwf	___fladd@b
  2337  0D77  082F               	movf	___flsub@a+3,w
  2338  0D78  00F9               	movwf	___fladd@a+3
  2339  0D79  082E               	movf	___flsub@a+2,w
  2340  0D7A  00F8               	movwf	___fladd@a+2
  2341  0D7B  082D               	movf	___flsub@a+1,w
  2342  0D7C  00F7               	movwf	___fladd@a+1
  2343  0D7D  082C               	movf	___flsub@a,w
  2344  0D7E  00F6               	movwf	___fladd@a
  2345  0D7F  120A  118A  237E  120A  158A  	fcall	___fladd
  2346  0D84  0875               	movf	?___fladd+3,w
  2347  0D85  1283               	bcf	3,5	;RP0=0, select bank0
  2348  0D86  1303               	bcf	3,6	;RP1=0, select bank0
  2349  0D87  00AF               	movwf	?___flsub+3
  2350  0D88  0874               	movf	?___fladd+2,w
  2351  0D89  00AE               	movwf	?___flsub+2
  2352  0D8A  0873               	movf	?___fladd+1,w
  2353  0D8B  00AD               	movwf	?___flsub+1
  2354  0D8C  0872               	movf	?___fladd,w
  2355  0D8D  00AC               	movwf	?___flsub
  2356  0D8E                     l573:
  2357  0D8E  0008               	return
  2358  0D8F                     __end_of___flsub:
  2359                           
  2360                           	psect	text9
  2361  037E                     __ptext9:	
  2362 ;; *************** function ___fladd *****************
  2363 ;; Defined at:
  2364 ;;		line 10 in file "C:\Program Files\Microchip\xc8\v2.31\pic\sources\c90\common\sprcadd.c"
  2365 ;; Parameters:    Size  Location     Type
  2366 ;;  b               4    2[COMMON] long 
  2367 ;;  a               4    6[COMMON] long 
  2368 ;; Auto vars:     Size  Location     Type
  2369 ;;  grs             1   11[BANK0 ] unsigned char 
  2370 ;;  bexp            1   10[BANK0 ] unsigned char 
  2371 ;;  aexp            1    9[BANK0 ] unsigned char 
  2372 ;;  signs           1    8[BANK0 ] unsigned char 
  2373 ;; Return value:  Size  Location     Type
  2374 ;;                  4    2[COMMON] unsigned char 
  2375 ;; Registers used:
  2376 ;;		wreg, status,2, status,0, btemp+1
  2377 ;; Tracked objects:
  2378 ;;		On entry : 0/0
  2379 ;;		On exit  : 0/0
  2380 ;;		Unchanged: 0/0
  2381 ;; Data sizes:     COMMON   BANK0   BANK1   BANK3   BANK2
  2382 ;;      Params:         8       0       0       0       0
  2383 ;;      Locals:         0       4       0       0       0
  2384 ;;      Temps:          0       8       0       0       0
  2385 ;;      Totals:         8      12       0       0       0
  2386 ;;Total ram usage:       20 bytes
  2387 ;; Hardware stack levels used:    1
  2388 ;; Hardware stack levels required when called:    1
  2389 ;; This function calls:
  2390 ;;		Nothing
  2391 ;; This function is called by:
  2392 ;;		___flsub
  2393 ;; This function uses a non-reentrant model
  2394 ;;
  2395                           
  2396                           
  2397                           ;psect for function ___fladd
  2398  037E                     ___fladd:
  2399  037E                     l1506:	
  2400                           ;incstack = 0
  2401                           ; Regs used in ___fladd: [wreg+status,2+status,0+btemp+1]
  2402                           
  2403  037E  0875               	movf	___fladd@b+3,w
  2404  037F  3980               	andlw	128
  2405  0380  1283               	bcf	3,5	;RP0=0, select bank0
  2406  0381  1303               	bcf	3,6	;RP1=0, select bank0
  2407  0382  00A0               	movwf	??___fladd
  2408  0383  0820               	movf	??___fladd,w
  2409  0384  00A8               	movwf	___fladd@signs
  2410  0385                     l1508:
  2411  0385  0875               	movf	___fladd@b+3,w
  2412  0386  00A0               	movwf	??___fladd
  2413  0387  0720               	addwf	??___fladd,w
  2414  0388  00A1               	movwf	??___fladd+1
  2415  0389  0821               	movf	??___fladd+1,w
  2416  038A  00AA               	movwf	___fladd@bexp
  2417  038B                     l1510:
  2418  038B  1FF4               	btfss	___fladd@b+2,7
  2419  038C  2B8E               	goto	u1561
  2420  038D  2B8F               	goto	u1560
  2421  038E                     u1561:
  2422  038E  2B90               	goto	l1514
  2423  038F                     u1560:
  2424  038F                     l1512:
  2425  038F  142A               	bsf	___fladd@bexp,0
  2426  0390                     l1514:
  2427  0390  082A               	movf	___fladd@bexp,w
  2428  0391  1903               	btfsc	3,2
  2429  0392  2B94               	goto	u1571
  2430  0393  2B95               	goto	u1570
  2431  0394                     u1571:
  2432  0394  2BA5               	goto	l1524
  2433  0395                     u1570:
  2434  0395                     l1516:
  2435  0395  0A2A               	incf	___fladd@bexp,w
  2436  0396  1D03               	btfss	3,2
  2437  0397  2B99               	goto	u1581
  2438  0398  2B9A               	goto	u1580
  2439  0399                     u1581:
  2440  0399  2BA2               	goto	l1520
  2441  039A                     u1580:
  2442  039A                     l1518:
  2443  039A  3000               	movlw	0
  2444  039B  00F5               	movwf	___fladd@b+3
  2445  039C  3000               	movlw	0
  2446  039D  00F4               	movwf	___fladd@b+2
  2447  039E  3000               	movlw	0
  2448  039F  00F3               	movwf	___fladd@b+1
  2449  03A0  3000               	movlw	0
  2450  03A1  00F2               	movwf	___fladd@b
  2451  03A2                     l1520:
  2452  03A2  17F4               	bsf	___fladd@b+2,7
  2453  03A3                     l1522:
  2454  03A3  01F5               	clrf	___fladd@b+3
  2455  03A4  2BAD               	goto	l1526
  2456  03A5                     l1524:
  2457  03A5  3000               	movlw	0
  2458  03A6  00F5               	movwf	___fladd@b+3
  2459  03A7  3000               	movlw	0
  2460  03A8  00F4               	movwf	___fladd@b+2
  2461  03A9  3000               	movlw	0
  2462  03AA  00F3               	movwf	___fladd@b+1
  2463  03AB  3000               	movlw	0
  2464  03AC  00F2               	movwf	___fladd@b
  2465  03AD                     l1526:
  2466  03AD  0879               	movf	___fladd@a+3,w
  2467  03AE  3980               	andlw	128
  2468  03AF  00A0               	movwf	??___fladd
  2469  03B0  0820               	movf	??___fladd,w
  2470  03B1  00A9               	movwf	___fladd@aexp
  2471  03B2                     l1528:
  2472  03B2  0829               	movf	___fladd@aexp,w
  2473  03B3  0628               	xorwf	___fladd@signs,w
  2474  03B4  1903               	skipnz
  2475  03B5  2BB7               	goto	u1591
  2476  03B6  2BB8               	goto	u1590
  2477  03B7                     u1591:
  2478  03B7  2BB9               	goto	l1532
  2479  03B8                     u1590:
  2480  03B8                     l1530:
  2481  03B8  1728               	bsf	___fladd@signs,6
  2482  03B9                     l1532:
  2483  03B9  0879               	movf	___fladd@a+3,w
  2484  03BA  00A0               	movwf	??___fladd
  2485  03BB  0720               	addwf	??___fladd,w
  2486  03BC  00A1               	movwf	??___fladd+1
  2487  03BD  0821               	movf	??___fladd+1,w
  2488  03BE  00A9               	movwf	___fladd@aexp
  2489  03BF                     l1534:
  2490  03BF  1FF8               	btfss	___fladd@a+2,7
  2491  03C0  2BC2               	goto	u1601
  2492  03C1  2BC3               	goto	u1600
  2493  03C2                     u1601:
  2494  03C2  2BC4               	goto	l1538
  2495  03C3                     u1600:
  2496  03C3                     l1536:
  2497  03C3  1429               	bsf	___fladd@aexp,0
  2498  03C4                     l1538:
  2499  03C4  0829               	movf	___fladd@aexp,w
  2500  03C5  1903               	btfsc	3,2
  2501  03C6  2BC8               	goto	u1611
  2502  03C7  2BC9               	goto	u1610
  2503  03C8                     u1611:
  2504  03C8  2BD9               	goto	l1548
  2505  03C9                     u1610:
  2506  03C9                     l1540:
  2507  03C9  0A29               	incf	___fladd@aexp,w
  2508  03CA  1D03               	btfss	3,2
  2509  03CB  2BCD               	goto	u1621
  2510  03CC  2BCE               	goto	u1620
  2511  03CD                     u1621:
  2512  03CD  2BD6               	goto	l1544
  2513  03CE                     u1620:
  2514  03CE                     l1542:
  2515  03CE  3000               	movlw	0
  2516  03CF  00F9               	movwf	___fladd@a+3
  2517  03D0  3000               	movlw	0
  2518  03D1  00F8               	movwf	___fladd@a+2
  2519  03D2  3000               	movlw	0
  2520  03D3  00F7               	movwf	___fladd@a+1
  2521  03D4  3000               	movlw	0
  2522  03D5  00F6               	movwf	___fladd@a
  2523  03D6                     l1544:
  2524  03D6  17F8               	bsf	___fladd@a+2,7
  2525  03D7                     l1546:
  2526  03D7  01F9               	clrf	___fladd@a+3
  2527  03D8  2BE1               	goto	l527
  2528  03D9                     l1548:
  2529  03D9  3000               	movlw	0
  2530  03DA  00F9               	movwf	___fladd@a+3
  2531  03DB  3000               	movlw	0
  2532  03DC  00F8               	movwf	___fladd@a+2
  2533  03DD  3000               	movlw	0
  2534  03DE  00F7               	movwf	___fladd@a+1
  2535  03DF  3000               	movlw	0
  2536  03E0  00F6               	movwf	___fladd@a
  2537  03E1                     l527:
  2538  03E1  082A               	movf	___fladd@bexp,w
  2539  03E2  0229               	subwf	___fladd@aexp,w
  2540  03E3  1803               	skipnc
  2541  03E4  2BE6               	goto	u1631
  2542  03E5  2BE7               	goto	u1630
  2543  03E6                     u1631:
  2544  03E6  2C2B               	goto	l1584
  2545  03E7                     u1630:
  2546  03E7                     l1550:
  2547  03E7  1F28               	btfss	___fladd@signs,6
  2548  03E8  2BEA               	goto	u1641
  2549  03E9  2BEB               	goto	u1640
  2550  03EA                     u1641:
  2551  03EA  2BEF               	goto	l1554
  2552  03EB                     u1640:
  2553  03EB                     l1552:
  2554  03EB  3080               	movlw	128
  2555  03EC  00A0               	movwf	??___fladd
  2556  03ED  0820               	movf	??___fladd,w
  2557  03EE  06A8               	xorwf	___fladd@signs,f
  2558  03EF                     l1554:
  2559  03EF  082A               	movf	___fladd@bexp,w
  2560  03F0  00A0               	movwf	??___fladd
  2561  03F1  0820               	movf	??___fladd,w
  2562  03F2  00AB               	movwf	___fladd@grs
  2563  03F3                     l1556:
  2564  03F3  0829               	movf	___fladd@aexp,w
  2565  03F4  00A0               	movwf	??___fladd
  2566  03F5  0820               	movf	??___fladd,w
  2567  03F6  00AA               	movwf	___fladd@bexp
  2568  03F7                     l1558:
  2569  03F7  082B               	movf	___fladd@grs,w
  2570  03F8  00A0               	movwf	??___fladd
  2571  03F9  0820               	movf	??___fladd,w
  2572  03FA  00A9               	movwf	___fladd@aexp
  2573  03FB                     l1560:
  2574  03FB  0872               	movf	___fladd@b,w
  2575  03FC  00A0               	movwf	??___fladd
  2576  03FD  0820               	movf	??___fladd,w
  2577  03FE  00AB               	movwf	___fladd@grs
  2578  03FF                     l1562:
  2579  03FF  0876               	movf	___fladd@a,w
  2580  0400  00A0               	movwf	??___fladd
  2581  0401  0820               	movf	??___fladd,w
  2582  0402  00F2               	movwf	___fladd@b
  2583  0403                     l1564:
  2584  0403  082B               	movf	___fladd@grs,w
  2585  0404  00A0               	movwf	??___fladd
  2586  0405  0820               	movf	??___fladd,w
  2587  0406  00F6               	movwf	___fladd@a
  2588  0407                     l1566:
  2589  0407  0873               	movf	___fladd@b+1,w
  2590  0408  00A0               	movwf	??___fladd
  2591  0409  0820               	movf	??___fladd,w
  2592  040A  00AB               	movwf	___fladd@grs
  2593  040B                     l1568:
  2594  040B  0877               	movf	___fladd@a+1,w
  2595  040C  00A0               	movwf	??___fladd
  2596  040D  0820               	movf	??___fladd,w
  2597  040E  00F3               	movwf	___fladd@b+1
  2598  040F                     l1570:
  2599  040F  082B               	movf	___fladd@grs,w
  2600  0410  00A0               	movwf	??___fladd
  2601  0411  0820               	movf	??___fladd,w
  2602  0412  00F7               	movwf	___fladd@a+1
  2603  0413                     l1572:
  2604  0413  0874               	movf	___fladd@b+2,w
  2605  0414  00A0               	movwf	??___fladd
  2606  0415  0820               	movf	??___fladd,w
  2607  0416  00AB               	movwf	___fladd@grs
  2608  0417                     l1574:
  2609  0417  0878               	movf	___fladd@a+2,w
  2610  0418  00A0               	movwf	??___fladd
  2611  0419  0820               	movf	??___fladd,w
  2612  041A  00F4               	movwf	___fladd@b+2
  2613  041B                     l1576:
  2614  041B  082B               	movf	___fladd@grs,w
  2615  041C  00A0               	movwf	??___fladd
  2616  041D  0820               	movf	??___fladd,w
  2617  041E  00F8               	movwf	___fladd@a+2
  2618  041F                     l1578:
  2619  041F  0875               	movf	___fladd@b+3,w
  2620  0420  00A0               	movwf	??___fladd
  2621  0421  0820               	movf	??___fladd,w
  2622  0422  00AB               	movwf	___fladd@grs
  2623  0423                     l1580:
  2624  0423  0879               	movf	___fladd@a+3,w
  2625  0424  00A0               	movwf	??___fladd
  2626  0425  0820               	movf	??___fladd,w
  2627  0426  00F5               	movwf	___fladd@b+3
  2628  0427                     l1582:
  2629  0427  082B               	movf	___fladd@grs,w
  2630  0428  00A0               	movwf	??___fladd
  2631  0429  0820               	movf	??___fladd,w
  2632  042A  00F9               	movwf	___fladd@a+3
  2633  042B                     l1584:
  2634  042B  01AB               	clrf	___fladd@grs
  2635  042C                     l1586:
  2636  042C  0829               	movf	___fladd@aexp,w
  2637  042D  00A0               	movwf	??___fladd
  2638  042E  01A1               	clrf	??___fladd+1
  2639  042F  0821               	movf	??___fladd+1,w
  2640  0430  00A3               	movwf	??___fladd+3
  2641  0431  082A               	movf	___fladd@bexp,w
  2642  0432  0220               	subwf	??___fladd,w
  2643  0433  00A2               	movwf	??___fladd+2
  2644  0434  1C03               	skipc
  2645  0435  03A3               	decf	??___fladd+3,f
  2646  0436  0823               	movf	??___fladd+3,w
  2647  0437  3A80               	xorlw	128
  2648  0438  00FF               	movwf	btemp+1
  2649  0439  3080               	movlw	128
  2650  043A  027F               	subwf	btemp+1,w
  2651  043B  1D03               	skipz
  2652  043C  2C3F               	goto	u1655
  2653  043D  301A               	movlw	26
  2654  043E  0222               	subwf	??___fladd+2,w
  2655  043F                     u1655:
  2656  043F  1C03               	skipc
  2657  0440  2C42               	goto	u1651
  2658  0441  2C43               	goto	u1650
  2659  0442                     u1651:
  2660  0442  2C80               	goto	l1602
  2661  0443                     u1650:
  2662  0443                     l1588:
  2663  0443  0875               	movf	___fladd@b+3,w
  2664  0444  0474               	iorwf	___fladd@b+2,w
  2665  0445  0473               	iorwf	___fladd@b+1,w
  2666  0446  0472               	iorwf	___fladd@b,w
  2667  0447  1D03               	skipz
  2668  0448  2C4A               	goto	u1661
  2669  0449  2C4C               	goto	u1660
  2670  044A                     u1661:
  2671  044A  3001               	movlw	1
  2672  044B  2C4D               	goto	u1670
  2673  044C                     u1660:
  2674  044C  3000               	movlw	0
  2675  044D                     u1670:
  2676  044D  1283               	bcf	3,5	;RP0=0, select bank0
  2677  044E  1303               	bcf	3,6	;RP1=0, select bank0
  2678  044F  00A0               	movwf	??___fladd
  2679  0450  0820               	movf	??___fladd,w
  2680  0451  00AB               	movwf	___fladd@grs
  2681  0452  3000               	movlw	0
  2682  0453  00F5               	movwf	___fladd@b+3
  2683  0454  3000               	movlw	0
  2684  0455  00F4               	movwf	___fladd@b+2
  2685  0456  3000               	movlw	0
  2686  0457  00F3               	movwf	___fladd@b+1
  2687  0458  3000               	movlw	0
  2688  0459  00F2               	movwf	___fladd@b
  2689  045A  0829               	movf	___fladd@aexp,w
  2690  045B  00A0               	movwf	??___fladd
  2691  045C  0820               	movf	??___fladd,w
  2692  045D  00AA               	movwf	___fladd@bexp
  2693  045E  2C88               	goto	l531
  2694  045F                     l533:
  2695  045F  1C2B               	btfss	___fladd@grs,0
  2696  0460  2C62               	goto	u1681
  2697  0461  2C63               	goto	u1680
  2698  0462                     u1681:
  2699  0462  2C6C               	goto	l1592
  2700  0463                     u1680:
  2701  0463                     l1590:
  2702  0463  082B               	movf	___fladd@grs,w
  2703  0464  00A0               	movwf	??___fladd
  2704  0465  1003               	clrc
  2705  0466  0C20               	rrf	??___fladd,w
  2706  0467  3801               	iorlw	1
  2707  0468  00A1               	movwf	??___fladd+1
  2708  0469  0821               	movf	??___fladd+1,w
  2709  046A  00AB               	movwf	___fladd@grs
  2710  046B  2C6E               	goto	l1594
  2711  046C                     l1592:
  2712  046C  1003               	clrc
  2713  046D  0CAB               	rrf	___fladd@grs,f
  2714  046E                     l1594:
  2715  046E  1C72               	btfss	___fladd@b,0
  2716  046F  2C71               	goto	u1691
  2717  0470  2C72               	goto	u1690
  2718  0471                     u1691:
  2719  0471  2C73               	goto	l1598
  2720  0472                     u1690:
  2721  0472                     l1596:
  2722  0472  17AB               	bsf	___fladd@grs,7
  2723  0473                     l1598:
  2724  0473  3001               	movlw	1
  2725  0474  00A0               	movwf	??___fladd
  2726  0475                     u1705:
  2727  0475  0D75               	rlf	___fladd@b+3,w
  2728  0476  0CF5               	rrf	___fladd@b+3,f
  2729  0477  0CF4               	rrf	___fladd@b+2,f
  2730  0478  0CF3               	rrf	___fladd@b+1,f
  2731  0479  0CF2               	rrf	___fladd@b,f
  2732  047A  0BA0               	decfsz	??___fladd& (0+127),f
  2733  047B  2C75               	goto	u1705
  2734  047C                     l1600:
  2735  047C  3001               	movlw	1
  2736  047D  00A0               	movwf	??___fladd
  2737  047E  0820               	movf	??___fladd,w
  2738  047F  07AA               	addwf	___fladd@bexp,f
  2739  0480                     l1602:
  2740  0480  1283               	bcf	3,5	;RP0=0, select bank0
  2741  0481  1303               	bcf	3,6	;RP1=0, select bank0
  2742  0482  0829               	movf	___fladd@aexp,w
  2743  0483  022A               	subwf	___fladd@bexp,w
  2744  0484  1C03               	skipc
  2745  0485  2C87               	goto	u1711
  2746  0486  2C88               	goto	u1710
  2747  0487                     u1711:
  2748  0487  2C5F               	goto	l533
  2749  0488                     u1710:
  2750  0488                     l531:
  2751  0488  1B28               	btfsc	___fladd@signs,6
  2752  0489  2C8B               	goto	u1721
  2753  048A  2C8C               	goto	u1720
  2754  048B                     u1721:
  2755  048B  2CD7               	goto	l1628
  2756  048C                     u1720:
  2757  048C                     l1604:
  2758  048C  082A               	movf	___fladd@bexp,w
  2759  048D  1D03               	btfss	3,2
  2760  048E  2C90               	goto	u1731
  2761  048F  2C91               	goto	u1730
  2762  0490                     u1731:
  2763  0490  2C9A               	goto	l1610
  2764  0491                     u1730:
  2765  0491                     l1606:
  2766  0491  3000               	movlw	0
  2767  0492  00F5               	movwf	?___fladd+3
  2768  0493  3000               	movlw	0
  2769  0494  00F4               	movwf	?___fladd+2
  2770  0495  3000               	movlw	0
  2771  0496  00F3               	movwf	?___fladd+1
  2772  0497  3000               	movlw	0
  2773  0498  00F2               	movwf	?___fladd
  2774  0499  2E05               	goto	l540
  2775  049A                     l1610:
  2776  049A  0876               	movf	___fladd@a,w
  2777  049B  07F2               	addwf	___fladd@b,f
  2778  049C  0877               	movf	___fladd@a+1,w
  2779  049D  1103               	clrz
  2780  049E  1803               	skipnc
  2781  049F  3E01               	addlw	1
  2782  04A0  1903               	skipnz
  2783  04A1  2CA3               	goto	u1741
  2784  04A2  07F3               	addwf	___fladd@b+1,f
  2785  04A3                     u1741:
  2786  04A3  0878               	movf	___fladd@a+2,w
  2787  04A4  1103               	clrz
  2788  04A5  1803               	skipnc
  2789  04A6  3E01               	addlw	1
  2790  04A7  1903               	skipnz
  2791  04A8  2CAA               	goto	u1742
  2792  04A9  07F4               	addwf	___fladd@b+2,f
  2793  04AA                     u1742:
  2794  04AA  0879               	movf	___fladd@a+3,w
  2795  04AB  1103               	clrz
  2796  04AC  1803               	skipnc
  2797  04AD  3E01               	addlw	1
  2798  04AE  1903               	skipnz
  2799  04AF  2CB1               	goto	u1743
  2800  04B0  07F5               	addwf	___fladd@b+3,f
  2801  04B1                     u1743:
  2802  04B1                     l1612:
  2803  04B1  1C75               	btfss	___fladd@b+3,0
  2804  04B2  2CB4               	goto	u1751
  2805  04B3  2CB5               	goto	u1750
  2806  04B4                     u1751:
  2807  04B4  2D8B               	goto	l1662
  2808  04B5                     u1750:
  2809  04B5                     l1614:
  2810  04B5  1C2B               	btfss	___fladd@grs,0
  2811  04B6  2CB8               	goto	u1761
  2812  04B7  2CB9               	goto	u1760
  2813  04B8                     u1761:
  2814  04B8  2CC2               	goto	l1618
  2815  04B9                     u1760:
  2816  04B9                     l1616:
  2817  04B9  082B               	movf	___fladd@grs,w
  2818  04BA  00A0               	movwf	??___fladd
  2819  04BB  1003               	clrc
  2820  04BC  0C20               	rrf	??___fladd,w
  2821  04BD  3801               	iorlw	1
  2822  04BE  00A1               	movwf	??___fladd+1
  2823  04BF  0821               	movf	??___fladd+1,w
  2824  04C0  00AB               	movwf	___fladd@grs
  2825  04C1  2CC4               	goto	l1620
  2826  04C2                     l1618:
  2827  04C2  1003               	clrc
  2828  04C3  0CAB               	rrf	___fladd@grs,f
  2829  04C4                     l1620:
  2830  04C4  1C72               	btfss	___fladd@b,0
  2831  04C5  2CC7               	goto	u1771
  2832  04C6  2CC8               	goto	u1770
  2833  04C7                     u1771:
  2834  04C7  2CC9               	goto	l1624
  2835  04C8                     u1770:
  2836  04C8                     l1622:
  2837  04C8  17AB               	bsf	___fladd@grs,7
  2838  04C9                     l1624:
  2839  04C9  3001               	movlw	1
  2840  04CA  00A0               	movwf	??___fladd
  2841  04CB                     u1785:
  2842  04CB  0D75               	rlf	___fladd@b+3,w
  2843  04CC  0CF5               	rrf	___fladd@b+3,f
  2844  04CD  0CF4               	rrf	___fladd@b+2,f
  2845  04CE  0CF3               	rrf	___fladd@b+1,f
  2846  04CF  0CF2               	rrf	___fladd@b,f
  2847  04D0  0BA0               	decfsz	??___fladd& (0+127),f
  2848  04D1  2CCB               	goto	u1785
  2849  04D2                     l1626:
  2850  04D2  3001               	movlw	1
  2851  04D3  00A0               	movwf	??___fladd
  2852  04D4  0820               	movf	??___fladd,w
  2853  04D5  07AA               	addwf	___fladd@bexp,f
  2854  04D6  2D8B               	goto	l1662
  2855  04D7                     l1628:
  2856  04D7  0875               	movf	___fladd@b+3,w
  2857  04D8  3A80               	xorlw	128
  2858  04D9  00FF               	movwf	btemp+1
  2859  04DA  0879               	movf	___fladd@a+3,w
  2860  04DB  3A80               	xorlw	128
  2861  04DC  027F               	subwf	btemp+1,w
  2862  04DD  1D03               	skipz
  2863  04DE  2CE9               	goto	u1793
  2864  04DF  0878               	movf	___fladd@a+2,w
  2865  04E0  0274               	subwf	___fladd@b+2,w
  2866  04E1  1D03               	skipz
  2867  04E2  2CE9               	goto	u1793
  2868  04E3  0877               	movf	___fladd@a+1,w
  2869  04E4  0273               	subwf	___fladd@b+1,w
  2870  04E5  1D03               	skipz
  2871  04E6  2CE9               	goto	u1793
  2872  04E7  0876               	movf	___fladd@a,w
  2873  04E8  0272               	subwf	___fladd@b,w
  2874  04E9                     u1793:
  2875  04E9  1803               	skipnc
  2876  04EA  2CEC               	goto	u1791
  2877  04EB  2CED               	goto	u1790
  2878  04EC                     u1791:
  2879  04EC  2D45               	goto	l1638
  2880  04ED                     u1790:
  2881  04ED                     l1630:
  2882  04ED  30FF               	movlw	255
  2883  04EE  00A0               	movwf	??___fladd
  2884  04EF  30FF               	movlw	255
  2885  04F0  00A1               	movwf	??___fladd+1
  2886  04F1  30FF               	movlw	255
  2887  04F2  00A2               	movwf	??___fladd+2
  2888  04F3  30FF               	movlw	255
  2889  04F4  00A3               	movwf	??___fladd+3
  2890  04F5  0876               	movf	___fladd@a,w
  2891  04F6  00A4               	movwf	??___fladd+4
  2892  04F7  0877               	movf	___fladd@a+1,w
  2893  04F8  00A5               	movwf	??___fladd+5
  2894  04F9  0878               	movf	___fladd@a+2,w
  2895  04FA  00A6               	movwf	??___fladd+6
  2896  04FB  0879               	movf	___fladd@a+3,w
  2897  04FC  00A7               	movwf	??___fladd+7
  2898  04FD  0872               	movf	___fladd@b,w
  2899  04FE  02A4               	subwf	??___fladd+4,f
  2900  04FF  0873               	movf	___fladd@b+1,w
  2901  0500  1C03               	skipc
  2902  0501  0F73               	incfsz	___fladd@b+1,w
  2903  0502  2D04               	goto	u1801
  2904  0503  2D05               	goto	u1802
  2905  0504                     u1801:
  2906  0504  02A5               	subwf	??___fladd+5,f
  2907  0505                     u1802:
  2908  0505  0874               	movf	___fladd@b+2,w
  2909  0506  1C03               	skipc
  2910  0507  0F74               	incfsz	___fladd@b+2,w
  2911  0508  2D0A               	goto	u1803
  2912  0509  2D0B               	goto	u1804
  2913  050A                     u1803:
  2914  050A  02A6               	subwf	??___fladd+6,f
  2915  050B                     u1804:
  2916  050B  0875               	movf	___fladd@b+3,w
  2917  050C  1C03               	skipc
  2918  050D  0F75               	incfsz	___fladd@b+3,w
  2919  050E  2D10               	goto	u1805
  2920  050F  2D11               	goto	u1806
  2921  0510                     u1805:
  2922  0510  02A7               	subwf	??___fladd+7,f
  2923  0511                     u1806:
  2924  0511  0824               	movf	??___fladd+4,w
  2925  0512  07A0               	addwf	??___fladd,f
  2926  0513  0825               	movf	??___fladd+5,w
  2927  0514  1803               	skipnc
  2928  0515  0F25               	incfsz	??___fladd+5,w
  2929  0516  2D18               	goto	u1810
  2930  0517  2D19               	goto	u1811
  2931  0518                     u1810:
  2932  0518  07A1               	addwf	??___fladd+1,f
  2933  0519                     u1811:
  2934  0519  0826               	movf	??___fladd+6,w
  2935  051A  1803               	skipnc
  2936  051B  0F26               	incfsz	??___fladd+6,w
  2937  051C  2D1E               	goto	u1812
  2938  051D  2D1F               	goto	u1813
  2939  051E                     u1812:
  2940  051E  07A2               	addwf	??___fladd+2,f
  2941  051F                     u1813:
  2942  051F  0827               	movf	??___fladd+7,w
  2943  0520  1803               	skipnc
  2944  0521  0A27               	incf	??___fladd+7,w
  2945  0522  07A3               	addwf	??___fladd+3,f
  2946  0523  0823               	movf	??___fladd+3,w
  2947  0524  00F5               	movwf	___fladd@b+3
  2948  0525  0822               	movf	??___fladd+2,w
  2949  0526  00F4               	movwf	___fladd@b+2
  2950  0527  0821               	movf	??___fladd+1,w
  2951  0528  00F3               	movwf	___fladd@b+1
  2952  0529  0820               	movf	??___fladd,w
  2953  052A  00F2               	movwf	___fladd@b
  2954  052B                     l1632:
  2955  052B  3080               	movlw	128
  2956  052C  00A0               	movwf	??___fladd
  2957  052D  0820               	movf	??___fladd,w
  2958  052E  06A8               	xorwf	___fladd@signs,f
  2959  052F  09AB               	comf	___fladd@grs,f
  2960  0530  0AAB               	incf	___fladd@grs,f
  2961  0531                     l1634:
  2962  0531  082B               	movf	___fladd@grs,w
  2963  0532  1D03               	btfss	3,2
  2964  0533  2D35               	goto	u1821
  2965  0534  2D36               	goto	u1820
  2966  0535                     u1821:
  2967  0535  2D53               	goto	l548
  2968  0536                     u1820:
  2969  0536                     l1636:
  2970  0536  3001               	movlw	1
  2971  0537  07F2               	addwf	___fladd@b,f
  2972  0538  3000               	movlw	0
  2973  0539  1803               	skipnc
  2974  053A  3001               	movlw	1
  2975  053B  07F3               	addwf	___fladd@b+1,f
  2976  053C  3000               	movlw	0
  2977  053D  1803               	skipnc
  2978  053E  3001               	movlw	1
  2979  053F  07F4               	addwf	___fladd@b+2,f
  2980  0540  3000               	movlw	0
  2981  0541  1803               	skipnc
  2982  0542  3001               	movlw	1
  2983  0543  07F5               	addwf	___fladd@b+3,f
  2984  0544  2D53               	goto	l548
  2985  0545                     l1638:
  2986  0545  0876               	movf	___fladd@a,w
  2987  0546  02F2               	subwf	___fladd@b,f
  2988  0547  0877               	movf	___fladd@a+1,w
  2989  0548  1C03               	skipc
  2990  0549  0F77               	incfsz	___fladd@a+1,w
  2991  054A  02F3               	subwf	___fladd@b+1,f
  2992  054B  0878               	movf	___fladd@a+2,w
  2993  054C  1C03               	skipc
  2994  054D  0F78               	incfsz	___fladd@a+2,w
  2995  054E  02F4               	subwf	___fladd@b+2,f
  2996  054F  0879               	movf	___fladd@a+3,w
  2997  0550  1C03               	skipc
  2998  0551  0F79               	incfsz	___fladd@a+3,w
  2999  0552  02F5               	subwf	___fladd@b+3,f
  3000  0553                     l548:
  3001  0553  0875               	movf	___fladd@b+3,w
  3002  0554  0474               	iorwf	___fladd@b+2,w
  3003  0555  0473               	iorwf	___fladd@b+1,w
  3004  0556  0472               	iorwf	___fladd@b,w
  3005  0557  1D03               	skipz
  3006  0558  2D5A               	goto	u1831
  3007  0559  2D5B               	goto	u1830
  3008  055A                     u1831:
  3009  055A  2D87               	goto	l1660
  3010  055B                     u1830:
  3011  055B                     l1640:
  3012  055B  082B               	movf	___fladd@grs,w
  3013  055C  1D03               	btfss	3,2
  3014  055D  2D5F               	goto	u1841
  3015  055E  2D60               	goto	u1840
  3016  055F                     u1841:
  3017  055F  2D87               	goto	l1660
  3018  0560                     u1840:
  3019  0560                     l1642:
  3020  0560  3000               	movlw	0
  3021  0561  00F5               	movwf	?___fladd+3
  3022  0562  3000               	movlw	0
  3023  0563  00F4               	movwf	?___fladd+2
  3024  0564  3000               	movlw	0
  3025  0565  00F3               	movwf	?___fladd+1
  3026  0566  3000               	movlw	0
  3027  0567  00F2               	movwf	?___fladd
  3028  0568  2E05               	goto	l540
  3029  0569                     l1646:
  3030  0569  3001               	movlw	1
  3031  056A  00A0               	movwf	??___fladd
  3032  056B                     u1855:
  3033  056B  1003               	clrc
  3034  056C  0DF2               	rlf	___fladd@b,f
  3035  056D  0DF3               	rlf	___fladd@b+1,f
  3036  056E  0DF4               	rlf	___fladd@b+2,f
  3037  056F  0DF5               	rlf	___fladd@b+3,f
  3038  0570  0BA0               	decfsz	??___fladd,f
  3039  0571  2D6B               	goto	u1855
  3040  0572                     l1648:
  3041  0572  1FAB               	btfss	___fladd@grs,7
  3042  0573  2D75               	goto	u1861
  3043  0574  2D76               	goto	u1860
  3044  0575                     u1861:
  3045  0575  2D77               	goto	l552
  3046  0576                     u1860:
  3047  0576                     l1650:
  3048  0576  1472               	bsf	___fladd@b,0
  3049  0577                     l552:
  3050  0577  1C2B               	btfss	___fladd@grs,0
  3051  0578  2D7A               	goto	u1871
  3052  0579  2D7B               	goto	u1870
  3053  057A                     u1871:
  3054  057A  2D7E               	goto	l1654
  3055  057B                     u1870:
  3056  057B                     l1652:
  3057  057B  1403               	setc
  3058  057C  0DAB               	rlf	___fladd@grs,f
  3059  057D  2D80               	goto	l1656
  3060  057E                     l1654:
  3061  057E  1003               	clrc
  3062  057F  0DAB               	rlf	___fladd@grs,f
  3063  0580                     l1656:
  3064  0580  082A               	movf	___fladd@bexp,w
  3065  0581  1903               	btfsc	3,2
  3066  0582  2D84               	goto	u1881
  3067  0583  2D85               	goto	u1880
  3068  0584                     u1881:
  3069  0584  2D87               	goto	l1660
  3070  0585                     u1880:
  3071  0585                     l1658:
  3072  0585  3001               	movlw	1
  3073  0586  02AA               	subwf	___fladd@bexp,f
  3074  0587                     l1660:
  3075  0587  1FF4               	btfss	___fladd@b+2,7
  3076  0588  2D8A               	goto	u1891
  3077  0589  2D8B               	goto	u1890
  3078  058A                     u1891:
  3079  058A  2D69               	goto	l1646
  3080  058B                     u1890:
  3081  058B                     l1662:
  3082  058B  01A9               	clrf	___fladd@aexp
  3083  058C                     l1664:
  3084  058C  1FAB               	btfss	___fladd@grs,7
  3085  058D  2D8F               	goto	u1901
  3086  058E  2D90               	goto	u1900
  3087  058F                     u1901:
  3088  058F  2D9E               	goto	l1672
  3089  0590                     u1900:
  3090  0590                     l1666:
  3091  0590  082B               	movf	___fladd@grs,w
  3092  0591  397F               	andlw	127
  3093  0592  1903               	btfsc	3,2
  3094  0593  2D95               	goto	u1911
  3095  0594  2D96               	goto	u1910
  3096  0595                     u1911:
  3097  0595  2D99               	goto	l558
  3098  0596                     u1910:
  3099  0596                     l1668:
  3100  0596  01A9               	clrf	___fladd@aexp
  3101  0597  0AA9               	incf	___fladd@aexp,f
  3102  0598  2D9E               	goto	l1672
  3103  0599                     l558:
  3104  0599  1C72               	btfss	___fladd@b,0
  3105  059A  2D9C               	goto	u1921
  3106  059B  2D9D               	goto	u1920
  3107  059C                     u1921:
  3108  059C  2D9E               	goto	l1672
  3109  059D                     u1920:
  3110  059D  2D96               	goto	l1668
  3111  059E                     l1672:
  3112  059E  0829               	movf	___fladd@aexp,w
  3113  059F  1903               	btfsc	3,2
  3114  05A0  2DA2               	goto	u1931
  3115  05A1  2DA3               	goto	u1930
  3116  05A2                     u1931:
  3117  05A2  2DD7               	goto	l561
  3118  05A3                     u1930:
  3119  05A3                     l1674:
  3120  05A3  3001               	movlw	1
  3121  05A4  07F2               	addwf	___fladd@b,f
  3122  05A5  3000               	movlw	0
  3123  05A6  1803               	skipnc
  3124  05A7  3001               	movlw	1
  3125  05A8  07F3               	addwf	___fladd@b+1,f
  3126  05A9  3000               	movlw	0
  3127  05AA  1803               	skipnc
  3128  05AB  3001               	movlw	1
  3129  05AC  07F4               	addwf	___fladd@b+2,f
  3130  05AD  3000               	movlw	0
  3131  05AE  1803               	skipnc
  3132  05AF  3001               	movlw	1
  3133  05B0  07F5               	addwf	___fladd@b+3,f
  3134  05B1                     l1676:
  3135  05B1  1C75               	btfss	___fladd@b+3,0
  3136  05B2  2DB4               	goto	u1941
  3137  05B3  2DB5               	goto	u1940
  3138  05B4                     u1941:
  3139  05B4  2DD7               	goto	l561
  3140  05B5                     u1940:
  3141  05B5                     l1678:
  3142  05B5  0872               	movf	___fladd@b,w
  3143  05B6  00A0               	movwf	??___fladd
  3144  05B7  0873               	movf	___fladd@b+1,w
  3145  05B8  00A1               	movwf	??___fladd+1
  3146  05B9  0874               	movf	___fladd@b+2,w
  3147  05BA  00A2               	movwf	??___fladd+2
  3148  05BB  0875               	movf	___fladd@b+3,w
  3149  05BC  00A3               	movwf	??___fladd+3
  3150  05BD  3001               	movlw	1
  3151  05BE  00A4               	movwf	??___fladd+4
  3152  05BF                     u1955:
  3153  05BF  0D23               	rlf	??___fladd+3,w
  3154  05C0  0CA3               	rrf	??___fladd+3,f
  3155  05C1  0CA2               	rrf	??___fladd+2,f
  3156  05C2  0CA1               	rrf	??___fladd+1,f
  3157  05C3  0CA0               	rrf	??___fladd,f
  3158  05C4                     u1950:
  3159  05C4  0BA4               	decfsz	??___fladd+4,f
  3160  05C5  2DBF               	goto	u1955
  3161  05C6  0823               	movf	??___fladd+3,w
  3162  05C7  00F5               	movwf	___fladd@b+3
  3163  05C8  0822               	movf	??___fladd+2,w
  3164  05C9  00F4               	movwf	___fladd@b+2
  3165  05CA  0821               	movf	??___fladd+1,w
  3166  05CB  00F3               	movwf	___fladd@b+1
  3167  05CC  0820               	movf	??___fladd,w
  3168  05CD  00F2               	movwf	___fladd@b
  3169  05CE  0A2A               	incf	___fladd@bexp,w
  3170  05CF  1903               	btfsc	3,2
  3171  05D0  2DD2               	goto	u1961
  3172  05D1  2DD3               	goto	u1960
  3173  05D2                     u1961:
  3174  05D2  2DD7               	goto	l561
  3175  05D3                     u1960:
  3176  05D3                     l1680:
  3177  05D3  3001               	movlw	1
  3178  05D4  00A0               	movwf	??___fladd
  3179  05D5  0820               	movf	??___fladd,w
  3180  05D6  07AA               	addwf	___fladd@bexp,f
  3181  05D7                     l561:
  3182  05D7  0A2A               	incf	___fladd@bexp,w
  3183  05D8  1903               	btfsc	3,2
  3184  05D9  2DDB               	goto	u1971
  3185  05DA  2DDC               	goto	u1970
  3186  05DB                     u1971:
  3187  05DB  2DE1               	goto	l1684
  3188  05DC                     u1970:
  3189  05DC                     l1682:
  3190  05DC  082A               	movf	___fladd@bexp,w
  3191  05DD  1D03               	btfss	3,2
  3192  05DE  2DE0               	goto	u1981
  3193  05DF  2DE1               	goto	u1980
  3194  05E0                     u1981:
  3195  05E0  2DEF               	goto	l1690
  3196  05E1                     u1980:
  3197  05E1                     l1684:
  3198  05E1  3000               	movlw	0
  3199  05E2  00F5               	movwf	___fladd@b+3
  3200  05E3  3000               	movlw	0
  3201  05E4  00F4               	movwf	___fladd@b+2
  3202  05E5  3000               	movlw	0
  3203  05E6  00F3               	movwf	___fladd@b+1
  3204  05E7  3000               	movlw	0
  3205  05E8  00F2               	movwf	___fladd@b
  3206  05E9                     l1686:
  3207  05E9  082A               	movf	___fladd@bexp,w
  3208  05EA  1D03               	btfss	3,2
  3209  05EB  2DED               	goto	u1991
  3210  05EC  2DEE               	goto	u1990
  3211  05ED                     u1991:
  3212  05ED  2DEF               	goto	l1690
  3213  05EE                     u1990:
  3214  05EE                     l1688:
  3215  05EE  01A8               	clrf	___fladd@signs
  3216  05EF                     l1690:
  3217  05EF  1C2A               	btfss	___fladd@bexp,0
  3218  05F0  2DF2               	goto	u2001
  3219  05F1  2DF3               	goto	u2000
  3220  05F2                     u2001:
  3221  05F2  2DF5               	goto	l1694
  3222  05F3                     u2000:
  3223  05F3                     l1692:
  3224  05F3  17F4               	bsf	___fladd@b+2,7
  3225  05F4  2DF9               	goto	l569
  3226  05F5                     l1694:
  3227  05F5  307F               	movlw	127
  3228  05F6  00A0               	movwf	??___fladd
  3229  05F7  0820               	movf	??___fladd,w
  3230  05F8  05F4               	andwf	___fladd@b+2,f
  3231  05F9                     l569:
  3232  05F9  082A               	movf	___fladd@bexp,w
  3233  05FA  00A0               	movwf	??___fladd
  3234  05FB  1003               	clrc
  3235  05FC  0C20               	rrf	??___fladd,w
  3236  05FD  00A1               	movwf	??___fladd+1
  3237  05FE  0821               	movf	??___fladd+1,w
  3238  05FF  00F5               	movwf	___fladd@b+3
  3239  0600                     l1696:
  3240  0600  1FA8               	btfss	___fladd@signs,7
  3241  0601  2E03               	goto	u2011
  3242  0602  2E04               	goto	u2010
  3243  0603                     u2011:
  3244  0603  2E05               	goto	l570
  3245  0604                     u2010:
  3246  0604                     l1698:
  3247  0604  17F5               	bsf	___fladd@b+3,7
  3248  0605                     l570:
  3249  0605                     l540:
  3250  0605  0008               	return
  3251  0606                     __end_of___fladd:
  3252                           
  3253                           	psect	text10
  3254  001D                     __ptext10:	
  3255 ;; *************** function ___flmul *****************
  3256 ;; Defined at:
  3257 ;;		line 8 in file "C:\Program Files\Microchip\xc8\v2.31\pic\sources\c90\common\sprcmul.c"
  3258 ;; Parameters:    Size  Location     Type
  3259 ;;  b               4    6[BANK0 ] unsigned char 
  3260 ;;  a               4   10[BANK0 ] unsigned char 
  3261 ;; Auto vars:     Size  Location     Type
  3262 ;;  prod            4   26[BANK0 ] struct .
  3263 ;;  grs             4   20[BANK0 ] unsigned long 
  3264 ;;  temp            2   30[BANK0 ] struct .
  3265 ;;  bexp            1   25[BANK0 ] unsigned char 
  3266 ;;  aexp            1   24[BANK0 ] unsigned char 
  3267 ;;  sign            1   19[BANK0 ] unsigned char 
  3268 ;; Return value:  Size  Location     Type
  3269 ;;                  4    6[BANK0 ] unsigned char 
  3270 ;; Registers used:
  3271 ;;		wreg, status,2, status,0, btemp+1, pclath, cstack
  3272 ;; Tracked objects:
  3273 ;;		On entry : 0/0
  3274 ;;		On exit  : 0/0
  3275 ;;		Unchanged: 0/0
  3276 ;; Data sizes:     COMMON   BANK0   BANK1   BANK3   BANK2
  3277 ;;      Params:         0       8       0       0       0
  3278 ;;      Locals:         0      13       0       0       0
  3279 ;;      Temps:          0       5       0       0       0
  3280 ;;      Totals:         0      26       0       0       0
  3281 ;;Total ram usage:       26 bytes
  3282 ;; Hardware stack levels used:    1
  3283 ;; Hardware stack levels required when called:    2
  3284 ;; This function calls:
  3285 ;;		__Umul8_16
  3286 ;; This function is called by:
  3287 ;;		_main
  3288 ;;		_floTochar
  3289 ;; This function uses a non-reentrant model
  3290 ;;
  3291                           
  3292                           
  3293                           ;psect for function ___flmul
  3294  001D                     ___flmul:
  3295  001D                     l1800:	
  3296                           ;incstack = 0
  3297                           ; Regs used in ___flmul: [wreg+status,2+status,0+btemp+1+pclath+cstack]
  3298                           
  3299  001D  1283               	bcf	3,5	;RP0=0, select bank0
  3300  001E  1303               	bcf	3,6	;RP1=0, select bank0
  3301  001F  0829               	movf	___flmul@b+3,w
  3302  0020  3980               	andlw	128
  3303  0021  00AE               	movwf	??___flmul
  3304  0022  082E               	movf	??___flmul,w
  3305  0023  00B3               	movwf	___flmul@sign
  3306  0024                     l1802:
  3307  0024  0829               	movf	___flmul@b+3,w
  3308  0025  00AE               	movwf	??___flmul
  3309  0026  072E               	addwf	??___flmul,w
  3310  0027  00AF               	movwf	??___flmul+1
  3311  0028  082F               	movf	??___flmul+1,w
  3312  0029  00B9               	movwf	___flmul@bexp
  3313  002A                     l1804:
  3314  002A  1FA8               	btfss	___flmul@b+2,7
  3315  002B  282D               	goto	u2191
  3316  002C  282E               	goto	u2190
  3317  002D                     u2191:
  3318  002D  282F               	goto	l1808
  3319  002E                     u2190:
  3320  002E                     l1806:
  3321  002E  1439               	bsf	___flmul@bexp,0
  3322  002F                     l1808:
  3323  002F  0839               	movf	___flmul@bexp,w
  3324  0030  1903               	btfsc	3,2
  3325  0031  2833               	goto	u2201
  3326  0032  2834               	goto	u2200
  3327  0033                     u2201:
  3328  0033  2843               	goto	l1816
  3329  0034                     u2200:
  3330  0034                     l1810:
  3331  0034  0A39               	incf	___flmul@bexp,w
  3332  0035  1D03               	btfss	3,2
  3333  0036  2838               	goto	u2211
  3334  0037  2839               	goto	u2210
  3335  0038                     u2211:
  3336  0038  2841               	goto	l1814
  3337  0039                     u2210:
  3338  0039                     l1812:
  3339  0039  3000               	movlw	0
  3340  003A  00A9               	movwf	___flmul@b+3
  3341  003B  3000               	movlw	0
  3342  003C  00A8               	movwf	___flmul@b+2
  3343  003D  3000               	movlw	0
  3344  003E  00A7               	movwf	___flmul@b+1
  3345  003F  3000               	movlw	0
  3346  0040  00A6               	movwf	___flmul@b
  3347  0041                     l1814:
  3348  0041  17A8               	bsf	___flmul@b+2,7
  3349  0042  284B               	goto	l1818
  3350  0043                     l1816:
  3351  0043  3000               	movlw	0
  3352  0044  00A9               	movwf	___flmul@b+3
  3353  0045  3000               	movlw	0
  3354  0046  00A8               	movwf	___flmul@b+2
  3355  0047  3000               	movlw	0
  3356  0048  00A7               	movwf	___flmul@b+1
  3357  0049  3000               	movlw	0
  3358  004A  00A6               	movwf	___flmul@b
  3359  004B                     l1818:
  3360  004B  082D               	movf	___flmul@a+3,w
  3361  004C  3980               	andlw	128
  3362  004D  00AE               	movwf	??___flmul
  3363  004E  082E               	movf	??___flmul,w
  3364  004F  06B3               	xorwf	___flmul@sign,f
  3365  0050                     l1820:
  3366  0050  082D               	movf	___flmul@a+3,w
  3367  0051  00AE               	movwf	??___flmul
  3368  0052  072E               	addwf	??___flmul,w
  3369  0053  00AF               	movwf	??___flmul+1
  3370  0054  082F               	movf	??___flmul+1,w
  3371  0055  00B8               	movwf	___flmul@aexp
  3372  0056                     l1822:
  3373  0056  1FAC               	btfss	___flmul@a+2,7
  3374  0057  2859               	goto	u2221
  3375  0058  285A               	goto	u2220
  3376  0059                     u2221:
  3377  0059  285B               	goto	l1826
  3378  005A                     u2220:
  3379  005A                     l1824:
  3380  005A  1438               	bsf	___flmul@aexp,0
  3381  005B                     l1826:
  3382  005B  0838               	movf	___flmul@aexp,w
  3383  005C  1903               	btfsc	3,2
  3384  005D  285F               	goto	u2231
  3385  005E  2860               	goto	u2230
  3386  005F                     u2231:
  3387  005F  286F               	goto	l1834
  3388  0060                     u2230:
  3389  0060                     l1828:
  3390  0060  0A38               	incf	___flmul@aexp,w
  3391  0061  1D03               	btfss	3,2
  3392  0062  2864               	goto	u2241
  3393  0063  2865               	goto	u2240
  3394  0064                     u2241:
  3395  0064  286D               	goto	l1832
  3396  0065                     u2240:
  3397  0065                     l1830:
  3398  0065  3000               	movlw	0
  3399  0066  00AD               	movwf	___flmul@a+3
  3400  0067  3000               	movlw	0
  3401  0068  00AC               	movwf	___flmul@a+2
  3402  0069  3000               	movlw	0
  3403  006A  00AB               	movwf	___flmul@a+1
  3404  006B  3000               	movlw	0
  3405  006C  00AA               	movwf	___flmul@a
  3406  006D                     l1832:
  3407  006D  17AC               	bsf	___flmul@a+2,7
  3408  006E  2877               	goto	l1836
  3409  006F                     l1834:
  3410  006F  3000               	movlw	0
  3411  0070  00AD               	movwf	___flmul@a+3
  3412  0071  3000               	movlw	0
  3413  0072  00AC               	movwf	___flmul@a+2
  3414  0073  3000               	movlw	0
  3415  0074  00AB               	movwf	___flmul@a+1
  3416  0075  3000               	movlw	0
  3417  0076  00AA               	movwf	___flmul@a
  3418  0077                     l1836:
  3419  0077  0838               	movf	___flmul@aexp,w
  3420  0078  1903               	btfsc	3,2
  3421  0079  287B               	goto	u2251
  3422  007A  287C               	goto	u2250
  3423  007B                     u2251:
  3424  007B  2881               	goto	l1840
  3425  007C                     u2250:
  3426  007C                     l1838:
  3427  007C  0839               	movf	___flmul@bexp,w
  3428  007D  1D03               	btfss	3,2
  3429  007E  2880               	goto	u2261
  3430  007F  2881               	goto	u2260
  3431  0080                     u2261:
  3432  0080  288A               	goto	l1844
  3433  0081                     u2260:
  3434  0081                     l1840:
  3435  0081  3000               	movlw	0
  3436  0082  00A9               	movwf	?___flmul+3
  3437  0083  3000               	movlw	0
  3438  0084  00A8               	movwf	?___flmul+2
  3439  0085  3000               	movlw	0
  3440  0086  00A7               	movwf	?___flmul+1
  3441  0087  3000               	movlw	0
  3442  0088  00A6               	movwf	?___flmul
  3443  0089  2B7D               	goto	l623
  3444  008A                     l1844:
  3445  008A  0826               	movf	___flmul@b,w
  3446  008B  00AE               	movwf	??___flmul
  3447  008C  082E               	movf	??___flmul,w
  3448  008D  00F2               	movwf	__Umul8_16@multiplicand
  3449  008E  082C               	movf	___flmul@a+2,w
  3450  008F  120A  158A  258F  120A  118A  	fcall	__Umul8_16
  3451  0094  0873               	movf	?__Umul8_16+1,w
  3452  0095  1283               	bcf	3,5	;RP0=0, select bank0
  3453  0096  1303               	bcf	3,6	;RP1=0, select bank0
  3454  0097  00BF               	movwf	___flmul@temp+1
  3455  0098  0872               	movf	?__Umul8_16,w
  3456  0099  00BE               	movwf	___flmul@temp
  3457  009A                     l1846:
  3458  009A  083E               	movf	___flmul@temp,w
  3459  009B  00AE               	movwf	??___flmul
  3460  009C  01AF               	clrf	??___flmul+1
  3461  009D  01B0               	clrf	??___flmul+2
  3462  009E  01B1               	clrf	??___flmul+3
  3463  009F  0831               	movf	??___flmul+3,w
  3464  00A0  00B7               	movwf	___flmul@grs+3
  3465  00A1  0830               	movf	??___flmul+2,w
  3466  00A2  00B6               	movwf	___flmul@grs+2
  3467  00A3  082F               	movf	??___flmul+1,w
  3468  00A4  00B5               	movwf	___flmul@grs+1
  3469  00A5  082E               	movf	??___flmul,w
  3470  00A6  00B4               	movwf	___flmul@grs
  3471  00A7                     l1848:
  3472  00A7  083F               	movf	___flmul@temp+1,w
  3473  00A8  00AE               	movwf	??___flmul
  3474  00A9  01AF               	clrf	??___flmul+1
  3475  00AA  01B0               	clrf	??___flmul+2
  3476  00AB  01B1               	clrf	??___flmul+3
  3477  00AC  0831               	movf	??___flmul+3,w
  3478  00AD  00BD               	movwf	___flmul@prod+3
  3479  00AE  0830               	movf	??___flmul+2,w
  3480  00AF  00BC               	movwf	___flmul@prod+2
  3481  00B0  082F               	movf	??___flmul+1,w
  3482  00B1  00BB               	movwf	___flmul@prod+1
  3483  00B2  082E               	movf	??___flmul,w
  3484  00B3  00BA               	movwf	___flmul@prod
  3485  00B4  0827               	movf	___flmul@b+1,w
  3486  00B5  00AE               	movwf	??___flmul
  3487  00B6  082E               	movf	??___flmul,w
  3488  00B7  00F2               	movwf	__Umul8_16@multiplicand
  3489  00B8  082B               	movf	___flmul@a+1,w
  3490  00B9  120A  158A  258F  120A  118A  	fcall	__Umul8_16
  3491  00BE  0873               	movf	?__Umul8_16+1,w
  3492  00BF  1283               	bcf	3,5	;RP0=0, select bank0
  3493  00C0  1303               	bcf	3,6	;RP1=0, select bank0
  3494  00C1  00BF               	movwf	___flmul@temp+1
  3495  00C2  0872               	movf	?__Umul8_16,w
  3496  00C3  00BE               	movwf	___flmul@temp
  3497  00C4                     l1850:
  3498  00C4  083E               	movf	___flmul@temp,w
  3499  00C5  00AE               	movwf	??___flmul
  3500  00C6  01AF               	clrf	??___flmul+1
  3501  00C7  01B0               	clrf	??___flmul+2
  3502  00C8  01B1               	clrf	??___flmul+3
  3503  00C9  082E               	movf	??___flmul,w
  3504  00CA  07B4               	addwf	___flmul@grs,f
  3505  00CB  082F               	movf	??___flmul+1,w
  3506  00CC  1103               	clrz
  3507  00CD  1803               	skipnc
  3508  00CE  3E01               	addlw	1
  3509  00CF  1903               	skipnz
  3510  00D0  28D2               	goto	u2271
  3511  00D1  07B5               	addwf	___flmul@grs+1,f
  3512  00D2                     u2271:
  3513  00D2  0830               	movf	??___flmul+2,w
  3514  00D3  1103               	clrz
  3515  00D4  1803               	skipnc
  3516  00D5  3E01               	addlw	1
  3517  00D6  1903               	skipnz
  3518  00D7  28D9               	goto	u2272
  3519  00D8  07B6               	addwf	___flmul@grs+2,f
  3520  00D9                     u2272:
  3521  00D9  0831               	movf	??___flmul+3,w
  3522  00DA  1103               	clrz
  3523  00DB  1803               	skipnc
  3524  00DC  3E01               	addlw	1
  3525  00DD  1903               	skipnz
  3526  00DE  28E0               	goto	u2273
  3527  00DF  07B7               	addwf	___flmul@grs+3,f
  3528  00E0                     u2273:
  3529  00E0                     l1852:
  3530  00E0  083F               	movf	___flmul@temp+1,w
  3531  00E1  00AE               	movwf	??___flmul
  3532  00E2  01AF               	clrf	??___flmul+1
  3533  00E3  01B0               	clrf	??___flmul+2
  3534  00E4  01B1               	clrf	??___flmul+3
  3535  00E5  082E               	movf	??___flmul,w
  3536  00E6  07BA               	addwf	___flmul@prod,f
  3537  00E7  082F               	movf	??___flmul+1,w
  3538  00E8  1103               	clrz
  3539  00E9  1803               	skipnc
  3540  00EA  3E01               	addlw	1
  3541  00EB  1903               	skipnz
  3542  00EC  28EE               	goto	u2281
  3543  00ED  07BB               	addwf	___flmul@prod+1,f
  3544  00EE                     u2281:
  3545  00EE  0830               	movf	??___flmul+2,w
  3546  00EF  1103               	clrz
  3547  00F0  1803               	skipnc
  3548  00F1  3E01               	addlw	1
  3549  00F2  1903               	skipnz
  3550  00F3  28F5               	goto	u2282
  3551  00F4  07BC               	addwf	___flmul@prod+2,f
  3552  00F5                     u2282:
  3553  00F5  0831               	movf	??___flmul+3,w
  3554  00F6  1103               	clrz
  3555  00F7  1803               	skipnc
  3556  00F8  3E01               	addlw	1
  3557  00F9  1903               	skipnz
  3558  00FA  28FC               	goto	u2283
  3559  00FB  07BD               	addwf	___flmul@prod+3,f
  3560  00FC                     u2283:
  3561  00FC  0828               	movf	___flmul@b+2,w
  3562  00FD  00AE               	movwf	??___flmul
  3563  00FE  082E               	movf	??___flmul,w
  3564  00FF  00F2               	movwf	__Umul8_16@multiplicand
  3565  0100  082A               	movf	___flmul@a,w
  3566  0101  120A  158A  258F  120A  118A  	fcall	__Umul8_16
  3567  0106  0873               	movf	?__Umul8_16+1,w
  3568  0107  1283               	bcf	3,5	;RP0=0, select bank0
  3569  0108  1303               	bcf	3,6	;RP1=0, select bank0
  3570  0109  00BF               	movwf	___flmul@temp+1
  3571  010A  0872               	movf	?__Umul8_16,w
  3572  010B  00BE               	movwf	___flmul@temp
  3573  010C                     l1854:
  3574  010C  083E               	movf	___flmul@temp,w
  3575  010D  00AE               	movwf	??___flmul
  3576  010E  01AF               	clrf	??___flmul+1
  3577  010F  01B0               	clrf	??___flmul+2
  3578  0110  01B1               	clrf	??___flmul+3
  3579  0111  082E               	movf	??___flmul,w
  3580  0112  07B4               	addwf	___flmul@grs,f
  3581  0113  082F               	movf	??___flmul+1,w
  3582  0114  1103               	clrz
  3583  0115  1803               	skipnc
  3584  0116  3E01               	addlw	1
  3585  0117  1903               	skipnz
  3586  0118  291A               	goto	u2291
  3587  0119  07B5               	addwf	___flmul@grs+1,f
  3588  011A                     u2291:
  3589  011A  0830               	movf	??___flmul+2,w
  3590  011B  1103               	clrz
  3591  011C  1803               	skipnc
  3592  011D  3E01               	addlw	1
  3593  011E  1903               	skipnz
  3594  011F  2921               	goto	u2292
  3595  0120  07B6               	addwf	___flmul@grs+2,f
  3596  0121                     u2292:
  3597  0121  0831               	movf	??___flmul+3,w
  3598  0122  1103               	clrz
  3599  0123  1803               	skipnc
  3600  0124  3E01               	addlw	1
  3601  0125  1903               	skipnz
  3602  0126  2928               	goto	u2293
  3603  0127  07B7               	addwf	___flmul@grs+3,f
  3604  0128                     u2293:
  3605  0128                     l1856:
  3606  0128  083F               	movf	___flmul@temp+1,w
  3607  0129  00AE               	movwf	??___flmul
  3608  012A  01AF               	clrf	??___flmul+1
  3609  012B  01B0               	clrf	??___flmul+2
  3610  012C  01B1               	clrf	??___flmul+3
  3611  012D  082E               	movf	??___flmul,w
  3612  012E  07BA               	addwf	___flmul@prod,f
  3613  012F  082F               	movf	??___flmul+1,w
  3614  0130  1103               	clrz
  3615  0131  1803               	skipnc
  3616  0132  3E01               	addlw	1
  3617  0133  1903               	skipnz
  3618  0134  2936               	goto	u2301
  3619  0135  07BB               	addwf	___flmul@prod+1,f
  3620  0136                     u2301:
  3621  0136  0830               	movf	??___flmul+2,w
  3622  0137  1103               	clrz
  3623  0138  1803               	skipnc
  3624  0139  3E01               	addlw	1
  3625  013A  1903               	skipnz
  3626  013B  293D               	goto	u2302
  3627  013C  07BC               	addwf	___flmul@prod+2,f
  3628  013D                     u2302:
  3629  013D  0831               	movf	??___flmul+3,w
  3630  013E  1103               	clrz
  3631  013F  1803               	skipnc
  3632  0140  3E01               	addlw	1
  3633  0141  1903               	skipnz
  3634  0142  2944               	goto	u2303
  3635  0143  07BD               	addwf	___flmul@prod+3,f
  3636  0144                     u2303:
  3637  0144                     l1858:
  3638  0144  3008               	movlw	8
  3639  0145  00AE               	movwf	??___flmul
  3640  0146                     u2315:
  3641  0146  1003               	clrc
  3642  0147  0DB4               	rlf	___flmul@grs,f
  3643  0148  0DB5               	rlf	___flmul@grs+1,f
  3644  0149  0DB6               	rlf	___flmul@grs+2,f
  3645  014A  0DB7               	rlf	___flmul@grs+3,f
  3646  014B  0BAE               	decfsz	??___flmul,f
  3647  014C  2946               	goto	u2315
  3648  014D                     l1860:
  3649  014D  0827               	movf	___flmul@b+1,w
  3650  014E  00AE               	movwf	??___flmul
  3651  014F  082E               	movf	??___flmul,w
  3652  0150  00F2               	movwf	__Umul8_16@multiplicand
  3653  0151  082A               	movf	___flmul@a,w
  3654  0152  120A  158A  258F  120A  118A  	fcall	__Umul8_16
  3655  0157  0873               	movf	?__Umul8_16+1,w
  3656  0158  1283               	bcf	3,5	;RP0=0, select bank0
  3657  0159  1303               	bcf	3,6	;RP1=0, select bank0
  3658  015A  00BF               	movwf	___flmul@temp+1
  3659  015B  0872               	movf	?__Umul8_16,w
  3660  015C  00BE               	movwf	___flmul@temp
  3661  015D                     l1862:
  3662  015D  083E               	movf	___flmul@temp,w
  3663  015E  00AE               	movwf	??___flmul
  3664  015F  083F               	movf	___flmul@temp+1,w
  3665  0160  00AF               	movwf	??___flmul+1
  3666  0161  01B0               	clrf	??___flmul+2
  3667  0162  01B1               	clrf	??___flmul+3
  3668  0163  082E               	movf	??___flmul,w
  3669  0164  07B4               	addwf	___flmul@grs,f
  3670  0165  082F               	movf	??___flmul+1,w
  3671  0166  1103               	clrz
  3672  0167  1803               	skipnc
  3673  0168  3E01               	addlw	1
  3674  0169  1903               	skipnz
  3675  016A  296C               	goto	u2321
  3676  016B  07B5               	addwf	___flmul@grs+1,f
  3677  016C                     u2321:
  3678  016C  0830               	movf	??___flmul+2,w
  3679  016D  1103               	clrz
  3680  016E  1803               	skipnc
  3681  016F  3E01               	addlw	1
  3682  0170  1903               	skipnz
  3683  0171  2973               	goto	u2322
  3684  0172  07B6               	addwf	___flmul@grs+2,f
  3685  0173                     u2322:
  3686  0173  0831               	movf	??___flmul+3,w
  3687  0174  1103               	clrz
  3688  0175  1803               	skipnc
  3689  0176  3E01               	addlw	1
  3690  0177  1903               	skipnz
  3691  0178  297A               	goto	u2323
  3692  0179  07B7               	addwf	___flmul@grs+3,f
  3693  017A                     u2323:
  3694  017A                     l1864:
  3695  017A  0826               	movf	___flmul@b,w
  3696  017B  00AE               	movwf	??___flmul
  3697  017C  082E               	movf	??___flmul,w
  3698  017D  00F2               	movwf	__Umul8_16@multiplicand
  3699  017E  082B               	movf	___flmul@a+1,w
  3700  017F  120A  158A  258F  120A  118A  	fcall	__Umul8_16
  3701  0184  0873               	movf	?__Umul8_16+1,w
  3702  0185  1283               	bcf	3,5	;RP0=0, select bank0
  3703  0186  1303               	bcf	3,6	;RP1=0, select bank0
  3704  0187  00BF               	movwf	___flmul@temp+1
  3705  0188  0872               	movf	?__Umul8_16,w
  3706  0189  00BE               	movwf	___flmul@temp
  3707  018A                     l1866:
  3708  018A  083E               	movf	___flmul@temp,w
  3709  018B  00AE               	movwf	??___flmul
  3710  018C  083F               	movf	___flmul@temp+1,w
  3711  018D  00AF               	movwf	??___flmul+1
  3712  018E  01B0               	clrf	??___flmul+2
  3713  018F  01B1               	clrf	??___flmul+3
  3714  0190  082E               	movf	??___flmul,w
  3715  0191  07B4               	addwf	___flmul@grs,f
  3716  0192  082F               	movf	??___flmul+1,w
  3717  0193  1103               	clrz
  3718  0194  1803               	skipnc
  3719  0195  3E01               	addlw	1
  3720  0196  1903               	skipnz
  3721  0197  2999               	goto	u2331
  3722  0198  07B5               	addwf	___flmul@grs+1,f
  3723  0199                     u2331:
  3724  0199  0830               	movf	??___flmul+2,w
  3725  019A  1103               	clrz
  3726  019B  1803               	skipnc
  3727  019C  3E01               	addlw	1
  3728  019D  1903               	skipnz
  3729  019E  29A0               	goto	u2332
  3730  019F  07B6               	addwf	___flmul@grs+2,f
  3731  01A0                     u2332:
  3732  01A0  0831               	movf	??___flmul+3,w
  3733  01A1  1103               	clrz
  3734  01A2  1803               	skipnc
  3735  01A3  3E01               	addlw	1
  3736  01A4  1903               	skipnz
  3737  01A5  29A7               	goto	u2333
  3738  01A6  07B7               	addwf	___flmul@grs+3,f
  3739  01A7                     u2333:
  3740  01A7                     l1868:
  3741  01A7  3008               	movlw	8
  3742  01A8  00AE               	movwf	??___flmul
  3743  01A9                     u2345:
  3744  01A9  1003               	clrc
  3745  01AA  0DB4               	rlf	___flmul@grs,f
  3746  01AB  0DB5               	rlf	___flmul@grs+1,f
  3747  01AC  0DB6               	rlf	___flmul@grs+2,f
  3748  01AD  0DB7               	rlf	___flmul@grs+3,f
  3749  01AE  0BAE               	decfsz	??___flmul,f
  3750  01AF  29A9               	goto	u2345
  3751  01B0  0826               	movf	___flmul@b,w
  3752  01B1  00AE               	movwf	??___flmul
  3753  01B2  082E               	movf	??___flmul,w
  3754  01B3  00F2               	movwf	__Umul8_16@multiplicand
  3755  01B4  082A               	movf	___flmul@a,w
  3756  01B5  120A  158A  258F  120A  118A  	fcall	__Umul8_16
  3757  01BA  0873               	movf	?__Umul8_16+1,w
  3758  01BB  1283               	bcf	3,5	;RP0=0, select bank0
  3759  01BC  1303               	bcf	3,6	;RP1=0, select bank0
  3760  01BD  00BF               	movwf	___flmul@temp+1
  3761  01BE  0872               	movf	?__Umul8_16,w
  3762  01BF  00BE               	movwf	___flmul@temp
  3763  01C0                     l1870:
  3764  01C0  083E               	movf	___flmul@temp,w
  3765  01C1  00AE               	movwf	??___flmul
  3766  01C2  083F               	movf	___flmul@temp+1,w
  3767  01C3  00AF               	movwf	??___flmul+1
  3768  01C4  01B0               	clrf	??___flmul+2
  3769  01C5  01B1               	clrf	??___flmul+3
  3770  01C6  082E               	movf	??___flmul,w
  3771  01C7  07B4               	addwf	___flmul@grs,f
  3772  01C8  082F               	movf	??___flmul+1,w
  3773  01C9  1103               	clrz
  3774  01CA  1803               	skipnc
  3775  01CB  3E01               	addlw	1
  3776  01CC  1903               	skipnz
  3777  01CD  29CF               	goto	u2351
  3778  01CE  07B5               	addwf	___flmul@grs+1,f
  3779  01CF                     u2351:
  3780  01CF  0830               	movf	??___flmul+2,w
  3781  01D0  1103               	clrz
  3782  01D1  1803               	skipnc
  3783  01D2  3E01               	addlw	1
  3784  01D3  1903               	skipnz
  3785  01D4  29D6               	goto	u2352
  3786  01D5  07B6               	addwf	___flmul@grs+2,f
  3787  01D6                     u2352:
  3788  01D6  0831               	movf	??___flmul+3,w
  3789  01D7  1103               	clrz
  3790  01D8  1803               	skipnc
  3791  01D9  3E01               	addlw	1
  3792  01DA  1903               	skipnz
  3793  01DB  29DD               	goto	u2353
  3794  01DC  07B7               	addwf	___flmul@grs+3,f
  3795  01DD                     u2353:
  3796  01DD                     l1872:
  3797  01DD  0827               	movf	___flmul@b+1,w
  3798  01DE  00AE               	movwf	??___flmul
  3799  01DF  082E               	movf	??___flmul,w
  3800  01E0  00F2               	movwf	__Umul8_16@multiplicand
  3801  01E1  082C               	movf	___flmul@a+2,w
  3802  01E2  120A  158A  258F  120A  118A  	fcall	__Umul8_16
  3803  01E7  0873               	movf	?__Umul8_16+1,w
  3804  01E8  1283               	bcf	3,5	;RP0=0, select bank0
  3805  01E9  1303               	bcf	3,6	;RP1=0, select bank0
  3806  01EA  00BF               	movwf	___flmul@temp+1
  3807  01EB  0872               	movf	?__Umul8_16,w
  3808  01EC  00BE               	movwf	___flmul@temp
  3809  01ED  083E               	movf	___flmul@temp,w
  3810  01EE  00AE               	movwf	??___flmul
  3811  01EF  083F               	movf	___flmul@temp+1,w
  3812  01F0  00AF               	movwf	??___flmul+1
  3813  01F1  01B0               	clrf	??___flmul+2
  3814  01F2  01B1               	clrf	??___flmul+3
  3815  01F3  082E               	movf	??___flmul,w
  3816  01F4  07BA               	addwf	___flmul@prod,f
  3817  01F5  082F               	movf	??___flmul+1,w
  3818  01F6  1103               	clrz
  3819  01F7  1803               	skipnc
  3820  01F8  3E01               	addlw	1
  3821  01F9  1903               	skipnz
  3822  01FA  29FC               	goto	u2361
  3823  01FB  07BB               	addwf	___flmul@prod+1,f
  3824  01FC                     u2361:
  3825  01FC  0830               	movf	??___flmul+2,w
  3826  01FD  1103               	clrz
  3827  01FE  1803               	skipnc
  3828  01FF  3E01               	addlw	1
  3829  0200  1903               	skipnz
  3830  0201  2A03               	goto	u2362
  3831  0202  07BC               	addwf	___flmul@prod+2,f
  3832  0203                     u2362:
  3833  0203  0831               	movf	??___flmul+3,w
  3834  0204  1103               	clrz
  3835  0205  1803               	skipnc
  3836  0206  3E01               	addlw	1
  3837  0207  1903               	skipnz
  3838  0208  2A0A               	goto	u2363
  3839  0209  07BD               	addwf	___flmul@prod+3,f
  3840  020A                     u2363:
  3841  020A                     l1874:
  3842  020A  0828               	movf	___flmul@b+2,w
  3843  020B  00AE               	movwf	??___flmul
  3844  020C  082E               	movf	??___flmul,w
  3845  020D  00F2               	movwf	__Umul8_16@multiplicand
  3846  020E  082B               	movf	___flmul@a+1,w
  3847  020F  120A  158A  258F  120A  118A  	fcall	__Umul8_16
  3848  0214  0873               	movf	?__Umul8_16+1,w
  3849  0215  1283               	bcf	3,5	;RP0=0, select bank0
  3850  0216  1303               	bcf	3,6	;RP1=0, select bank0
  3851  0217  00BF               	movwf	___flmul@temp+1
  3852  0218  0872               	movf	?__Umul8_16,w
  3853  0219  00BE               	movwf	___flmul@temp
  3854  021A                     l1876:
  3855  021A  083E               	movf	___flmul@temp,w
  3856  021B  00AE               	movwf	??___flmul
  3857  021C  083F               	movf	___flmul@temp+1,w
  3858  021D  00AF               	movwf	??___flmul+1
  3859  021E  01B0               	clrf	??___flmul+2
  3860  021F  01B1               	clrf	??___flmul+3
  3861  0220  082E               	movf	??___flmul,w
  3862  0221  07BA               	addwf	___flmul@prod,f
  3863  0222  082F               	movf	??___flmul+1,w
  3864  0223  1103               	clrz
  3865  0224  1803               	skipnc
  3866  0225  3E01               	addlw	1
  3867  0226  1903               	skipnz
  3868  0227  2A29               	goto	u2371
  3869  0228  07BB               	addwf	___flmul@prod+1,f
  3870  0229                     u2371:
  3871  0229  0830               	movf	??___flmul+2,w
  3872  022A  1103               	clrz
  3873  022B  1803               	skipnc
  3874  022C  3E01               	addlw	1
  3875  022D  1903               	skipnz
  3876  022E  2A30               	goto	u2372
  3877  022F  07BC               	addwf	___flmul@prod+2,f
  3878  0230                     u2372:
  3879  0230  0831               	movf	??___flmul+3,w
  3880  0231  1103               	clrz
  3881  0232  1803               	skipnc
  3882  0233  3E01               	addlw	1
  3883  0234  1903               	skipnz
  3884  0235  2A37               	goto	u2373
  3885  0236  07BD               	addwf	___flmul@prod+3,f
  3886  0237                     u2373:
  3887  0237  0828               	movf	___flmul@b+2,w
  3888  0238  00AE               	movwf	??___flmul
  3889  0239  082E               	movf	??___flmul,w
  3890  023A  00F2               	movwf	__Umul8_16@multiplicand
  3891  023B  082C               	movf	___flmul@a+2,w
  3892  023C  120A  158A  258F  120A  118A  	fcall	__Umul8_16
  3893  0241  0873               	movf	?__Umul8_16+1,w
  3894  0242  1283               	bcf	3,5	;RP0=0, select bank0
  3895  0243  1303               	bcf	3,6	;RP1=0, select bank0
  3896  0244  00BF               	movwf	___flmul@temp+1
  3897  0245  0872               	movf	?__Umul8_16,w
  3898  0246  00BE               	movwf	___flmul@temp
  3899  0247                     l1878:
  3900  0247  083E               	movf	___flmul@temp,w
  3901  0248  00AE               	movwf	??___flmul
  3902  0249  083F               	movf	___flmul@temp+1,w
  3903  024A  00AF               	movwf	??___flmul+1
  3904  024B  01B0               	clrf	??___flmul+2
  3905  024C  01B1               	clrf	??___flmul+3
  3906  024D  3008               	movlw	8
  3907  024E                     u2385:
  3908  024E  1003               	clrc
  3909  024F  0DAE               	rlf	??___flmul,f
  3910  0250  0DAF               	rlf	??___flmul+1,f
  3911  0251  0DB0               	rlf	??___flmul+2,f
  3912  0252  0DB1               	rlf	??___flmul+3,f
  3913  0253                     u2380:
  3914  0253  3EFF               	addlw	-1
  3915  0254  1D03               	skipz
  3916  0255  2A4E               	goto	u2385
  3917  0256  082E               	movf	??___flmul,w
  3918  0257  07BA               	addwf	___flmul@prod,f
  3919  0258  082F               	movf	??___flmul+1,w
  3920  0259  1103               	clrz
  3921  025A  1803               	skipnc
  3922  025B  3E01               	addlw	1
  3923  025C  1903               	skipnz
  3924  025D  2A5F               	goto	u2391
  3925  025E  07BB               	addwf	___flmul@prod+1,f
  3926  025F                     u2391:
  3927  025F  0830               	movf	??___flmul+2,w
  3928  0260  1103               	clrz
  3929  0261  1803               	skipnc
  3930  0262  3E01               	addlw	1
  3931  0263  1903               	skipnz
  3932  0264  2A66               	goto	u2392
  3933  0265  07BC               	addwf	___flmul@prod+2,f
  3934  0266                     u2392:
  3935  0266  0831               	movf	??___flmul+3,w
  3936  0267  1103               	clrz
  3937  0268  1803               	skipnc
  3938  0269  3E01               	addlw	1
  3939  026A  1903               	skipnz
  3940  026B  2A6D               	goto	u2393
  3941  026C  07BD               	addwf	___flmul@prod+3,f
  3942  026D                     u2393:
  3943  026D                     l1880:
  3944  026D  0834               	movf	___flmul@grs,w
  3945  026E  00AE               	movwf	??___flmul
  3946  026F  0835               	movf	___flmul@grs+1,w
  3947  0270  00AF               	movwf	??___flmul+1
  3948  0271  0836               	movf	___flmul@grs+2,w
  3949  0272  00B0               	movwf	??___flmul+2
  3950  0273  0837               	movf	___flmul@grs+3,w
  3951  0274  00B1               	movwf	??___flmul+3
  3952  0275  3018               	movlw	24
  3953  0276                     u2405:
  3954  0276  1003               	clrc
  3955  0277  0CB1               	rrf	??___flmul+3,f
  3956  0278  0CB0               	rrf	??___flmul+2,f
  3957  0279  0CAF               	rrf	??___flmul+1,f
  3958  027A  0CAE               	rrf	??___flmul,f
  3959  027B                     u2400:
  3960  027B  3EFF               	addlw	-1
  3961  027C  1D03               	skipz
  3962  027D  2A76               	goto	u2405
  3963  027E  082E               	movf	??___flmul,w
  3964  027F  07BA               	addwf	___flmul@prod,f
  3965  0280  082F               	movf	??___flmul+1,w
  3966  0281  1103               	clrz
  3967  0282  1803               	skipnc
  3968  0283  3E01               	addlw	1
  3969  0284  1903               	skipnz
  3970  0285  2A87               	goto	u2411
  3971  0286  07BB               	addwf	___flmul@prod+1,f
  3972  0287                     u2411:
  3973  0287  0830               	movf	??___flmul+2,w
  3974  0288  1103               	clrz
  3975  0289  1803               	skipnc
  3976  028A  3E01               	addlw	1
  3977  028B  1903               	skipnz
  3978  028C  2A8E               	goto	u2412
  3979  028D  07BC               	addwf	___flmul@prod+2,f
  3980  028E                     u2412:
  3981  028E  0831               	movf	??___flmul+3,w
  3982  028F  1103               	clrz
  3983  0290  1803               	skipnc
  3984  0291  3E01               	addlw	1
  3985  0292  1903               	skipnz
  3986  0293  2A95               	goto	u2413
  3987  0294  07BD               	addwf	___flmul@prod+3,f
  3988  0295                     u2413:
  3989  0295                     l1882:
  3990  0295  3008               	movlw	8
  3991  0296  00AE               	movwf	??___flmul
  3992  0297                     u2425:
  3993  0297  1003               	clrc
  3994  0298  0DB4               	rlf	___flmul@grs,f
  3995  0299  0DB5               	rlf	___flmul@grs+1,f
  3996  029A  0DB6               	rlf	___flmul@grs+2,f
  3997  029B  0DB7               	rlf	___flmul@grs+3,f
  3998  029C  0BAE               	decfsz	??___flmul,f
  3999  029D  2A97               	goto	u2425
  4000  029E                     l1884:
  4001  029E  0839               	movf	___flmul@bexp,w
  4002  029F  0738               	addwf	___flmul@aexp,w
  4003  02A0  00AE               	movwf	??___flmul
  4004  02A1  01AF               	clrf	??___flmul+1
  4005  02A2  0DAF               	rlf	??___flmul+1,f
  4006  02A3  082E               	movf	??___flmul,w
  4007  02A4  3E82               	addlw	130
  4008  02A5  00BE               	movwf	___flmul@temp
  4009  02A6  082F               	movf	??___flmul+1,w
  4010  02A7  1803               	skipnc
  4011  02A8  3E01               	addlw	1
  4012  02A9  3EFF               	addlw	255
  4013  02AA  00BF               	movwf	___flmul@temp+1
  4014  02AB  2AC9               	goto	l1896
  4015  02AC                     l1886:
  4016  02AC  3001               	movlw	1
  4017  02AD  00AE               	movwf	??___flmul
  4018  02AE                     u2435:
  4019  02AE  1003               	clrc
  4020  02AF  0DBA               	rlf	___flmul@prod,f
  4021  02B0  0DBB               	rlf	___flmul@prod+1,f
  4022  02B1  0DBC               	rlf	___flmul@prod+2,f
  4023  02B2  0DBD               	rlf	___flmul@prod+3,f
  4024  02B3  0BAE               	decfsz	??___flmul,f
  4025  02B4  2AAE               	goto	u2435
  4026  02B5                     l1888:
  4027  02B5  1FB7               	btfss	___flmul@grs+3,7
  4028  02B6  2AB8               	goto	u2441
  4029  02B7  2AB9               	goto	u2440
  4030  02B8                     u2441:
  4031  02B8  2ABA               	goto	l1892
  4032  02B9                     u2440:
  4033  02B9                     l1890:
  4034  02B9  143A               	bsf	___flmul@prod,0
  4035  02BA                     l1892:
  4036  02BA  3001               	movlw	1
  4037  02BB  00AE               	movwf	??___flmul
  4038  02BC                     u2455:
  4039  02BC  1003               	clrc
  4040  02BD  0DB4               	rlf	___flmul@grs,f
  4041  02BE  0DB5               	rlf	___flmul@grs+1,f
  4042  02BF  0DB6               	rlf	___flmul@grs+2,f
  4043  02C0  0DB7               	rlf	___flmul@grs+3,f
  4044  02C1  0BAE               	decfsz	??___flmul,f
  4045  02C2  2ABC               	goto	u2455
  4046  02C3                     l1894:
  4047  02C3  30FF               	movlw	255
  4048  02C4  07BE               	addwf	___flmul@temp,f
  4049  02C5  1803               	skipnc
  4050  02C6  0ABF               	incf	___flmul@temp+1,f
  4051  02C7  30FF               	movlw	255
  4052  02C8  07BF               	addwf	___flmul@temp+1,f
  4053  02C9                     l1896:
  4054  02C9  1FBC               	btfss	___flmul@prod+2,7
  4055  02CA  2ACC               	goto	u2461
  4056  02CB  2ACD               	goto	u2460
  4057  02CC                     u2461:
  4058  02CC  2AAC               	goto	l1886
  4059  02CD                     u2460:
  4060  02CD                     l1898:
  4061  02CD  01B8               	clrf	___flmul@aexp
  4062  02CE                     l1900:
  4063  02CE  1FB7               	btfss	___flmul@grs+3,7
  4064  02CF  2AD1               	goto	u2471
  4065  02D0  2AD2               	goto	u2470
  4066  02D1                     u2471:
  4067  02D1  2AEE               	goto	l1908
  4068  02D2                     u2470:
  4069  02D2                     l1902:
  4070  02D2  30FF               	movlw	255
  4071  02D3  0534               	andwf	___flmul@grs,w
  4072  02D4  00AE               	movwf	??___flmul
  4073  02D5  30FF               	movlw	255
  4074  02D6  0535               	andwf	___flmul@grs+1,w
  4075  02D7  00AF               	movwf	??___flmul+1
  4076  02D8  30FF               	movlw	255
  4077  02D9  0536               	andwf	___flmul@grs+2,w
  4078  02DA  00B0               	movwf	??___flmul+2
  4079  02DB  307F               	movlw	127
  4080  02DC  0537               	andwf	___flmul@grs+3,w
  4081  02DD  00B1               	movwf	??___flmul+3
  4082  02DE  0831               	movf	??___flmul+3,w
  4083  02DF  0430               	iorwf	??___flmul+2,w
  4084  02E0  042F               	iorwf	??___flmul+1,w
  4085  02E1  042E               	iorwf	??___flmul,w
  4086  02E2  1903               	skipnz
  4087  02E3  2AE5               	goto	u2481
  4088  02E4  2AE6               	goto	u2480
  4089  02E5                     u2481:
  4090  02E5  2AE9               	goto	l629
  4091  02E6                     u2480:
  4092  02E6                     l1904:
  4093  02E6  01B8               	clrf	___flmul@aexp
  4094  02E7  0AB8               	incf	___flmul@aexp,f
  4095  02E8  2AEE               	goto	l1908
  4096  02E9                     l629:
  4097  02E9  1C3A               	btfss	___flmul@prod,0
  4098  02EA  2AEC               	goto	u2491
  4099  02EB  2AED               	goto	u2490
  4100  02EC                     u2491:
  4101  02EC  2AEE               	goto	l1908
  4102  02ED                     u2490:
  4103  02ED  2AE6               	goto	l1904
  4104  02EE                     l1908:
  4105  02EE  0838               	movf	___flmul@aexp,w
  4106  02EF  1903               	btfsc	3,2
  4107  02F0  2AF2               	goto	u2501
  4108  02F1  2AF3               	goto	u2500
  4109  02F2                     u2501:
  4110  02F2  2B24               	goto	l1918
  4111  02F3                     u2500:
  4112  02F3                     l1910:
  4113  02F3  3001               	movlw	1
  4114  02F4  07BA               	addwf	___flmul@prod,f
  4115  02F5  3000               	movlw	0
  4116  02F6  1803               	skipnc
  4117  02F7  3001               	movlw	1
  4118  02F8  07BB               	addwf	___flmul@prod+1,f
  4119  02F9  3000               	movlw	0
  4120  02FA  1803               	skipnc
  4121  02FB  3001               	movlw	1
  4122  02FC  07BC               	addwf	___flmul@prod+2,f
  4123  02FD  3000               	movlw	0
  4124  02FE  1803               	skipnc
  4125  02FF  3001               	movlw	1
  4126  0300  07BD               	addwf	___flmul@prod+3,f
  4127  0301                     l1912:
  4128  0301  1C3D               	btfss	___flmul@prod+3,0
  4129  0302  2B04               	goto	u2511
  4130  0303  2B05               	goto	u2510
  4131  0304                     u2511:
  4132  0304  2B24               	goto	l1918
  4133  0305                     u2510:
  4134  0305                     l1914:
  4135  0305  083A               	movf	___flmul@prod,w
  4136  0306  00AE               	movwf	??___flmul
  4137  0307  083B               	movf	___flmul@prod+1,w
  4138  0308  00AF               	movwf	??___flmul+1
  4139  0309  083C               	movf	___flmul@prod+2,w
  4140  030A  00B0               	movwf	??___flmul+2
  4141  030B  083D               	movf	___flmul@prod+3,w
  4142  030C  00B1               	movwf	??___flmul+3
  4143  030D  3001               	movlw	1
  4144  030E  00B2               	movwf	??___flmul+4
  4145  030F                     u2525:
  4146  030F  0D31               	rlf	??___flmul+3,w
  4147  0310  0CB1               	rrf	??___flmul+3,f
  4148  0311  0CB0               	rrf	??___flmul+2,f
  4149  0312  0CAF               	rrf	??___flmul+1,f
  4150  0313  0CAE               	rrf	??___flmul,f
  4151  0314                     u2520:
  4152  0314  0BB2               	decfsz	??___flmul+4,f
  4153  0315  2B0F               	goto	u2525
  4154  0316  0831               	movf	??___flmul+3,w
  4155  0317  00BD               	movwf	___flmul@prod+3
  4156  0318  0830               	movf	??___flmul+2,w
  4157  0319  00BC               	movwf	___flmul@prod+2
  4158  031A  082F               	movf	??___flmul+1,w
  4159  031B  00BB               	movwf	___flmul@prod+1
  4160  031C  082E               	movf	??___flmul,w
  4161  031D  00BA               	movwf	___flmul@prod
  4162  031E                     l1916:
  4163  031E  3001               	movlw	1
  4164  031F  07BE               	addwf	___flmul@temp,f
  4165  0320  1803               	skipnc
  4166  0321  0ABF               	incf	___flmul@temp+1,f
  4167  0322  3000               	movlw	0
  4168  0323  07BF               	addwf	___flmul@temp+1,f
  4169  0324                     l1918:
  4170  0324  083F               	movf	___flmul@temp+1,w
  4171  0325  3A80               	xorlw	128
  4172  0326  00FF               	movwf	btemp+1
  4173  0327  3080               	movlw	128
  4174  0328  027F               	subwf	btemp+1,w
  4175  0329  1D03               	skipz
  4176  032A  2B2D               	goto	u2535
  4177  032B  30FF               	movlw	255
  4178  032C  023E               	subwf	___flmul@temp,w
  4179  032D                     u2535:
  4180  032D  1C03               	skipc
  4181  032E  2B30               	goto	u2531
  4182  032F  2B31               	goto	u2530
  4183  0330                     u2531:
  4184  0330  2B3C               	goto	l1922
  4185  0331                     u2530:
  4186  0331                     l1920:
  4187  0331  307F               	movlw	127
  4188  0332  1283               	bcf	3,5	;RP0=0, select bank0
  4189  0333  1303               	bcf	3,6	;RP1=0, select bank0
  4190  0334  00BD               	movwf	___flmul@prod+3
  4191  0335  3080               	movlw	128
  4192  0336  00BC               	movwf	___flmul@prod+2
  4193  0337  3000               	movlw	0
  4194  0338  00BB               	movwf	___flmul@prod+1
  4195  0339  3000               	movlw	0
  4196  033A  00BA               	movwf	___flmul@prod
  4197  033B  2B71               	goto	l635
  4198  033C                     l1922:
  4199  033C  1283               	bcf	3,5	;RP0=0, select bank0
  4200  033D  1303               	bcf	3,6	;RP1=0, select bank0
  4201  033E  083F               	movf	___flmul@temp+1,w
  4202  033F  3A80               	xorlw	128
  4203  0340  00FF               	movwf	btemp+1
  4204  0341  3080               	movlw	128
  4205  0342  027F               	subwf	btemp+1,w
  4206  0343  1D03               	skipz
  4207  0344  2B47               	goto	u2545
  4208  0345  3001               	movlw	1
  4209  0346  023E               	subwf	___flmul@temp,w
  4210  0347                     u2545:
  4211  0347  1803               	skipnc
  4212  0348  2B4A               	goto	u2541
  4213  0349  2B4B               	goto	u2540
  4214  034A                     u2541:
  4215  034A  2B57               	goto	l1928
  4216  034B                     u2540:
  4217  034B                     l1924:
  4218  034B  3000               	movlw	0
  4219  034C  1283               	bcf	3,5	;RP0=0, select bank0
  4220  034D  1303               	bcf	3,6	;RP1=0, select bank0
  4221  034E  00BD               	movwf	___flmul@prod+3
  4222  034F  3000               	movlw	0
  4223  0350  00BC               	movwf	___flmul@prod+2
  4224  0351  3000               	movlw	0
  4225  0352  00BB               	movwf	___flmul@prod+1
  4226  0353  3000               	movlw	0
  4227  0354  00BA               	movwf	___flmul@prod
  4228  0355                     l1926:
  4229  0355  01B3               	clrf	___flmul@sign
  4230  0356  2B71               	goto	l635
  4231  0357                     l1928:
  4232  0357  1283               	bcf	3,5	;RP0=0, select bank0
  4233  0358  1303               	bcf	3,6	;RP1=0, select bank0
  4234  0359  083E               	movf	___flmul@temp,w
  4235  035A  00AE               	movwf	??___flmul
  4236  035B  082E               	movf	??___flmul,w
  4237  035C  00B9               	movwf	___flmul@bexp
  4238  035D  30FF               	movlw	255
  4239  035E  05BA               	andwf	___flmul@prod,f
  4240  035F  30FF               	movlw	255
  4241  0360  05BB               	andwf	___flmul@prod+1,f
  4242  0361  307F               	movlw	127
  4243  0362  05BC               	andwf	___flmul@prod+2,f
  4244  0363  3000               	movlw	0
  4245  0364  05BD               	andwf	___flmul@prod+3,f
  4246  0365                     l1930:
  4247  0365  1C39               	btfss	___flmul@bexp,0
  4248  0366  2B68               	goto	u2551
  4249  0367  2B69               	goto	u2550
  4250  0368                     u2551:
  4251  0368  2B6A               	goto	l1934
  4252  0369                     u2550:
  4253  0369                     l1932:
  4254  0369  17BC               	bsf	___flmul@prod+2,7
  4255  036A                     l1934:
  4256  036A  0839               	movf	___flmul@bexp,w
  4257  036B  00AE               	movwf	??___flmul
  4258  036C  1003               	clrc
  4259  036D  0C2E               	rrf	??___flmul,w
  4260  036E  00AF               	movwf	??___flmul+1
  4261  036F  082F               	movf	??___flmul+1,w
  4262  0370  00BD               	movwf	___flmul@prod+3
  4263  0371                     l635:
  4264  0371  0833               	movf	___flmul@sign,w
  4265  0372  00AE               	movwf	??___flmul
  4266  0373  082E               	movf	??___flmul,w
  4267  0374  04BD               	iorwf	___flmul@prod+3,f
  4268  0375                     l1936:
  4269  0375  083D               	movf	___flmul@prod+3,w
  4270  0376  00A9               	movwf	?___flmul+3
  4271  0377  083C               	movf	___flmul@prod+2,w
  4272  0378  00A8               	movwf	?___flmul+2
  4273  0379  083B               	movf	___flmul@prod+1,w
  4274  037A  00A7               	movwf	?___flmul+1
  4275  037B  083A               	movf	___flmul@prod,w
  4276  037C  00A6               	movwf	?___flmul
  4277  037D                     l623:
  4278  037D  0008               	return
  4279  037E                     __end_of___flmul:
  4280                           
  4281                           	psect	text11
  4282  0D8F                     __ptext11:	
  4283 ;; *************** function __Umul8_16 *****************
  4284 ;; Defined at:
  4285 ;;		line 4 in file "C:\Program Files\Microchip\xc8\v2.31\pic\sources\c90\common\Umul8_16.c"
  4286 ;; Parameters:    Size  Location     Type
  4287 ;;  multiplier      1    wreg     unsigned char 
  4288 ;;  multiplicand    1    2[COMMON] unsigned char 
  4289 ;; Auto vars:     Size  Location     Type
  4290 ;;  multiplier      1   10[COMMON] unsigned char 
  4291 ;;  word_mpld       2    8[COMMON] unsigned int 
  4292 ;;  product         2    6[COMMON] unsigned int 
  4293 ;; Return value:  Size  Location     Type
  4294 ;;                  2    2[COMMON] unsigned int 
  4295 ;; Registers used:
  4296 ;;		wreg, status,2, status,0
  4297 ;; Tracked objects:
  4298 ;;		On entry : 0/0
  4299 ;;		On exit  : 0/0
  4300 ;;		Unchanged: 0/0
  4301 ;; Data sizes:     COMMON   BANK0   BANK1   BANK3   BANK2
  4302 ;;      Params:         2       0       0       0       0
  4303 ;;      Locals:         5       0       0       0       0
  4304 ;;      Temps:          2       0       0       0       0
  4305 ;;      Totals:         9       0       0       0       0
  4306 ;;Total ram usage:        9 bytes
  4307 ;; Hardware stack levels used:    1
  4308 ;; Hardware stack levels required when called:    1
  4309 ;; This function calls:
  4310 ;;		Nothing
  4311 ;; This function is called by:
  4312 ;;		___flmul
  4313 ;; This function uses a non-reentrant model
  4314 ;;
  4315                           
  4316                           
  4317                           ;psect for function __Umul8_16
  4318  0D8F                     __Umul8_16:
  4319                           
  4320                           ;incstack = 0
  4321                           ; Regs used in __Umul8_16: [wreg+status,2+status,0]
  4322                           ;__Umul8_16@multiplier stored from wreg
  4323  0D8F  00FA               	movwf	__Umul8_16@multiplier
  4324  0D90                     l1700:
  4325  0D90  01F6               	clrf	__Umul8_16@product
  4326  0D91  01F7               	clrf	__Umul8_16@product+1
  4327  0D92                     l1702:
  4328  0D92  0872               	movf	__Umul8_16@multiplicand,w
  4329  0D93  00F4               	movwf	??__Umul8_16
  4330  0D94  01F5               	clrf	??__Umul8_16+1
  4331  0D95  0874               	movf	??__Umul8_16,w
  4332  0D96  00F8               	movwf	__Umul8_16@word_mpld
  4333  0D97  0875               	movf	??__Umul8_16+1,w
  4334  0D98  00F9               	movwf	__Umul8_16@word_mpld+1
  4335  0D99                     l1704:
  4336  0D99  1C7A               	btfss	__Umul8_16@multiplier,0
  4337  0D9A  2D9C               	goto	u2021
  4338  0D9B  2D9D               	goto	u2020
  4339  0D9C                     u2021:
  4340  0D9C  2DA3               	goto	l642
  4341  0D9D                     u2020:
  4342  0D9D                     l1706:
  4343  0D9D  0878               	movf	__Umul8_16@word_mpld,w
  4344  0D9E  07F6               	addwf	__Umul8_16@product,f
  4345  0D9F  1803               	skipnc
  4346  0DA0  0AF7               	incf	__Umul8_16@product+1,f
  4347  0DA1  0879               	movf	__Umul8_16@word_mpld+1,w
  4348  0DA2  07F7               	addwf	__Umul8_16@product+1,f
  4349  0DA3                     l642:
  4350  0DA3  3001               	movlw	1
  4351  0DA4                     u2035:
  4352  0DA4  1003               	clrc
  4353  0DA5  0DF8               	rlf	__Umul8_16@word_mpld,f
  4354  0DA6  0DF9               	rlf	__Umul8_16@word_mpld+1,f
  4355  0DA7  3EFF               	addlw	-1
  4356  0DA8  1D03               	skipz
  4357  0DA9  2DA4               	goto	u2035
  4358  0DAA  1003               	clrc
  4359  0DAB  0CFA               	rrf	__Umul8_16@multiplier,f
  4360  0DAC                     l1708:
  4361  0DAC  087A               	movf	__Umul8_16@multiplier,w
  4362  0DAD  1D03               	btfss	3,2
  4363  0DAE  2DB0               	goto	u2041
  4364  0DAF  2DB1               	goto	u2040
  4365  0DB0                     u2041:
  4366  0DB0  2D99               	goto	l1704
  4367  0DB1                     u2040:
  4368  0DB1                     l1710:
  4369  0DB1  0877               	movf	__Umul8_16@product+1,w
  4370  0DB2  00F3               	movwf	?__Umul8_16+1
  4371  0DB3  0876               	movf	__Umul8_16@product,w
  4372  0DB4  00F2               	movwf	?__Umul8_16
  4373  0DB5                     l644:
  4374  0DB5  0008               	return
  4375  0DB6                     __end_of__Umul8_16:
  4376                           
  4377                           	psect	text12
  4378  0D48                     __ptext12:	
  4379 ;; *************** function _cursorLCD *****************
  4380 ;; Defined at:
  4381 ;;		line 50 in file "LCDD2.c"
  4382 ;; Parameters:    Size  Location     Type
  4383 ;;  fila            1    wreg     unsigned char 
  4384 ;;  columna         1    5[COMMON] unsigned char 
  4385 ;; Auto vars:     Size  Location     Type
  4386 ;;  fila            1    7[COMMON] unsigned char 
  4387 ;;  temp            1    8[COMMON] unsigned char 
  4388 ;; Return value:  Size  Location     Type
  4389 ;;                  1    wreg      void 
  4390 ;; Registers used:
  4391 ;;		wreg, status,2, status,0, pclath, cstack
  4392 ;; Tracked objects:
  4393 ;;		On entry : 0/0
  4394 ;;		On exit  : 0/0
  4395 ;;		Unchanged: 0/0
  4396 ;; Data sizes:     COMMON   BANK0   BANK1   BANK3   BANK2
  4397 ;;      Params:         1       0       0       0       0
  4398 ;;      Locals:         2       0       0       0       0
  4399 ;;      Temps:          1       0       0       0       0
  4400 ;;      Totals:         4       0       0       0       0
  4401 ;;Total ram usage:        4 bytes
  4402 ;; Hardware stack levels used:    1
  4403 ;; Hardware stack levels required when called:    2
  4404 ;; This function calls:
  4405 ;;		_comandoLCD
  4406 ;; This function is called by:
  4407 ;;		_main
  4408 ;; This function uses a non-reentrant model
  4409 ;;
  4410                           
  4411                           
  4412                           ;psect for function _cursorLCD
  4413  0D48                     _cursorLCD:
  4414                           
  4415                           ;incstack = 0
  4416                           ; Regs used in _cursorLCD: [wreg+status,2+status,0+pclath+cstack]
  4417                           ;cursorLCD@fila stored from wreg
  4418  0D48  00F7               	movwf	cursorLCD@fila
  4419  0D49                     l2048:
  4420                           
  4421                           ;LCDD2.c: 51:     uint8_t temp;;LCDD2.c: 52:     if(fila == 1){
  4422  0D49  0377               	decf	cursorLCD@fila,w
  4423  0D4A  1D03               	btfss	3,2
  4424  0D4B  2D4D               	goto	u2701
  4425  0D4C  2D4E               	goto	u2700
  4426  0D4D                     u2701:
  4427  0D4D  2D59               	goto	l2054
  4428  0D4E                     u2700:
  4429  0D4E                     l2050:
  4430                           
  4431                           ;LCDD2.c: 53:         temp = 0X80 + columna - 1;
  4432  0D4E  0875               	movf	cursorLCD@columna,w
  4433  0D4F  3E7F               	addlw	127
  4434  0D50  00F6               	movwf	??_cursorLCD
  4435  0D51  0876               	movf	??_cursorLCD,w
  4436  0D52  00F8               	movwf	cursorLCD@temp
  4437  0D53                     l2052:
  4438                           
  4439                           ;LCDD2.c: 54:         comandoLCD(temp);
  4440  0D53  0878               	movf	cursorLCD@temp,w
  4441  0D54  120A  158A  24C1  120A  158A  	fcall	_comandoLCD
  4442  0D59                     l2054:
  4443                           
  4444                           ;LCDD2.c: 57:     if(fila == 2){
  4445  0D59  3002               	movlw	2
  4446  0D5A  0677               	xorwf	cursorLCD@fila,w
  4447  0D5B  1D03               	btfss	3,2
  4448  0D5C  2D5E               	goto	u2711
  4449  0D5D  2D5F               	goto	u2710
  4450  0D5E                     u2711:
  4451  0D5E  2D6A               	goto	l136
  4452  0D5F                     u2710:
  4453  0D5F                     l2056:
  4454                           
  4455                           ;LCDD2.c: 58:         temp = 0XC0 + columna -1;
  4456  0D5F  0875               	movf	cursorLCD@columna,w
  4457  0D60  3EBF               	addlw	191
  4458  0D61  00F6               	movwf	??_cursorLCD
  4459  0D62  0876               	movf	??_cursorLCD,w
  4460  0D63  00F8               	movwf	cursorLCD@temp
  4461  0D64                     l2058:
  4462                           
  4463                           ;LCDD2.c: 59:         comandoLCD(temp);
  4464  0D64  0878               	movf	cursorLCD@temp,w
  4465  0D65  120A  158A  24C1  120A  158A  	fcall	_comandoLCD
  4466  0D6A                     l136:
  4467  0D6A  0008               	return
  4468  0D6B                     __end_of_cursorLCD:
  4469                           
  4470                           	psect	text13
  4471  0CC1                     __ptext13:	
  4472 ;; *************** function _comandoLCD *****************
  4473 ;; Defined at:
  4474 ;;		line 63 in file "LCDD2.c"
  4475 ;; Parameters:    Size  Location     Type
  4476 ;;  cmd             1    wreg     unsigned char 
  4477 ;; Auto vars:     Size  Location     Type
  4478 ;;  cmd             1    4[COMMON] unsigned char 
  4479 ;; Return value:  Size  Location     Type
  4480 ;;                  1    wreg      void 
  4481 ;; Registers used:
  4482 ;;		wreg
  4483 ;; Tracked objects:
  4484 ;;		On entry : 0/0
  4485 ;;		On exit  : 0/0
  4486 ;;		Unchanged: 0/0
  4487 ;; Data sizes:     COMMON   BANK0   BANK1   BANK3   BANK2
  4488 ;;      Params:         0       0       0       0       0
  4489 ;;      Locals:         1       0       0       0       0
  4490 ;;      Temps:          2       0       0       0       0
  4491 ;;      Totals:         3       0       0       0       0
  4492 ;;Total ram usage:        3 bytes
  4493 ;; Hardware stack levels used:    1
  4494 ;; Hardware stack levels required when called:    1
  4495 ;; This function calls:
  4496 ;;		Nothing
  4497 ;; This function is called by:
  4498 ;;		_initLCD
  4499 ;;		_cursorLCD
  4500 ;;		_ClearLCD
  4501 ;; This function uses a non-reentrant model
  4502 ;;
  4503                           
  4504                           
  4505                           ;psect for function _comandoLCD
  4506  0CC1                     _comandoLCD:
  4507                           
  4508                           ;incstack = 0
  4509                           ; Regs used in _comandoLCD: [wreg]
  4510                           ;comandoLCD@cmd stored from wreg
  4511  0CC1  00F4               	movwf	comandoLCD@cmd
  4512  0CC2                     l1750:
  4513                           
  4514                           ;LCDD2.c: 64:     RE0 = 0;
  4515  0CC2  1283               	bcf	3,5	;RP0=0, select bank0
  4516  0CC3  1303               	bcf	3,6	;RP1=0, select bank0
  4517  0CC4  1009               	bcf	9,0	;volatile
  4518  0CC5                     l1752:
  4519                           
  4520                           ;LCDD2.c: 65:     PORTD = cmd;
  4521  0CC5  0874               	movf	comandoLCD@cmd,w
  4522  0CC6  0088               	movwf	8	;volatile
  4523  0CC7                     l1754:
  4524                           
  4525                           ;LCDD2.c: 66:     RE1 = 1;
  4526  0CC7  1489               	bsf	9,1	;volatile
  4527                           
  4528                           ;LCDD2.c: 67:     _delay((unsigned long)((4)*(8000000/4000.0)));
  4529  0CC8  300B               	movlw	11
  4530  0CC9  00F3               	movwf	??_comandoLCD+1
  4531  0CCA  3062               	movlw	98
  4532  0CCB  00F2               	movwf	??_comandoLCD
  4533  0CCC                     u2787:
  4534  0CCC  0BF2               	decfsz	??_comandoLCD,f
  4535  0CCD  2CCC               	goto	u2787
  4536  0CCE  0BF3               	decfsz	??_comandoLCD+1,f
  4537  0CCF  2CCC               	goto	u2787
  4538  0CD0  0000               	nop
  4539  0CD1                     l1756:
  4540                           
  4541                           ;LCDD2.c: 68:     RE1 = 0;
  4542  0CD1  1283               	bcf	3,5	;RP0=0, select bank0
  4543  0CD2  1303               	bcf	3,6	;RP1=0, select bank0
  4544  0CD3  1089               	bcf	9,1	;volatile
  4545  0CD4                     l139:
  4546  0CD4  0008               	return
  4547  0CD5                     __end_of_comandoLCD:
  4548                           
  4549                           	psect	text14
  4550  0CEA                     __ptext14:	
  4551 ;; *************** function _config *****************
  4552 ;; Defined at:
  4553 ;;		line 83 in file "main.c"
  4554 ;; Parameters:    Size  Location     Type
  4555 ;;		None
  4556 ;; Auto vars:     Size  Location     Type
  4557 ;;		None
  4558 ;; Return value:  Size  Location     Type
  4559 ;;                  1    wreg      void 
  4560 ;; Registers used:
  4561 ;;		wreg, status,2, status,0, pclath, cstack
  4562 ;; Tracked objects:
  4563 ;;		On entry : 0/0
  4564 ;;		On exit  : 0/0
  4565 ;;		Unchanged: 0/0
  4566 ;; Data sizes:     COMMON   BANK0   BANK1   BANK3   BANK2
  4567 ;;      Params:         0       0       0       0       0
  4568 ;;      Locals:         0       0       0       0       0
  4569 ;;      Temps:          0       0       0       0       0
  4570 ;;      Totals:         0       0       0       0       0
  4571 ;;Total ram usage:        0 bytes
  4572 ;; Hardware stack levels used:    1
  4573 ;; Hardware stack levels required when called:    3
  4574 ;; This function calls:
  4575 ;;		_MasterInit_I2C
  4576 ;; This function is called by:
  4577 ;;		_main
  4578 ;; This function uses a non-reentrant model
  4579 ;;
  4580                           
  4581                           
  4582                           ;psect for function _config
  4583  0CEA                     _config:
  4584  0CEA                     l1984:	
  4585                           ;incstack = 0
  4586                           ; Regs used in _config: [wreg+status,2+status,0+pclath+cstack]
  4587                           
  4588                           
  4589                           ;main.c: 84:     ANSEL = 0X00;
  4590  0CEA  1683               	bsf	3,5	;RP0=1, select bank3
  4591  0CEB  1703               	bsf	3,6	;RP1=1, select bank3
  4592  0CEC  0188               	clrf	8	;volatile
  4593                           
  4594                           ;main.c: 85:     ANSELH = 0X00;
  4595  0CED  0189               	clrf	9	;volatile
  4596                           
  4597                           ;main.c: 86:     TRISA = 0X00;
  4598  0CEE  1683               	bsf	3,5	;RP0=1, select bank1
  4599  0CEF  1303               	bcf	3,6	;RP1=0, select bank1
  4600  0CF0  0185               	clrf	5	;volatile
  4601                           
  4602                           ;main.c: 87:     TRISB = 0X00;
  4603  0CF1  0186               	clrf	6	;volatile
  4604                           
  4605                           ;main.c: 88:     TRISD = 0X00;
  4606  0CF2  0188               	clrf	8	;volatile
  4607                           
  4608                           ;main.c: 89:     TRISE = 0X00;
  4609  0CF3  0189               	clrf	9	;volatile
  4610                           
  4611                           ;main.c: 90:     PORTA = 0X00;
  4612  0CF4  1283               	bcf	3,5	;RP0=0, select bank0
  4613  0CF5  1303               	bcf	3,6	;RP1=0, select bank0
  4614  0CF6  0185               	clrf	5	;volatile
  4615                           
  4616                           ;main.c: 91:     PORTB = 0X00;
  4617  0CF7  0186               	clrf	6	;volatile
  4618                           
  4619                           ;main.c: 92:     PORTD = 0X00;
  4620  0CF8  0188               	clrf	8	;volatile
  4621                           
  4622                           ;main.c: 93:     PORTE = 0X00;
  4623  0CF9  0189               	clrf	9	;volatile
  4624  0CFA                     l1986:
  4625                           
  4626                           ;main.c: 95:     MasterInit_I2C(100000);
  4627  0CFA  3000               	movlw	0
  4628  0CFB  00A8               	movwf	MasterInit_I2C@frec+3
  4629  0CFC  3001               	movlw	1
  4630  0CFD  00A7               	movwf	MasterInit_I2C@frec+2
  4631  0CFE  3086               	movlw	134
  4632  0CFF  00A6               	movwf	MasterInit_I2C@frec+1
  4633  0D00  30A0               	movlw	160
  4634  0D01  00A5               	movwf	MasterInit_I2C@frec
  4635  0D02  120A  158A  25B6  120A  158A  	fcall	_MasterInit_I2C
  4636  0D07                     l68:
  4637  0D07  0008               	return
  4638  0D08                     __end_of_config:
  4639                           
  4640                           	psect	text15
  4641  0DB6                     __ptext15:	
  4642 ;; *************** function _MasterInit_I2C *****************
  4643 ;; Defined at:
  4644 ;;		line 13 in file "I2C.c"
  4645 ;; Parameters:    Size  Location     Type
  4646 ;;  frec            4    5[BANK0 ] unsigned long 
  4647 ;; Auto vars:     Size  Location     Type
  4648 ;;		None
  4649 ;; Return value:  Size  Location     Type
  4650 ;;                  1    wreg      void 
  4651 ;; Registers used:
  4652 ;;		wreg, status,2, status,0, pclath, cstack
  4653 ;; Tracked objects:
  4654 ;;		On entry : 0/0
  4655 ;;		On exit  : 0/0
  4656 ;;		Unchanged: 0/0
  4657 ;; Data sizes:     COMMON   BANK0   BANK1   BANK3   BANK2
  4658 ;;      Params:         0       4       0       0       0
  4659 ;;      Locals:         0       0       0       0       0
  4660 ;;      Temps:          0       4       0       0       0
  4661 ;;      Totals:         0       8       0       0       0
  4662 ;;Total ram usage:        8 bytes
  4663 ;; Hardware stack levels used:    1
  4664 ;; Hardware stack levels required when called:    2
  4665 ;; This function calls:
  4666 ;;		___lldiv
  4667 ;; This function is called by:
  4668 ;;		_config
  4669 ;; This function uses a non-reentrant model
  4670 ;;
  4671                           
  4672                           
  4673                           ;psect for function _MasterInit_I2C
  4674  0DB6                     _MasterInit_I2C:
  4675  0DB6                     l1722:	
  4676                           ;incstack = 0
  4677                           ; Regs used in _MasterInit_I2C: [wreg+status,2+status,0+pclath+cstack]
  4678                           
  4679                           
  4680                           ;I2C.c: 14:     SSPCON = 0X28;
  4681  0DB6  3028               	movlw	40
  4682  0DB7  1283               	bcf	3,5	;RP0=0, select bank0
  4683  0DB8  1303               	bcf	3,6	;RP1=0, select bank0
  4684  0DB9  0094               	movwf	20	;volatile
  4685  0DBA                     l1724:
  4686                           
  4687                           ;I2C.c: 15:     SSPCON2 = 0X00;
  4688  0DBA  1683               	bsf	3,5	;RP0=1, select bank1
  4689  0DBB  1303               	bcf	3,6	;RP1=0, select bank1
  4690  0DBC  0191               	clrf	17	;volatile
  4691  0DBD                     l1726:
  4692                           
  4693                           ;I2C.c: 16:     SSPSTAT = 0X80;
  4694  0DBD  3080               	movlw	128
  4695  0DBE  0094               	movwf	20	;volatile
  4696  0DBF                     l1728:
  4697                           
  4698                           ;I2C.c: 17:     SSPADD = (8000000/(4*frec))-1;
  4699  0DBF  1283               	bcf	3,5	;RP0=0, select bank0
  4700  0DC0  1303               	bcf	3,6	;RP1=0, select bank0
  4701  0DC1  0825               	movf	MasterInit_I2C@frec,w
  4702  0DC2  00A9               	movwf	??_MasterInit_I2C
  4703  0DC3  0826               	movf	MasterInit_I2C@frec+1,w
  4704  0DC4  00AA               	movwf	??_MasterInit_I2C+1
  4705  0DC5  0827               	movf	MasterInit_I2C@frec+2,w
  4706  0DC6  00AB               	movwf	??_MasterInit_I2C+2
  4707  0DC7  0828               	movf	MasterInit_I2C@frec+3,w
  4708  0DC8  00AC               	movwf	??_MasterInit_I2C+3
  4709  0DC9  3002               	movlw	2
  4710  0DCA                     u2055:
  4711  0DCA  1003               	clrc
  4712  0DCB  0DA9               	rlf	??_MasterInit_I2C,f
  4713  0DCC  0DAA               	rlf	??_MasterInit_I2C+1,f
  4714  0DCD  0DAB               	rlf	??_MasterInit_I2C+2,f
  4715  0DCE  0DAC               	rlf	??_MasterInit_I2C+3,f
  4716  0DCF                     u2050:
  4717  0DCF  3EFF               	addlw	-1
  4718  0DD0  1D03               	skipz
  4719  0DD1  2DCA               	goto	u2055
  4720  0DD2  082C               	movf	??_MasterInit_I2C+3,w
  4721  0DD3  00F5               	movwf	___lldiv@divisor+3
  4722  0DD4  082B               	movf	??_MasterInit_I2C+2,w
  4723  0DD5  00F4               	movwf	___lldiv@divisor+2
  4724  0DD6  082A               	movf	??_MasterInit_I2C+1,w
  4725  0DD7  00F3               	movwf	___lldiv@divisor+1
  4726  0DD8  0829               	movf	??_MasterInit_I2C,w
  4727  0DD9  00F2               	movwf	___lldiv@divisor
  4728  0DDA  3000               	movlw	0
  4729  0DDB  00F9               	movwf	___lldiv@dividend+3
  4730  0DDC  307A               	movlw	122
  4731  0DDD  00F8               	movwf	___lldiv@dividend+2
  4732  0DDE  3012               	movlw	18
  4733  0DDF  00F7               	movwf	___lldiv@dividend+1
  4734  0DE0  3000               	movlw	0
  4735  0DE1  00F6               	movwf	___lldiv@dividend
  4736  0DE2  120A  118A  2785  120A  158A  	fcall	___lldiv
  4737  0DE7  0872               	movf	?___lldiv,w
  4738  0DE8  3EFF               	addlw	255
  4739  0DE9  1683               	bsf	3,5	;RP0=1, select bank1
  4740  0DEA  1303               	bcf	3,6	;RP1=0, select bank1
  4741  0DEB  0093               	movwf	19	;volatile
  4742  0DEC                     l1730:
  4743                           
  4744                           ;I2C.c: 19:     TRISCbits.TRISC3 = 1;
  4745  0DEC  1587               	bsf	7,3	;volatile
  4746  0DED                     l1732:
  4747                           
  4748                           ;I2C.c: 20:     TRISCbits.TRISC4 = 1;
  4749  0DED  1607               	bsf	7,4	;volatile
  4750  0DEE                     l94:
  4751  0DEE  0008               	return
  4752  0DEF                     __end_of_MasterInit_I2C:
  4753                           
  4754                           	psect	text16
  4755  0785                     __ptext16:	
  4756 ;; *************** function ___lldiv *****************
  4757 ;; Defined at:
  4758 ;;		line 5 in file "C:\Program Files\Microchip\xc8\v2.31\pic\sources\c90\common\__lldiv.c"
  4759 ;; Parameters:    Size  Location     Type
  4760 ;;  divisor         4    2[COMMON] unsigned long 
  4761 ;;  dividend        4    6[COMMON] unsigned long 
  4762 ;; Auto vars:     Size  Location     Type
  4763 ;;  quotient        4    0[BANK0 ] unsigned long 
  4764 ;;  counter         1    4[BANK0 ] unsigned char 
  4765 ;; Return value:  Size  Location     Type
  4766 ;;                  4    2[COMMON] unsigned long 
  4767 ;; Registers used:
  4768 ;;		wreg, status,2, status,0
  4769 ;; Tracked objects:
  4770 ;;		On entry : 0/0
  4771 ;;		On exit  : 0/0
  4772 ;;		Unchanged: 0/0
  4773 ;; Data sizes:     COMMON   BANK0   BANK1   BANK3   BANK2
  4774 ;;      Params:         8       0       0       0       0
  4775 ;;      Locals:         0       5       0       0       0
  4776 ;;      Temps:          1       0       0       0       0
  4777 ;;      Totals:         9       5       0       0       0
  4778 ;;Total ram usage:       14 bytes
  4779 ;; Hardware stack levels used:    1
  4780 ;; Hardware stack levels required when called:    1
  4781 ;; This function calls:
  4782 ;;		Nothing
  4783 ;; This function is called by:
  4784 ;;		_MasterInit_I2C
  4785 ;; This function uses a non-reentrant model
  4786 ;;
  4787                           
  4788                           
  4789                           ;psect for function ___lldiv
  4790  0785                     ___lldiv:
  4791  0785                     l1438:	
  4792                           ;incstack = 0
  4793                           ; Regs used in ___lldiv: [wreg+status,2+status,0]
  4794                           
  4795  0785  3000               	movlw	0
  4796  0786  1283               	bcf	3,5	;RP0=0, select bank0
  4797  0787  1303               	bcf	3,6	;RP1=0, select bank0
  4798  0788  00A3               	movwf	___lldiv@quotient+3
  4799  0789  3000               	movlw	0
  4800  078A  00A2               	movwf	___lldiv@quotient+2
  4801  078B  3000               	movlw	0
  4802  078C  00A1               	movwf	___lldiv@quotient+1
  4803  078D  3000               	movlw	0
  4804  078E  00A0               	movwf	___lldiv@quotient
  4805  078F  0875               	movf	___lldiv@divisor+3,w
  4806  0790  0474               	iorwf	___lldiv@divisor+2,w
  4807  0791  0473               	iorwf	___lldiv@divisor+1,w
  4808  0792  0472               	iorwf	___lldiv@divisor,w
  4809  0793  1903               	skipnz
  4810  0794  2F96               	goto	u1391
  4811  0795  2F97               	goto	u1390
  4812  0796                     u1391:
  4813  0796  2FE4               	goto	l1458
  4814  0797                     u1390:
  4815  0797                     l1440:
  4816  0797  01A4               	clrf	___lldiv@counter
  4817  0798  0AA4               	incf	___lldiv@counter,f
  4818  0799  2FA7               	goto	l1444
  4819  079A                     l1442:
  4820  079A  3001               	movlw	1
  4821  079B  00FA               	movwf	??___lldiv
  4822  079C                     u1405:
  4823  079C  1003               	clrc
  4824  079D  0DF2               	rlf	___lldiv@divisor,f
  4825  079E  0DF3               	rlf	___lldiv@divisor+1,f
  4826  079F  0DF4               	rlf	___lldiv@divisor+2,f
  4827  07A0  0DF5               	rlf	___lldiv@divisor+3,f
  4828  07A1  0BFA               	decfsz	??___lldiv,f
  4829  07A2  2F9C               	goto	u1405
  4830  07A3  3001               	movlw	1
  4831  07A4  00FA               	movwf	??___lldiv
  4832  07A5  087A               	movf	??___lldiv,w
  4833  07A6  07A4               	addwf	___lldiv@counter,f
  4834  07A7                     l1444:
  4835  07A7  1FF5               	btfss	___lldiv@divisor+3,7
  4836  07A8  2FAA               	goto	u1411
  4837  07A9  2FAB               	goto	u1410
  4838  07AA                     u1411:
  4839  07AA  2F9A               	goto	l1442
  4840  07AB                     u1410:
  4841  07AB                     l1446:
  4842  07AB  3001               	movlw	1
  4843  07AC  00FA               	movwf	??___lldiv
  4844  07AD                     u1425:
  4845  07AD  1003               	clrc
  4846  07AE  0DA0               	rlf	___lldiv@quotient,f
  4847  07AF  0DA1               	rlf	___lldiv@quotient+1,f
  4848  07B0  0DA2               	rlf	___lldiv@quotient+2,f
  4849  07B1  0DA3               	rlf	___lldiv@quotient+3,f
  4850  07B2  0BFA               	decfsz	??___lldiv,f
  4851  07B3  2FAD               	goto	u1425
  4852  07B4                     l1448:
  4853  07B4  0875               	movf	___lldiv@divisor+3,w
  4854  07B5  0279               	subwf	___lldiv@dividend+3,w
  4855  07B6  1D03               	skipz
  4856  07B7  2FC2               	goto	u1435
  4857  07B8  0874               	movf	___lldiv@divisor+2,w
  4858  07B9  0278               	subwf	___lldiv@dividend+2,w
  4859  07BA  1D03               	skipz
  4860  07BB  2FC2               	goto	u1435
  4861  07BC  0873               	movf	___lldiv@divisor+1,w
  4862  07BD  0277               	subwf	___lldiv@dividend+1,w
  4863  07BE  1D03               	skipz
  4864  07BF  2FC2               	goto	u1435
  4865  07C0  0872               	movf	___lldiv@divisor,w
  4866  07C1  0276               	subwf	___lldiv@dividend,w
  4867  07C2                     u1435:
  4868  07C2  1C03               	skipc
  4869  07C3  2FC5               	goto	u1431
  4870  07C4  2FC6               	goto	u1430
  4871  07C5                     u1431:
  4872  07C5  2FD5               	goto	l1454
  4873  07C6                     u1430:
  4874  07C6                     l1450:
  4875  07C6  0872               	movf	___lldiv@divisor,w
  4876  07C7  02F6               	subwf	___lldiv@dividend,f
  4877  07C8  0873               	movf	___lldiv@divisor+1,w
  4878  07C9  1C03               	skipc
  4879  07CA  0F73               	incfsz	___lldiv@divisor+1,w
  4880  07CB  02F7               	subwf	___lldiv@dividend+1,f
  4881  07CC  0874               	movf	___lldiv@divisor+2,w
  4882  07CD  1C03               	skipc
  4883  07CE  0F74               	incfsz	___lldiv@divisor+2,w
  4884  07CF  02F8               	subwf	___lldiv@dividend+2,f
  4885  07D0  0875               	movf	___lldiv@divisor+3,w
  4886  07D1  1C03               	skipc
  4887  07D2  0F75               	incfsz	___lldiv@divisor+3,w
  4888  07D3  02F9               	subwf	___lldiv@dividend+3,f
  4889  07D4                     l1452:
  4890  07D4  1420               	bsf	___lldiv@quotient,0
  4891  07D5                     l1454:
  4892  07D5  3001               	movlw	1
  4893  07D6                     u1445:
  4894  07D6  1003               	clrc
  4895  07D7  0CF5               	rrf	___lldiv@divisor+3,f
  4896  07D8  0CF4               	rrf	___lldiv@divisor+2,f
  4897  07D9  0CF3               	rrf	___lldiv@divisor+1,f
  4898  07DA  0CF2               	rrf	___lldiv@divisor,f
  4899  07DB  3EFF               	addlw	-1
  4900  07DC  1D03               	skipz
  4901  07DD  2FD6               	goto	u1445
  4902  07DE                     l1456:
  4903  07DE  3001               	movlw	1
  4904  07DF  02A4               	subwf	___lldiv@counter,f
  4905  07E0  1D03               	btfss	3,2
  4906  07E1  2FE3               	goto	u1451
  4907  07E2  2FE4               	goto	u1450
  4908  07E3                     u1451:
  4909  07E3  2FAB               	goto	l1446
  4910  07E4                     u1450:
  4911  07E4                     l1458:
  4912  07E4  0823               	movf	___lldiv@quotient+3,w
  4913  07E5  00F5               	movwf	?___lldiv+3
  4914  07E6  0822               	movf	___lldiv@quotient+2,w
  4915  07E7  00F4               	movwf	?___lldiv+2
  4916  07E8  0821               	movf	___lldiv@quotient+1,w
  4917  07E9  00F3               	movwf	?___lldiv+1
  4918  07EA  0820               	movf	___lldiv@quotient,w
  4919  07EB  00F2               	movwf	?___lldiv
  4920  07EC                     l270:
  4921  07EC  0008               	return
  4922  07ED                     __end_of___lldiv:
  4923                           
  4924                           	psect	text17
  4925  0CA0                     __ptext17:	
  4926 ;; *************** function _MasterStop_I2C *****************
  4927 ;; Defined at:
  4928 ;;		line 34 in file "I2C.c"
  4929 ;; Parameters:    Size  Location     Type
  4930 ;;		None
  4931 ;; Auto vars:     Size  Location     Type
  4932 ;;		None
  4933 ;; Return value:  Size  Location     Type
  4934 ;;                  1    wreg      void 
  4935 ;; Registers used:
  4936 ;;		wreg, status,2, status,0, pclath, cstack
  4937 ;; Tracked objects:
  4938 ;;		On entry : 0/0
  4939 ;;		On exit  : 0/0
  4940 ;;		Unchanged: 0/0
  4941 ;; Data sizes:     COMMON   BANK0   BANK1   BANK3   BANK2
  4942 ;;      Params:         0       0       0       0       0
  4943 ;;      Locals:         0       0       0       0       0
  4944 ;;      Temps:          0       0       0       0       0
  4945 ;;      Totals:         0       0       0       0       0
  4946 ;;Total ram usage:        0 bytes
  4947 ;; Hardware stack levels used:    1
  4948 ;; Hardware stack levels required when called:    2
  4949 ;; This function calls:
  4950 ;;		_waitCondition
  4951 ;; This function is called by:
  4952 ;;		_main
  4953 ;; This function uses a non-reentrant model
  4954 ;;
  4955                           
  4956                           
  4957                           ;psect for function _MasterStop_I2C
  4958  0CA0                     _MasterStop_I2C:
  4959  0CA0                     l2032:	
  4960                           ;incstack = 0
  4961                           ; Regs used in _MasterStop_I2C: [wreg+status,2+status,0+pclath+cstack]
  4962                           
  4963                           
  4964                           ;I2C.c: 35:     waitCondition();
  4965  0CA0  120A  158A  24B4  120A  158A  	fcall	_waitCondition
  4966  0CA5                     l2034:
  4967                           
  4968                           ;I2C.c: 36:     SSPCON2bits.PEN = 1;
  4969  0CA5  1683               	bsf	3,5	;RP0=1, select bank1
  4970  0CA6  1303               	bcf	3,6	;RP1=0, select bank1
  4971  0CA7  1511               	bsf	17,2	;volatile
  4972  0CA8                     l106:
  4973  0CA8  0008               	return
  4974  0CA9                     __end_of_MasterStop_I2C:
  4975                           
  4976                           	psect	text18
  4977  0C97                     __ptext18:	
  4978 ;; *************** function _MasterStart_I2C *****************
  4979 ;; Defined at:
  4980 ;;		line 29 in file "I2C.c"
  4981 ;; Parameters:    Size  Location     Type
  4982 ;;		None
  4983 ;; Auto vars:     Size  Location     Type
  4984 ;;		None
  4985 ;; Return value:  Size  Location     Type
  4986 ;;                  1    wreg      void 
  4987 ;; Registers used:
  4988 ;;		wreg, status,2, status,0, pclath, cstack
  4989 ;; Tracked objects:
  4990 ;;		On entry : 0/0
  4991 ;;		On exit  : 0/0
  4992 ;;		Unchanged: 0/0
  4993 ;; Data sizes:     COMMON   BANK0   BANK1   BANK3   BANK2
  4994 ;;      Params:         0       0       0       0       0
  4995 ;;      Locals:         0       0       0       0       0
  4996 ;;      Temps:          0       0       0       0       0
  4997 ;;      Totals:         0       0       0       0       0
  4998 ;;Total ram usage:        0 bytes
  4999 ;; Hardware stack levels used:    1
  5000 ;; Hardware stack levels required when called:    2
  5001 ;; This function calls:
  5002 ;;		_waitCondition
  5003 ;; This function is called by:
  5004 ;;		_main
  5005 ;; This function uses a non-reentrant model
  5006 ;;
  5007                           
  5008                           
  5009                           ;psect for function _MasterStart_I2C
  5010  0C97                     _MasterStart_I2C:
  5011  0C97                     l2012:	
  5012                           ;incstack = 0
  5013                           ; Regs used in _MasterStart_I2C: [wreg+status,2+status,0+pclath+cstack]
  5014                           
  5015                           
  5016                           ;I2C.c: 30:     waitCondition();
  5017  0C97  120A  158A  24B4  120A  158A  	fcall	_waitCondition
  5018  0C9C                     l2014:
  5019                           
  5020                           ;I2C.c: 31:     SSPCON2bits.SEN = 1;
  5021  0C9C  1683               	bsf	3,5	;RP0=1, select bank1
  5022  0C9D  1303               	bcf	3,6	;RP1=0, select bank1
  5023  0C9E  1411               	bsf	17,0	;volatile
  5024  0C9F                     l103:
  5025  0C9F  0008               	return
  5026  0CA0                     __end_of_MasterStart_I2C:
  5027                           
  5028                           	psect	text19
  5029  0CA9                     __ptext19:	
  5030 ;; *************** function _MasterSend_I2C *****************
  5031 ;; Defined at:
  5032 ;;		line 39 in file "I2C.c"
  5033 ;; Parameters:    Size  Location     Type
  5034 ;;  dato            1    wreg     unsigned char 
  5035 ;; Auto vars:     Size  Location     Type
  5036 ;;  dato            1    2[COMMON] unsigned char 
  5037 ;; Return value:  Size  Location     Type
  5038 ;;                  1    wreg      void 
  5039 ;; Registers used:
  5040 ;;		wreg, status,2, status,0, pclath, cstack
  5041 ;; Tracked objects:
  5042 ;;		On entry : 0/0
  5043 ;;		On exit  : 0/0
  5044 ;;		Unchanged: 0/0
  5045 ;; Data sizes:     COMMON   BANK0   BANK1   BANK3   BANK2
  5046 ;;      Params:         0       0       0       0       0
  5047 ;;      Locals:         1       0       0       0       0
  5048 ;;      Temps:          0       0       0       0       0
  5049 ;;      Totals:         1       0       0       0       0
  5050 ;;Total ram usage:        1 bytes
  5051 ;; Hardware stack levels used:    1
  5052 ;; Hardware stack levels required when called:    2
  5053 ;; This function calls:
  5054 ;;		_waitCondition
  5055 ;; This function is called by:
  5056 ;;		_main
  5057 ;; This function uses a non-reentrant model
  5058 ;;
  5059                           
  5060                           
  5061                           ;psect for function _MasterSend_I2C
  5062  0CA9                     _MasterSend_I2C:
  5063                           
  5064                           ;incstack = 0
  5065                           ; Regs used in _MasterSend_I2C: [wreg+status,2+status,0+pclath+cstack]
  5066                           ;MasterSend_I2C@dato stored from wreg
  5067  0CA9  00F2               	movwf	MasterSend_I2C@dato
  5068  0CAA                     l2016:
  5069                           
  5070                           ;I2C.c: 40:     waitCondition();
  5071  0CAA  120A  158A  24B4  120A  158A  	fcall	_waitCondition
  5072  0CAF                     l2018:
  5073                           
  5074                           ;I2C.c: 41:     SSPBUF = dato;
  5075  0CAF  0872               	movf	MasterSend_I2C@dato,w
  5076  0CB0  1283               	bcf	3,5	;RP0=0, select bank0
  5077  0CB1  1303               	bcf	3,6	;RP1=0, select bank0
  5078  0CB2  0093               	movwf	19	;volatile
  5079  0CB3                     l109:
  5080  0CB3  0008               	return
  5081  0CB4                     __end_of_MasterSend_I2C:
  5082                           
  5083                           	psect	text20
  5084  0D27                     __ptext20:	
  5085 ;; *************** function _MasterReceive_I2C *****************
  5086 ;; Defined at:
  5087 ;;		line 44 in file "I2C.c"
  5088 ;; Parameters:    Size  Location     Type
  5089 ;;  valor           1    wreg     PTR unsigned char 
  5090 ;;		 -> DatS1(1), 
  5091 ;; Auto vars:     Size  Location     Type
  5092 ;;  valor           1    3[COMMON] PTR unsigned char 
  5093 ;;		 -> DatS1(1), 
  5094 ;; Return value:  Size  Location     Type
  5095 ;;                  1    wreg      void 
  5096 ;; Registers used:
  5097 ;;		wreg, fsr0l, fsr0h, status,2, status,0, pclath, cstack
  5098 ;; Tracked objects:
  5099 ;;		On entry : 0/0
  5100 ;;		On exit  : 0/0
  5101 ;;		Unchanged: 0/0
  5102 ;; Data sizes:     COMMON   BANK0   BANK1   BANK3   BANK2
  5103 ;;      Params:         0       0       0       0       0
  5104 ;;      Locals:         1       0       0       0       0
  5105 ;;      Temps:          1       0       0       0       0
  5106 ;;      Totals:         2       0       0       0       0
  5107 ;;Total ram usage:        2 bytes
  5108 ;; Hardware stack levels used:    1
  5109 ;; Hardware stack levels required when called:    2
  5110 ;; This function calls:
  5111 ;;		_waitCondition
  5112 ;; This function is called by:
  5113 ;;		_main
  5114 ;; This function uses a non-reentrant model
  5115 ;;
  5116                           
  5117                           
  5118                           ;psect for function _MasterReceive_I2C
  5119  0D27                     _MasterReceive_I2C:
  5120                           
  5121                           ;incstack = 0
  5122                           ; Regs used in _MasterReceive_I2C: [wreg-fsr0h+status,2+status,0+pclath+cstack]
  5123                           ;MasterReceive_I2C@valor stored from wreg
  5124  0D27  00F3               	movwf	MasterReceive_I2C@valor
  5125  0D28                     l2020:
  5126                           
  5127                           ;I2C.c: 45:     waitCondition();
  5128  0D28  120A  158A  24B4  120A  158A  	fcall	_waitCondition
  5129  0D2D                     l2022:
  5130                           
  5131                           ;I2C.c: 46:     SSPCON2bits.RCEN = 1;
  5132  0D2D  1683               	bsf	3,5	;RP0=1, select bank1
  5133  0D2E  1303               	bcf	3,6	;RP1=0, select bank1
  5134  0D2F  1591               	bsf	17,3	;volatile
  5135                           
  5136                           ;I2C.c: 47:     waitCondition();
  5137  0D30  120A  158A  24B4  120A  158A  	fcall	_waitCondition
  5138  0D35                     l2024:
  5139                           
  5140                           ;I2C.c: 48:     *valor = SSPBUF;
  5141  0D35  1283               	bcf	3,5	;RP0=0, select bank0
  5142  0D36  1303               	bcf	3,6	;RP1=0, select bank0
  5143  0D37  0813               	movf	19,w	;volatile
  5144  0D38  00F2               	movwf	??_MasterReceive_I2C
  5145  0D39  0873               	movf	MasterReceive_I2C@valor,w
  5146  0D3A  0084               	movwf	4
  5147  0D3B  0872               	movf	??_MasterReceive_I2C,w
  5148  0D3C  1383               	bcf	3,7	;select IRP bank0
  5149  0D3D  0080               	movwf	0
  5150  0D3E                     l2026:
  5151                           
  5152                           ;I2C.c: 49:     waitCondition();
  5153  0D3E  120A  158A  24B4  120A  158A  	fcall	_waitCondition
  5154  0D43                     l2028:
  5155                           
  5156                           ;I2C.c: 50:     SSPCON2bits.ACKDT = 1;
  5157  0D43  1683               	bsf	3,5	;RP0=1, select bank1
  5158  0D44  1303               	bcf	3,6	;RP1=0, select bank1
  5159  0D45  1691               	bsf	17,5	;volatile
  5160  0D46                     l2030:
  5161                           
  5162                           ;I2C.c: 51:     SSPCON2bits.ACKEN = 1;
  5163  0D46  1611               	bsf	17,4	;volatile
  5164  0D47                     l112:
  5165  0D47  0008               	return
  5166  0D48                     __end_of_MasterReceive_I2C:
  5167                           
  5168                           	psect	text21
  5169  0CB4                     __ptext21:	
  5170 ;; *************** function _waitCondition *****************
  5171 ;; Defined at:
  5172 ;;		line 23 in file "I2C.c"
  5173 ;; Parameters:    Size  Location     Type
  5174 ;;		None
  5175 ;; Auto vars:     Size  Location     Type
  5176 ;;		None
  5177 ;; Return value:  Size  Location     Type
  5178 ;;                  1    wreg      void 
  5179 ;; Registers used:
  5180 ;;		wreg, status,2
  5181 ;; Tracked objects:
  5182 ;;		On entry : 0/0
  5183 ;;		On exit  : 0/0
  5184 ;;		Unchanged: 0/0
  5185 ;; Data sizes:     COMMON   BANK0   BANK1   BANK3   BANK2
  5186 ;;      Params:         0       0       0       0       0
  5187 ;;      Locals:         0       0       0       0       0
  5188 ;;      Temps:          0       0       0       0       0
  5189 ;;      Totals:         0       0       0       0       0
  5190 ;;Total ram usage:        0 bytes
  5191 ;; Hardware stack levels used:    1
  5192 ;; Hardware stack levels required when called:    1
  5193 ;; This function calls:
  5194 ;;		Nothing
  5195 ;; This function is called by:
  5196 ;;		_MasterStart_I2C
  5197 ;;		_MasterStop_I2C
  5198 ;;		_MasterSend_I2C
  5199 ;;		_MasterReceive_I2C
  5200 ;; This function uses a non-reentrant model
  5201 ;;
  5202                           
  5203                           
  5204                           ;psect for function _waitCondition
  5205  0CB4                     _waitCondition:
  5206  0CB4                     l1746:	
  5207                           ;incstack = 0
  5208                           ; Regs used in _waitCondition: [wreg+status,2]
  5209                           
  5210  0CB4                     l97:	
  5211                           ;I2C.c: 24:     while ((SSPSTAT & 0x04) || (SSPCON2 & 0x1F));
  5212                           
  5213  0CB4  1683               	bsf	3,5	;RP0=1, select bank1
  5214  0CB5  1303               	bcf	3,6	;RP1=0, select bank1
  5215  0CB6  1914               	btfsc	20,2	;volatile
  5216  0CB7  2CB9               	goto	u2071
  5217  0CB8  2CBA               	goto	u2070
  5218  0CB9                     u2071:
  5219  0CB9  2CB4               	goto	l97
  5220  0CBA                     u2070:
  5221  0CBA                     l1748:
  5222  0CBA  0811               	movf	17,w	;volatile
  5223  0CBB  391F               	andlw	31
  5224  0CBC  1D03               	btfss	3,2
  5225  0CBD  2CBF               	goto	u2081
  5226  0CBE  2CC0               	goto	u2080
  5227  0CBF                     u2081:
  5228  0CBF  2CB4               	goto	l97
  5229  0CC0                     u2080:
  5230  0CC0                     l100:
  5231  0CC0  0008               	return
  5232  0CC1                     __end_of_waitCondition:
  5233                           
  5234                           	psect	text22
  5235  0D08                     __ptext22:	
  5236 ;; *************** function _LCDstring *****************
  5237 ;; Defined at:
  5238 ;;		line 75 in file "LCDD2.c"
  5239 ;; Parameters:    Size  Location     Type
  5240 ;;  mensaje         1    wreg     PTR unsigned char 
  5241 ;;		 -> STR_1(16), 
  5242 ;; Auto vars:     Size  Location     Type
  5243 ;;  mensaje         1    5[COMMON] PTR unsigned char 
  5244 ;;		 -> STR_1(16), 
  5245 ;; Return value:  Size  Location     Type
  5246 ;;                  1    wreg      void 
  5247 ;; Registers used:
  5248 ;;		wreg, fsr0l, fsr0h, status,2, status,0, pclath, cstack
  5249 ;; Tracked objects:
  5250 ;;		On entry : 0/0
  5251 ;;		On exit  : 0/0
  5252 ;;		Unchanged: 0/0
  5253 ;; Data sizes:     COMMON   BANK0   BANK1   BANK3   BANK2
  5254 ;;      Params:         0       0       0       0       0
  5255 ;;      Locals:         1       0       0       0       0
  5256 ;;      Temps:          1       0       0       0       0
  5257 ;;      Totals:         2       0       0       0       0
  5258 ;;Total ram usage:        2 bytes
  5259 ;; Hardware stack levels used:    1
  5260 ;; Hardware stack levels required when called:    2
  5261 ;; This function calls:
  5262 ;;		_dispCHAR
  5263 ;; This function is called by:
  5264 ;;		_main
  5265 ;; This function uses a non-reentrant model
  5266 ;;
  5267                           
  5268                           
  5269                           ;psect for function _LCDstring
  5270  0D08                     _LCDstring:
  5271                           
  5272                           ;incstack = 0
  5273                           ; Regs used in _LCDstring: [wreg-fsr0h+status,2+status,0+pclath+cstack]
  5274                           ;LCDstring@mensaje stored from wreg
  5275  0D08  00F5               	movwf	LCDstring@mensaje
  5276  0D09                     l2060:
  5277                           
  5278                           ;LCDD2.c: 76:     while(*mensaje != 0x00){
  5279  0D09  2D1A               	goto	l2066
  5280  0D0A                     l2062:
  5281                           
  5282                           ;LCDD2.c: 77:         dispCHAR(*mensaje);
  5283  0D0A  0875               	movf	LCDstring@mensaje,w
  5284  0D0B  0084               	movwf	4
  5285  0D0C  120A  158A  2000  120A  158A  	fcall	stringdir
  5286  0D11  120A  118A  27ED  120A  158A  	fcall	_dispCHAR
  5287  0D16                     l2064:
  5288                           
  5289                           ;LCDD2.c: 78:         mensaje ++;
  5290  0D16  3001               	movlw	1
  5291  0D17  00F4               	movwf	??_LCDstring
  5292  0D18  0874               	movf	??_LCDstring,w
  5293  0D19  07F5               	addwf	LCDstring@mensaje,f
  5294  0D1A                     l2066:
  5295                           
  5296                           ;LCDD2.c: 76:     while(*mensaje != 0x00){
  5297  0D1A  0875               	movf	LCDstring@mensaje,w
  5298  0D1B  0084               	movwf	4
  5299  0D1C  120A  158A  2000  120A  158A  	fcall	stringdir
  5300  0D21  3A00               	xorlw	0
  5301  0D22  1D03               	skipz
  5302  0D23  2D25               	goto	u2721
  5303  0D24  2D26               	goto	u2720
  5304  0D25                     u2721:
  5305  0D25  2D0A               	goto	l2062
  5306  0D26                     u2720:
  5307  0D26                     l148:
  5308  0D26  0008               	return
  5309  0D27                     __end_of_LCDstring:
  5310                           
  5311                           	psect	text23
  5312  07ED                     __ptext23:	
  5313 ;; *************** function _dispCHAR *****************
  5314 ;; Defined at:
  5315 ;;		line 40 in file "LCDD2.c"
  5316 ;; Parameters:    Size  Location     Type
  5317 ;;  b               1    wreg     unsigned char 
  5318 ;; Auto vars:     Size  Location     Type
  5319 ;;  b               1    3[COMMON] unsigned char 
  5320 ;; Return value:  Size  Location     Type
  5321 ;;                  1    wreg      void 
  5322 ;; Registers used:
  5323 ;;		wreg
  5324 ;; Tracked objects:
  5325 ;;		On entry : 0/0
  5326 ;;		On exit  : 0/0
  5327 ;;		Unchanged: 0/0
  5328 ;; Data sizes:     COMMON   BANK0   BANK1   BANK3   BANK2
  5329 ;;      Params:         0       0       0       0       0
  5330 ;;      Locals:         1       0       0       0       0
  5331 ;;      Temps:          1       0       0       0       0
  5332 ;;      Totals:         2       0       0       0       0
  5333 ;;Total ram usage:        2 bytes
  5334 ;; Hardware stack levels used:    1
  5335 ;; Hardware stack levels required when called:    1
  5336 ;; This function calls:
  5337 ;;		Nothing
  5338 ;; This function is called by:
  5339 ;;		_main
  5340 ;;		_LCDstring
  5341 ;; This function uses a non-reentrant model
  5342 ;;
  5343                           
  5344                           
  5345                           ;psect for function _dispCHAR
  5346  07ED                     _dispCHAR:
  5347                           
  5348                           ;incstack = 0
  5349                           ; Regs used in _dispCHAR: [wreg]
  5350                           ;dispCHAR@b stored from wreg
  5351  07ED  00F3               	movwf	dispCHAR@b
  5352  07EE                     l1714:
  5353                           
  5354                           ;LCDD2.c: 42:     RE0 = 1;
  5355  07EE  1283               	bcf	3,5	;RP0=0, select bank0
  5356  07EF  1303               	bcf	3,6	;RP1=0, select bank0
  5357  07F0  1409               	bsf	9,0	;volatile
  5358  07F1                     l1716:
  5359                           
  5360                           ;LCDD2.c: 43:     PORTD = b;
  5361  07F1  0873               	movf	dispCHAR@b,w
  5362  07F2  0088               	movwf	8	;volatile
  5363  07F3                     l1718:
  5364                           
  5365                           ;LCDD2.c: 44:     RE1 = 1;
  5366  07F3  1489               	bsf	9,1	;volatile
  5367                           
  5368                           ;LCDD2.c: 45:     _delay((unsigned long)((40)*(8000000/4000000.0)));
  5369  07F4  301A               	movlw	26
  5370  07F5  00F2               	movwf	??_dispCHAR
  5371  07F6                     u2797:
  5372  07F6  0BF2               	decfsz	??_dispCHAR,f
  5373  07F7  2FF6               	goto	u2797
  5374  07F8  0000               	nop
  5375  07F9                     l1720:
  5376                           
  5377                           ;LCDD2.c: 46:     RE1 = 0;
  5378  07F9  1283               	bcf	3,5	;RP0=0, select bank0
  5379  07FA  1303               	bcf	3,6	;RP1=0, select bank0
  5380  07FB  1089               	bcf	9,1	;volatile
  5381  07FC                     l131:
  5382  07FC  0008               	return
  5383  07FD                     __end_of_dispCHAR:
  5384                           
  5385                           	psect	text24
  5386  0C90                     __ptext24:	
  5387 ;; *************** function _interrupcion *****************
  5388 ;; Defined at:
  5389 ;;		line 48 in file "main.c"
  5390 ;; Parameters:    Size  Location     Type
  5391 ;;		None
  5392 ;; Auto vars:     Size  Location     Type
  5393 ;;		None
  5394 ;; Return value:  Size  Location     Type
  5395 ;;                  1    wreg      void 
  5396 ;; Registers used:
  5397 ;;		None
  5398 ;; Tracked objects:
  5399 ;;		On entry : 0/0
  5400 ;;		On exit  : 0/0
  5401 ;;		Unchanged: 0/0
  5402 ;; Data sizes:     COMMON   BANK0   BANK1   BANK3   BANK2
  5403 ;;      Params:         0       0       0       0       0
  5404 ;;      Locals:         0       0       0       0       0
  5405 ;;      Temps:          2       0       0       0       0
  5406 ;;      Totals:         2       0       0       0       0
  5407 ;;Total ram usage:        2 bytes
  5408 ;; Hardware stack levels used:    1
  5409 ;; This function calls:
  5410 ;;		Nothing
  5411 ;; This function is called by:
  5412 ;;		Interrupt level 1
  5413 ;; This function uses a non-reentrant model
  5414 ;;
  5415                           
  5416                           
  5417                           ;psect for function _interrupcion
  5418  0C90                     _interrupcion:
  5419  0C90                     i1l57:
  5420  0C90  0871               	movf	??_interrupcion+1,w
  5421  0C91  008A               	movwf	10
  5422  0C92  0E70               	swapf	??_interrupcion,w
  5423  0C93  0083               	movwf	3
  5424  0C94  0EFE               	swapf	btemp,f
  5425  0C95  0E7E               	swapf	btemp,w
  5426  0C96  0009               	retfie
  5427  0C97                     __end_of_interrupcion:
  5428  007E                     btemp	set	126	;btemp
  5429  007E                     wtemp0	set	126
  5430                           
  5431                           	psect	intentry
  5432  0004                     __pintentry:	
  5433                           ;incstack = 0
  5434                           ; Regs used in _interrupcion: []
  5435                           
  5436  0004                     interrupt_function:
  5437  007E                     saved_w	set	btemp
  5438  0004  00FE               	movwf	btemp
  5439  0005  0E03               	swapf	3,w
  5440  0006  00F0               	movwf	??_interrupcion
  5441  0007  080A               	movf	10,w
  5442  0008  00F1               	movwf	??_interrupcion+1
  5443  0009  120A  158A  2C90   	ljmp	_interrupcion
  5444                           
  5445                           	psect	config
  5446                           
  5447                           ;Config register CONFIG1 @ 0x2007
  5448                           ;	Oscillator Selection bits
  5449                           ;	FOSC = INTRC_NOCLKOUT, INTOSCIO oscillator: I/O function on RA6/OSC2/CLKOUT pin, I/O f
      +                          unction on RA7/OSC1/CLKIN
  5450                           ;	Watchdog Timer Enable bit
  5451                           ;	WDTE = OFF, WDT disabled and can be enabled by SWDTEN bit of the WDTCON register
  5452                           ;	Power-up Timer Enable bit
  5453                           ;	PWRTE = OFF, PWRT disabled
  5454                           ;	RE3/MCLR pin function select bit
  5455                           ;	MCLRE = ON, RE3/MCLR pin function is MCLR
  5456                           ;	Code Protection bit
  5457                           ;	CP = OFF, Program memory code protection is disabled
  5458                           ;	Data Code Protection bit
  5459                           ;	CPD = OFF, Data memory code protection is disabled
  5460                           ;	Brown Out Reset Selection bits
  5461                           ;	BOREN = OFF, BOR disabled
  5462                           ;	Internal External Switchover bit
  5463                           ;	IESO = OFF, Internal/External Switchover mode is disabled
  5464                           ;	Fail-Safe Clock Monitor Enabled bit
  5465                           ;	FCMEN = OFF, Fail-Safe Clock Monitor is disabled
  5466                           ;	Low Voltage Programming Enable bit
  5467                           ;	LVP = OFF, RB3 pin has digital I/O, HV on MCLR must be used for programming
  5468                           ;	In-Circuit Debugger Mode bit
  5469                           ;	DEBUG = 0x1, unprogrammed default
  5470  2007                     	org	8199
  5471  2007  20F4               	dw	8436
  5472                           
  5473                           ;Config register CONFIG2 @ 0x2008
  5474                           ;	Brown-out Reset Selection bit
  5475                           ;	BOR4V = BOR40V, Brown-out Reset set to 4.0V
  5476                           ;	Flash Program Memory Self Write Enable bits
  5477                           ;	WRT = OFF, Write protection off
  5478  2008                     	org	8200
  5479  2008  3FFF               	dw	16383

Data Sizes:
    Strings     16
    Constant    0
    Data        0
    BSS         8
    Persistent  0
    Stack       0

Auto Spaces:
    Space          Size  Autos    Used
    COMMON           14     11      11
    BANK0            80     64      72
    BANK1            80      0       0
    BANK3            96      0       0
    BANK2            96      0       0

Pointer List with Targets:

    LCDstring@mensaje	PTR unsigned char  size(1) Largest target is 16
		 -> STR_1(CODE[16]), 

    MasterReceive_I2C@valor	PTR unsigned char  size(1) Largest target is 1
		 -> DatS1(BANK0[1]), 

    division@dec	PTR unsigned char  size(1) Largest target is 2
		 -> floTochar@digdecimal(BANK0[2]), 

    division@un	PTR unsigned char  size(1) Largest target is 2
		 -> floTochar@digdecimal(BANK0[2]), 

    floTochar@conv	PTR unsigned char  size(1) Largest target is 3
		 -> disp1(BANK0[3]), 


Critical Paths under _main in COMMON

    _initLCD->_comandoLCD
    _division->___awdiv
    ___flsub->___fladd
    ___flsub->___xxtofl
    ___flmul->__Umul8_16
    _cursorLCD->_comandoLCD
    _MasterInit_I2C->___lldiv
    _LCDstring->_dispCHAR

Critical Paths under _interrupcion in COMMON

    None.

Critical Paths under _main in BANK0

    _main->_floTochar
    _floTochar->___fltol
    ___fltol->___flmul
    ___flsub->___fladd
    ___flmul->___xxtofl
    _config->_MasterInit_I2C
    _MasterInit_I2C->___lldiv

Critical Paths under _interrupcion in BANK0

    None.

Critical Paths under _main in BANK1

    None.

Critical Paths under _interrupcion in BANK1

    None.

Critical Paths under _main in BANK3

    None.

Critical Paths under _interrupcion in BANK3

    None.

Critical Paths under _main in BANK2

    None.

Critical Paths under _interrupcion in BANK2

    None.

Call Graph Tables:

 ---------------------------------------------------------------------------------
 (Depth) Function   	        Calls       Base Space   Used Autos Params    Refs
 ---------------------------------------------------------------------------------
 (0) _main                                                 4     4      0   11232
                                             60 BANK0      4     4      0
                          _LCDstring
                  _MasterReceive_I2C
                     _MasterSend_I2C
                    _MasterStart_I2C
                     _MasterStop_I2C
                            ___flmul
                           ___xxtofl
                             _config
                          _cursorLCD
                           _dispCHAR
                          _floTochar
                            _initLCD
 ---------------------------------------------------------------------------------
 (1) _initLCD                                              2     2      0      22
                                              5 COMMON     2     2      0
                         _comandoLCD
 ---------------------------------------------------------------------------------
 (1) _floTochar                                           17    12      5    7248
                                             43 BANK0     17    12      5
                            ___flmul
                            ___flsub
                            ___fltol
                           ___xxtofl
                           _division
 ---------------------------------------------------------------------------------
 (2) _division                                             7     5      2     994
                                              0 BANK0      7     5      2
                            ___awdiv
                             ___bmul
 ---------------------------------------------------------------------------------
 (3) ___bmul                                               4     3      1     168
                                              2 COMMON     4     3      1
 ---------------------------------------------------------------------------------
 (3) ___awdiv                                              9     5      4     452
                                              2 COMMON     9     5      4
 ---------------------------------------------------------------------------------
 (2) ___xxtofl                                            14    10      4     474
                                              2 COMMON     8     4      4
                                              0 BANK0      6     6      0
 ---------------------------------------------------------------------------------
 (2) ___fltol                                             11     7      4     381
                                             32 BANK0     11     7      4
                            ___flmul (ARG)
 ---------------------------------------------------------------------------------
 (2) ___flsub                                              8     0      8    2333
                                             12 BANK0      8     0      8
                            ___fladd
                           ___xxtofl (ARG)
 ---------------------------------------------------------------------------------
 (3) ___fladd                                             20    12      8    2136
                                              2 COMMON     8     0      8
                                              0 BANK0     12    12      0
 ---------------------------------------------------------------------------------
 (2) ___flmul                                             26    18      8    2569
                                              6 BANK0     26    18      8
                          __Umul8_16
                           ___xxtofl (ARG)
 ---------------------------------------------------------------------------------
 (3) __Umul8_16                                            9     7      2     799
                                              2 COMMON     9     7      2
 ---------------------------------------------------------------------------------
 (1) _cursorLCD                                            4     3      1     308
                                              5 COMMON     4     3      1
                         _comandoLCD
 ---------------------------------------------------------------------------------
 (2) _comandoLCD                                           3     3      0      22
                                              2 COMMON     3     3      0
 ---------------------------------------------------------------------------------
 (1) _config                                               0     0      0     412
                     _MasterInit_I2C
 ---------------------------------------------------------------------------------
 (2) _MasterInit_I2C                                       8     4      4     412
                                              5 BANK0      8     4      4
                            ___lldiv
 ---------------------------------------------------------------------------------
 (3) ___lldiv                                             14     6      8     314
                                              2 COMMON     9     1      8
                                              0 BANK0      5     5      0
 ---------------------------------------------------------------------------------
 (1) _MasterStop_I2C                                       0     0      0       0
                      _waitCondition
 ---------------------------------------------------------------------------------
 (1) _MasterStart_I2C                                      0     0      0       0
                      _waitCondition
 ---------------------------------------------------------------------------------
 (1) _MasterSend_I2C                                       1     1      0      22
                                              2 COMMON     1     1      0
                      _waitCondition
 ---------------------------------------------------------------------------------
 (1) _MasterReceive_I2C                                    2     2      0      55
                                              2 COMMON     2     2      0
                      _waitCondition
 ---------------------------------------------------------------------------------
 (2) _waitCondition                                        0     0      0       0
 ---------------------------------------------------------------------------------
 (1) _LCDstring                                            2     2      0     100
                                              4 COMMON     2     2      0
                           _dispCHAR
 ---------------------------------------------------------------------------------
 (1) _dispCHAR                                             2     2      0      22
                                              2 COMMON     2     2      0
 ---------------------------------------------------------------------------------
 Estimated maximum stack depth 3
 ---------------------------------------------------------------------------------
 (Depth) Function   	        Calls       Base Space   Used Autos Params    Refs
 ---------------------------------------------------------------------------------
 (4) _interrupcion                                         2     2      0       0
                                              0 COMMON     2     2      0
 ---------------------------------------------------------------------------------
 Estimated maximum stack depth 4
 ---------------------------------------------------------------------------------

 Call Graph Graphs:

 _main (ROOT)
   _LCDstring
     _dispCHAR
   _MasterReceive_I2C
     _waitCondition
   _MasterSend_I2C
     _waitCondition
   _MasterStart_I2C
     _waitCondition
   _MasterStop_I2C
     _waitCondition
   ___flmul
     __Umul8_16
     ___xxtofl (ARG)
   ___xxtofl
   _config
     _MasterInit_I2C
       ___lldiv
   _cursorLCD
     _comandoLCD
   _dispCHAR
   _floTochar
     ___flmul
       __Umul8_16
       ___xxtofl (ARG)
     ___flsub
       ___fladd
       ___xxtofl (ARG)
     ___fltol
       ___flmul (ARG)
         __Umul8_16
         ___xxtofl (ARG)
     ___xxtofl
     _division
       ___awdiv
       ___bmul
   _initLCD
     _comandoLCD

 _interrupcion (ROOT)

 Address spaces:
Name               Size   Autos  Total    Cost      Usage
BITCOMMON            E      0       0       0        0.0%
EEDATA             100      0       0       0        0.0%
NULL                 0      0       0       0        0.0%
CODE                 0      0       0       0        0.0%
COMMON               E      B       B       1       78.6%
BITSFR0              0      0       0       1        0.0%
SFR0                 0      0       0       1        0.0%
BITSFR1              0      0       0       2        0.0%
SFR1                 0      0       0       2        0.0%
STACK                0      0       0       2        0.0%
ABS                  0      0      53       3        0.0%
BITBANK0            50      0       0       4        0.0%
BITSFR3              0      0       0       4        0.0%
SFR3                 0      0       0       4        0.0%
BANK0               50     40      48       5       90.0%
BITSFR2              0      0       0       5        0.0%
SFR2                 0      0       0       5        0.0%
BITBANK1            50      0       0       6        0.0%
BANK1               50      0       0       7        0.0%
BITBANK3            60      0       0       8        0.0%
BANK3               60      0       0       9        0.0%
BITBANK2            60      0       0      10        0.0%
BANK2               60      0       0      11        0.0%
DATA                 0      0      53      12        0.0%


Microchip Technology PIC Macro Assembler V2.31 build 20201012212115 
Symbol Table                                                                                   Wed Aug 04 20:25:16 2021

                         pc 0002              ___bmul@product 0074                          l62 0610  
                        l71 0FFF                          l68 0D07                          l77 0E36  
                        l94 0DEE                          l97 0CB4                ___awdiv@sign 0078  
                        fsr 0004         __Umul8_16@word_mpld 0078                         l100 0CC0  
                       l103 0C9F                         l112 0D47                         l106 0CA8  
                       l131 07FC                         l109 0CB3                         l136 0D6A  
                       l128 0E80                         l139 0CD4                         l148 0D26  
                       l420 0F63                         l260 0CE9                         l270 07EC  
                       l430 0F63                         l531 0488                         l427 0F4E  
                       l540 0605                         l533 045F                         l623 037D  
                       l527 03E1                         l552 0577                         l561 05D7  
                       l642 0DA3                         l570 0605                         l635 0371  
                       l387 0EE7                         l644 0DB5                         l548 0553  
                       l629 02E9                         l573 0D8E                         l558 0599  
                       l680 074E                         l569 05F9                         l681 075A  
                       l673 0732                         l667 06ED                         l669 0784  
                       _RE0 0048                         _RE1 0049                         fsr0 0004  
                       indf 0000                ___flmul@aexp 0038                ___flmul@bexp 0039  
              ___flmul@sign 0033                ___flmul@temp 003E                ___flmul@prod 003A  
              ___fltol@exp1 004A                        l2000 0E59                        l2010 0E7A  
                      l2002 0E62                        l2020 0D28                        l2012 0C97  
                      l2004 0E68                        l2030 0D46                        l2022 0D2D  
                      l2014 0C9C                        l2006 0E6E                        l2024 0D35  
                      l2016 0CAA                        l2032 0CA0                        l2040 0F7D  
                      l2008 0E74                        l2026 0D3E                        l2018 0CAF  
                      l2034 0CA5                        l2050 0D4E                        l2042 0FB1  
                      l2060 0D09                        l2028 0D43                        l2052 0D53  
                      l1500 0EDE                        l2044 0FDB                        l2036 0F64  
                      l2062 0D0A                        l2054 0D59                        l1510 038B  
                      l1502 0EE3                        l1430 0CDF                        l2046 0FF8  
                      l2038 0F79                        l2070 061B                        l2064 0D16  
                      l1440 0797                        l2056 0D5F                        l2048 0D49  
                      l1600 047C                        l1520 03A2                        l1512 038F  
                      l1432 0CE1                        l1424 0CD6                        l2080 0675  
                      l2072 0621                        l2066 0D1A                        l1450 07C6  
                      l1442 079A                        l2058 0D64                        l1610 049A  
                      l1602 0480                        l1530 03B8                        l1522 03A3  
                      l1514 0390                        l1506 037E                        l1434 0CE8  
                      l1426 0CD7                        l2090 06AD                        l2082 0690  
                      l2074 0626                        l1452 07D4                        l1444 07A7  
                      l1700 0D90                        l1620 04C4                        l1612 04B1  
                      l1604 048C                        l1540 03C9                        l1532 03B9  
                      l1516 0395                        l1524 03A5                        l1508 0385  
                      l1428 0CDB                        l2092 06B6                        l2084 0696  
                      l2076 0635                        l2068 0606                        l1454 07D5  
                      l1446 07AB                        l1438 0785                        l1710 0DB1  
                      l1702 0D92                        l1630 04ED                        l1622 04C8  
                      l1614 04B5                        l1606 0491                        l1550 03E7  
                      l1542 03CE                        l1534 03BF                        l1526 03AD  
                      l1518 039A                        l1470 0E8D                        l1462 0E81  
                      l2094 06BF                        l2086 069E                        l2078 066B  
                      l1720 07F9                        l1456 07DE                        l1448 07B4  
                      l1704 0D99                        l1800 001D                        l1640 055B  
                      l1632 052B                        l1624 04C9                        l1616 04B9  
                      l1560 03FB                        l1552 03EB                        l1544 03D6  
                      l1536 03C3                        l1528 03B2                        l1480 0EA2  
                      l1472 0E91                        l1464 0E82                        l2088 06A7  
                      l1714 07EE                        l1458 07E4                        l1730 0DEC  
                      l1722 0DB6                        l1706 0D9D                        l1810 0034  
                      l1802 0024                        l1650 0576                        l1642 0560  
                      l1634 0531                        l1626 04D2                        l1618 04C2  
                      l1570 040F                        l1562 03FF                        l1554 03EF  
                      l1546 03D7                        l1538 03C4                        l1490 0EC5  
                      l1482 0EA5                        l1474 0E96                        l1466 0E86  
                      l1716 07F1                        l1732 0DED                        l1724 0DBA  
                      l1708 0DAC                        l1900 02CE                        l1820 0050  
                      l1812 0039                        l1804 002A                        l1652 057B  
                      l1660 0587                        l1636 0536                        l1628 04D7  
                      l1580 0423                        l1572 0413                        l1564 0403  
                      l1556 03F3                        l1548 03D9                        l1492 0ECB  
                      l1484 0EAC                        l1476 0E9A                        l1468 0E8B  
                      l1740 0DFE                        l1718 07F3                        l1726 0DBD  
                      l1750 0CC2                        l1910 02F3                        l1902 02D2  
                      l1830 0065                        l1822 0056                        l1814 0041  
                      l1806 002E                        l1654 057E                        l1646 0569  
                      l1638 0545                        l1662 058B                        l1590 0463  
                      l1582 0427                        l1574 0417                        l1566 0407  
                      l1558 03F7                        l1494 0ECC                        l1486 0EB0  
                      l1478 0E9C                        l1742 0E29                        l1734 0DF2  
                      l1728 0DBF                        l1752 0CC5                        l1920 0331  
                      l1912 0301                        l1904 02E6                        l1840 0081  
                      l1832 006D                        l1824 005A                        l1816 0043  
                      l1808 002F                        l1680 05D3                        l1672 059E  
                      l1664 058C                        l1656 0580                        l1648 0572  
                      l1592 046C                        l1576 041B                        l1568 040B  
                      l1584 042B                        l1760 0EF5                        l1496 0ED3  
                      l1488 0EB4                        l1744 0E2F                        l1736 0DF6  
                      l1746 0CB4                        l1754 0CC7                        l1930 0365  
                      l1922 033C                        l1914 0305                        l1850 00C4  
                      l1834 006F                        l1826 005B                        l1818 004B  
                      l1690 05EF                        l1682 05DC                        l1674 05A3  
                      l1666 0590                        l1658 0585                        l1594 046E  
                      l1586 042C                        l1578 041F                        l1770 0F1C  
                      l1498 0ED9                        l1738 0DFA                        l1748 0CBA  
                      l1756 0CD1                        l1932 0369                        l1924 034B  
                      l1916 031E                        l1908 02EE                        l1860 014D  
                      l1852 00E0                        l1844 008A                        l1836 0077  
                      l1828 0060                        l1692 05F3                        l1684 05E1  
                      l1676 05B1                        l1668 0596                        l1596 0472  
                      l1588 0443                        l1780 0F2A                        l1772 0F1E  
                      l1764 0EFE                        l1940 06CC                        l1934 036A  
                      l1926 0355                        l1918 0324                        l1870 01C0  
                      l1862 015D                        l1854 010C                        l1846 009A  
                      l1838 007C                        l1694 05F5                        l1686 05E9  
                      l1678 05B5                        l1598 0473                        l1790 0F53  
                      l1774 0F22                        l1782 0F3C                        l1766 0F13  
                      l1758 0EE8                        l1942 06D1                        l1936 0375  
                      l1928 0357                        l1880 026D                        l1872 01DD  
                      l1864 017A                        l1856 0128                        l1848 00A7  
                      l1696 0600                        l1688 05EE                        l1792 0F58  
                      l1768 0F14                        l1960 071B                        l1952 06FE  
                      l1944 06D5                        l1890 02B9                        l1882 0295  
                      l1874 020A                        l1866 018A                        l1858 0144  
                      l1698 0604                        l1794 0D6B                        l1970 0752  
                      l1962 0729                        l1954 0703                        l1946 06E5  
                      l1892 02BA                        l1884 029E                        l1876 021A  
                      l1868 01A7                        l1796 0D6F                        l1788 0F43  
                      l1980 077C                        l1972 075C                        l1964 0739  
                      l1956 0710                        l1948 06F5                        l1894 02C3  
                      l1886 02AC                        l1878 0247                        l1974 0772  
                      l1966 0744                        l1958 0717                        l1990 0E3A  
                      l1984 0CEA                        l1888 02B5                        l1896 02C9  
                      l1976 0777                        l1968 0748                        l1992 0E3B  
                      l1986 0CFA                        l1898 02CD                        l1978 077B  
                      l1994 0E44                        l1996 0E4A                        l1988 0E37  
                      l1998 0E53                        STR_1 0806                        u2000 05F3  
                      u2001 05F2                        u2010 0604                        u2011 0603  
                      u2020 0D9D                        u2100 0F0C                        u2021 0D9C  
                      u2110 0F22                        u2111 0F21                        u2040 0DB1  
                      u2200 0034                        u2120 0F29                        u2041 0DB0  
                      u2201 0033                        u2121 0F28                        u2105 0F07  
                      u1410 07AB                        u2050 0DCF                        u2210 0039  
                      u1411 07AA                        u2035 0DA4                        u2211 0038  
                      u2220 005A                        u2140 0F3B                        u1500 0EB4  
                      u2060 0E2F                        u1405 079C                        u2301 0136  
                      u2221 0059                        u2141 0F3A                        u1501 0EB3  
                      u2061 0E2E                        u2070 0CBA                        u1430 07C6  
                      u2302 013D                        u2230 0060                        u2150 0F42  
                      u2071 0CB9                        u1431 07C5                        u2055 0DCA  
                      u2303 0144                        u2231 005F                        u2151 0F41  
                      u2135 0F2B                        u2080 0CC0                        u2400 027B  
                      u2240 0065                        u1600 03C3                        u1520 0EC5  
                      u2081 0CBF                        u1425 07AD                        u2321 016C  
                      u2241 0064                        u1601 03C2                        u1521 0EC4  
                      u1450 07E4                        u2322 0173                        u2250 007C  
                      u1610 03C9                        u2170 0F53                        u2090 0EF5  
                      u1370 0CDB                        u1451 07E3                        u1435 07C2  
                      u2411 0287                        u2331 0199                        u2323 017A  
                      u2315 0146                        u2251 007B                        u1611 03C8  
                      u2171 0F52                        u2091 0EF4                        u1515 0EB5  
                      u1371 0CDA                        u2500 02F3                        u2412 028E  
                      u2332 01A0                        u2260 0081                        u1620 03CE  
                      u2180 0F58                        u1540 0ED9                        u1460 0E86  
                      u1380 0CE8                        u1445 07D6                        u2501 02F2  
                      u2413 0295                        u2405 0276                        u2333 01A7  
                      u2261 0080                        u1621 03CD                        u2181 0F57  
                      u2165 0F45                        u1541 0ED8                        u1525 0EC1  
                      u1461 0E85                        u1381 0CE7                        u1390 0797  
                      u2510 0305                        u2190 002E                        u1710 0488  
                      u1630 03E7                        u1550 0EDE                        u1470 0E91  
                      u1391 0796                        u2511 0304                        u2351 01CF  
                      u2271 00D2                        u2191 002D                        u1711 0487  
                      u1631 03E6                        u1551 0EDD                        u1535 0ECD  
                      u1471 0E90                        u2520 0314                        u2440 02B9  
                      u2352 01D6                        u2272 00D9                        u1720 048C  
                      u1640 03EB                        u1560 038F                        u2600 0716  
                      u1480 0EA2                        u2441 02B8                        u2425 0297  
                      u2361 01FC                        u2353 01DD                        u2345 01A9  
                      u2281 00EE                        u2273 00E0                        u1801 0504  
                      u1721 048B                        u1705 0475                        u1641 03EA  
                      u1561 038E                        u2601 0715                        u1481 0EA1  
                      u2530 0331                        u2362 0203                        u2282 00F5  
                      u1810 0518                        u1802 0505                        u1730 0491  
                      u1650 0443                        u1570 0395                        u2531 0330  
                      u2435 02AE                        u2371 0229                        u2363 020A  
                      u2291 011A                        u2283 00FC                        u1811 0519  
                      u1803 050A                        u1731 0490                        u1651 0442  
                      u1571 0394                        u2700 0D4E                        u2540 034B  
                      u2460 02CD                        u2380 0253                        u2372 0230  
                      u2292 0121                        u1900 0590                        u1820 0536  
                      u1812 051E                        u1804 050B                        u1660 044C  
                      u1580 039A                        u2620 0738                        u2701 0D4D  
                      u2541 034A                        u2525 030F                        u2461 02CC  
                      u2373 0237                        u2293 0128                        u1901 058F  
                      u1821 0535                        u1813 051F                        u1805 0510  
                      u1741 04A3                        u1661 044A                        u1581 0399  
                      u2621 0737                        u2710 0D5F                        u2550 0369  
                      u2470 02D2                        u1910 0596                        u1830 055B  
                      u1806 0511                        u1750 04B5                        u1742 04AA  
                      u1670 044D                        u1590 03B8                        u2711 0D5E  
                      u2551 0368                        u2535 032D                        u2471 02D1  
                      u2455 02BC                        u2391 025F                        u1911 0595  
                      u1831 055A                        u1751 04B4                        u1743 04B1  
                      u1655 043F                        u1591 03B7                        u2615 072A  
                      u1495 0EA6                        u2720 0D26                        u2480 02E6  
                      u2392 0266                        u1920 059D                        u1840 0560  
                      u1760 04B9                        u1680 0463                        u2640 0748  
                      u2560 06D1                        u2721 0D25                        u2545 0347  
                      u2481 02E5                        u2393 026D                        u2385 024E  
                      u1921 059C                        u1841 055F                        u1761 04B8  
                      u1681 0462                        u2641 0747                        u2561 06D0  
                      u2490 02ED                        u1930 05A3                        u1770 04C8  
                      u1690 0472                        u2650 074E                        u2570 06D5  
                      u2491 02EC                        u1931 05A2                        u1771 04C7  
                      u1691 0471                        u2651 074D                        u2635 073D  
                      u2571 06D4                        u1940 05B5                        u1860 0576  
                      u2660 0752                        u2580 06F5                        u1941 05B4  
                      u1861 0575                        u2661 0751                        u2581 06F4  
                      u1950 05C4                        u1870 057B                        u1790 04ED  
                      u2670 0767                        u1871 057A                        u1855 056B  
                      u1791 04EC                        u1960 05D3                        u1880 0585  
                      u2680 0777                        u1961 05D2                        u1881 0584  
                      u1793 04E9                        u1785 04CB                        u2681 0776  
                      u2737 062E                        u1970 05DC                        u1890 058B  
                      u2690 077B                        u1971 05DB                        u1955 05BF  
                      u1891 058A                        u2691 077A                        u2675 0762  
                      u2595 0708                        u2747 0671                        u1980 05E1  
                      u1981 05E0                        u2757 0E3F                        u1990 05EE  
                      u1991 05ED                        u2767 0E4E                        u2777 0E5D  
                      u2787 0CCC                        u2797 07F6                        i1l57 0C90  
                      _main 0606                        btemp 007E                        start 000C  
         ___bmul@multiplier 0075                 division@dec 0021                 division@div 0026  
        __size_of_LCDstring 001F               ___fltol@sign1 0049             __end_of___fladd 0606  
                     ?_main 0070             __end_of___awdiv 0EE8             __end_of___flmul 037E  
           __end_of___flsub 0D8F             __end_of___fltol 0F64                       _ANSEL 0188  
           __end_of___lldiv 07ED             ___awdiv@divisor 0072             ___awdiv@counter 0077  
             floTochar@conv 004F                       _PORTA 0005                       _PORTB 0006  
                     _PORTD 0008                       _PORTE 0009               floTochar@temp 0054  
                     _TRISA 0085                       _TRISB 0086                       _TRISD 0088  
                     _TRISE 0089                       _DatS1 0067     __size_of_MasterInit_I2C 0039  
           __end_of_initLCD 0E81                       _disp1 0064                       _lect1 0060  
   __size_of_MasterSend_I2C 000B                       pclath 000A                       status 0003  
                     wtemp0 007E     __size_of_MasterStop_I2C 0009             __initialization 000F  
              __end_of_main 06C9                      ??_main 005C            ___awdiv@dividend 0074  
                    _ANSELH 0189          MasterInit_I2C@frec 0025           __end_of_LCDstring 0D27  
            floTochar@valor 004B                      _SSPADD 0093                      _SSPCON 0014  
                    _SSPBUF 0013            __end_of___xxtofl 0785            __end_of_dispCHAR 07FD  
                    ___bmul 0CD5            __end_of_division 0E37                   ??___fladd 0020  
                 ??___awdiv 0076                   ??___flmul 002E                   ??___flsub 007A  
                 ??___fltol 0044                   ??___lldiv 007A                      _config 0CEA  
          ___awdiv@quotient 0079                   ??_initLCD 0075          __size_of__Umul8_16 0027  
                    saved_w 007E       __end_of_waitCondition 0CC1                ___xxtofl@arg 0022  
              ___xxtofl@exp 0021                ___xxtofl@val 0072     __end_of__initialization 0019  
  __size_of_MasterStart_I2C 0009                  ___fltol@f1 0040      MasterReceive_I2C@valor 0073  
       ___bmul@multiplicand 0072              __pcstackCOMMON 0070               ?_interrupcion 0070  
            _MasterInit_I2C 0DB6          __size_of_floTochar 009C              _MasterSend_I2C 0CA9  
                __pbssBANK0 0060          __size_of_cursorLCD 0023              _MasterStop_I2C 0CA0  
         __end_of__Umul8_16 0DB6              ??_interrupcion 0070                  __pmaintext 0606  
                   ?___bmul 0072                  __pintentry 0004                     ?_config 0070  
    __end_of_MasterInit_I2C 0DEF                  _comandoLCD 0CC1                   ?___xxtofl 0072  
    __end_of_MasterSend_I2C 0CB4             floTochar@entero 0059                   ?_dispCHAR 0070  
                   _SSPCON2 0091                     _SSPSTAT 0094                  __stringtab 0800  
                 ?_division 0020      __end_of_MasterStop_I2C 0CA9           __end_of_floTochar 1000  
           __size_of___bmul 0015                     ___fladd 037E                     ___awdiv 0E81  
         ??_MasterStart_I2C 0072                     ___flmul 001D                     ___flsub 0D6B  
                   ___fltol 0EE8                     ___lldiv 0785             __size_of_config 001E  
                   __ptext1 0E37                     __ptext2 0F64                     __ptext3 0DEF  
                   __ptext4 0CD5                     __ptext5 0E81                     __ptext6 06C9  
                   __ptext7 0EE8                     __ptext8 0D6B                     __ptext9 037E  
                   _initLCD 0E37             ?_MasterInit_I2C 0025           __end_of_cursorLCD 0D6B  
                ??___xxtofl 0076                  ??_dispCHAR 0072             ?_MasterSend_I2C 0070  
      end_of_initialization 0019                  ??_division 0022           _MasterReceive_I2C 0D27  
           ?_MasterStop_I2C 0070                   _LCDstring 0D08          ?_MasterReceive_I2C 0070  
           ___lldiv@divisor 0072             ___lldiv@counter 0024         ??_MasterReceive_I2C 0072  
               ?_comandoLCD 0070                 ___fladd@grs 002B               ___xxtofl@sign 0020  
                 _TRISCbits 0087          MasterSend_I2C@dato 0072        __end_of_interrupcion 0C97  
 __end_of_MasterReceive_I2C 0D48                 ___flmul@grs 0034                  ?_LCDstring 0070  
                division@un 0020              __end_of___bmul 0CEA              __end_of_config 0D08  
       start_initialization 000F              division@conteo 0025         __size_of_comandoLCD 0014  
                  ??___bmul 0073                   __Umul8_16 0D8F                    ??_config 007B  
    __size_of_waitCondition 000D                   ___fladd@a 0076                   ___fladd@b 0072  
                 ___flmul@a 002A                   ___flmul@b 0026                   ___flsub@a 002C  
                 ___flsub@b 0030                   ___latbits 0002               __pcstackBANK0 0020  
         __size_of___xxtofl 00BC           __size_of_dispCHAR 0010  __size_of_MasterReceive_I2C 0021  
           _MasterStart_I2C 0C97           __size_of_division 0048                 ??_LCDstring 0074  
                  ?___fladd 0072                    ?___awdiv 0072                    ?___flmul 0026  
                  ?___flsub 002C                    ?___fltol 0040                    ?___lldiv 0072  
                ?__Umul8_16 0072            ??_MasterInit_I2C 0029                   _floTochar 0F64  
                 __pstrings 0800            ??_MasterSend_I2C 0072       __size_of_interrupcion 0007  
                  ?_initLCD 0070            ??_MasterStop_I2C 0072                   _cursorLCD 0D48  
             _waitCondition 0CB4           interrupt_function 0004            floTochar@decimal 0058  
                 dispCHAR@b 0073                _interrupcion 0C90                  ?_floTochar 004B  
               __stringbase 0805                ??_comandoLCD 0072     __end_of_MasterStart_I2C 0CA0  
                ?_cursorLCD 0075              ?_waitCondition 0070          __end_of_comandoLCD 0CD5  
       floTochar@digdecimal 005A                 ??__Umul8_16 0074            __size_of___fladd 0288  
          __size_of___awdiv 0067            __size_of___flmul 0361            __size_of___flsub 0024  
          __size_of___fltol 007C            __size_of___lldiv 0068          __end_of__stringtab 0806  
          __size_of_initLCD 004A                    ___xxtofl 06C9                    _dispCHAR 07ED  
                  __ptext10 001D                    __ptext11 0D8F                    __ptext20 0D27  
                  __ptext12 0D48                    __ptext21 0CB4                    __ptext13 0CC1  
                  __ptext22 0D08                    __ptext14 0CEA                    __ptext23 07ED  
                  __ptext15 0DB6                    __ptext24 0C90                    __ptext16 0785  
                  __ptext17 0CA0                    __ptext18 0C97                    __ptext19 0CA9  
          LCDstring@mensaje 0075                    _division 0DEF               __size_of_main 00C3  
             cursorLCD@fila 0077               cursorLCD@temp 0078                 ??_floTochar 0050  
           ??_waitCondition 0072            ?_MasterStart_I2C 0070                 ??_cursorLCD 0076  
                  intlevel1 0000            ___lldiv@dividend 0076                   stringcode 0800  
          cursorLCD@columna 0075      __Umul8_16@multiplicand 0072            ___lldiv@quotient 0020  
                  stringdir 0800                    stringtab 0800                 _SSPCON2bits 0091  
             ___fladd@signs 0028                ___fladd@aexp 0029                ___fladd@bexp 002A  
      __Umul8_16@multiplier 007A           __Umul8_16@product 0076               comandoLCD@cmd 0074  
