

Microchip MPLAB XC8 Assembler V2.31 build 20201012212115 
                                                                                               Thu Aug 05 13:05:29 2021

Microchip MPLAB XC8 C Compiler v2.31 (Free license) build 20201012212115 Og1 
     1                           	processor	16F887
     2                           	pagewidth 120
     3                           	opt	flic
     4                           	psect	strings,global,class=STRING,delta=2,noexec
     5                           	psect	cinit,global,class=CODE,merge=1,delta=2
     6                           	psect	bssCOMMON,global,class=COMMON,space=1,delta=1,noexec
     7                           	psect	bssBANK0,global,class=BANK0,space=1,delta=1,noexec
     8                           	psect	cstackCOMMON,global,class=COMMON,space=1,delta=1,noexec
     9                           	psect	cstackBANK0,global,class=BANK0,space=1,delta=1,noexec
    10                           	psect	maintext,global,class=CODE,split=1,delta=2
    11                           	psect	text1,local,class=CODE,merge=1,delta=2
    12                           	psect	text2,local,class=CODE,merge=1,delta=2
    13                           	psect	text3,local,class=CODE,merge=1,delta=2
    14                           	psect	text4,local,class=CODE,merge=1,delta=2
    15                           	psect	text5,local,class=CODE,merge=1,delta=2
    16                           	psect	text6,local,class=CODE,merge=1,delta=2
    17                           	psect	text7,local,class=CODE,merge=1,delta=2,group=1
    18                           	psect	text8,local,class=CODE,merge=1,delta=2,group=1
    19                           	psect	text9,local,class=CODE,merge=1,delta=2,group=1
    20                           	psect	text10,local,class=CODE,merge=1,delta=2,group=1
    21                           	psect	text11,local,class=CODE,merge=1,delta=2,group=1
    22                           	psect	text12,local,class=CODE,merge=1,delta=2,group=1
    23                           	psect	text13,local,class=CODE,merge=1,delta=2,group=1
    24                           	psect	text14,local,class=CODE,merge=1,delta=2,group=1
    25                           	psect	text15,local,class=CODE,merge=1,delta=2
    26                           	psect	text16,local,class=CODE,merge=1,delta=2
    27                           	psect	text17,local,class=CODE,merge=1,delta=2
    28                           	psect	text18,local,class=CODE,merge=1,delta=2
    29                           	psect	text19,local,class=CODE,merge=1,delta=2,group=1
    30                           	psect	text20,local,class=CODE,merge=1,delta=2
    31                           	psect	text21,local,class=CODE,merge=1,delta=2
    32                           	psect	text22,local,class=CODE,merge=1,delta=2
    33                           	psect	text23,local,class=CODE,merge=1,delta=2
    34                           	psect	text24,local,class=CODE,merge=1,delta=2
    35                           	psect	text25,local,class=CODE,merge=1,delta=2
    36                           	psect	text26,local,class=CODE,merge=1,delta=2
    37                           	psect	text27,local,class=CODE,merge=1,delta=2
    38                           	psect	text28,local,class=CODE,merge=1,delta=2
    39                           	psect	intentry,global,class=CODE,delta=2
    40                           	psect	config,global,abs,ovrld,class=CONFIG,space=4,delta=2,noexec
    41                           	dabs	1,0x7E,2
    42  0000                     
    43                           ; Version 2.20
    44                           ; Generated 12/02/2020 GMT
    45                           ; 
    46                           ; Copyright © 2020, Microchip Technology Inc. and its subsidiaries ("Microchip")
    47                           ; All rights reserved.
    48                           ; 
    49                           ; This software is developed by Microchip Technology Inc. and its subsidiaries ("Microch
      +                          ip").
    50                           ; 
    51                           ; Redistribution and use in source and binary forms, with or without modification, are
    52                           ; permitted provided that the following conditions are met:
    53                           ; 
    54                           ;     1. Redistributions of source code must retain the above copyright notice, this lis
      +                          t of
    55                           ;        conditions and the following disclaimer.
    56                           ; 
    57                           ;     2. Redistributions in binary form must reproduce the above copyright notice, this 
      +                          list
    58                           ;        of conditions and the following disclaimer in the documentation and/or other
    59                           ;        materials provided with the distribution.
    60                           ; 
    61                           ;     3. Microchip's name may not be used to endorse or promote products derived from th
      +                          is
    62                           ;        software without specific prior written permission.
    63                           ; 
    64                           ; THIS SOFTWARE IS PROVIDED BY MICROCHIP "AS IS" AND ANY EXPRESS OR IMPLIED WARRANTIES,
    65                           ; INCLUDING, BUT NOT LIMITED TO, THE IMPLIED WARRANTIES OF MERCHANTABILITY AND FITNESS F
      +                          OR
    66                           ; PURPOSE ARE DISCLAIMED.  IN NO EVENT SHALL MICROCHIP BE LIABLE FOR ANY DIRECT, INDIREC
      +                          T,
    67                           ; INCIDENTAL, SPECIAL, EXEMPLARY, OR CONSEQUENTIAL DAMAGES (INCLUDING BUT NOT LIMITED TO
    68                           ; PROCUREMENT OF SUBSTITUTE GOODS OR SERVICES; LOSS OF USE, DATA OR PROFITS; OR BUSINESS
    69                           ; INTERRUPTION) HOWSOEVER CAUSED AND ON ANY THEORY OF LIABILITY, WHETHER IN CONTRACT, ST
      +                          RICT
    70                           ; LIABILITY, OR TORT (INCLUDING NEGLIGENCE OR OTHERWISE) ARISING IN ANY WAY OUT OF THE U
      +                          SE OF
    71                           ; THIS SOFTWARE, EVEN IF ADVISED OF THE POSSIBILITY OF SUCH DAMAGE.
    72                           ; 
    73                           ; 
    74                           ; Code-generator required, PIC16F887 Definitions
    75                           ; 
    76                           ; SFR Addresses
    77  0000                     	;# 
    78  0001                     	;# 
    79  0002                     	;# 
    80  0003                     	;# 
    81  0004                     	;# 
    82  0005                     	;# 
    83  0006                     	;# 
    84  0007                     	;# 
    85  0008                     	;# 
    86  0009                     	;# 
    87  000A                     	;# 
    88  000B                     	;# 
    89  000C                     	;# 
    90  000D                     	;# 
    91  000E                     	;# 
    92  000E                     	;# 
    93  000F                     	;# 
    94  0010                     	;# 
    95  0011                     	;# 
    96  0012                     	;# 
    97  0013                     	;# 
    98  0014                     	;# 
    99  0015                     	;# 
   100  0015                     	;# 
   101  0016                     	;# 
   102  0017                     	;# 
   103  0018                     	;# 
   104  0019                     	;# 
   105  001A                     	;# 
   106  001B                     	;# 
   107  001B                     	;# 
   108  001C                     	;# 
   109  001D                     	;# 
   110  001E                     	;# 
   111  001F                     	;# 
   112  0081                     	;# 
   113  0085                     	;# 
   114  0086                     	;# 
   115  0087                     	;# 
   116  0088                     	;# 
   117  0089                     	;# 
   118  008C                     	;# 
   119  008D                     	;# 
   120  008E                     	;# 
   121  008F                     	;# 
   122  0090                     	;# 
   123  0091                     	;# 
   124  0092                     	;# 
   125  0093                     	;# 
   126  0093                     	;# 
   127  0093                     	;# 
   128  0094                     	;# 
   129  0095                     	;# 
   130  0096                     	;# 
   131  0097                     	;# 
   132  0098                     	;# 
   133  0099                     	;# 
   134  009A                     	;# 
   135  009B                     	;# 
   136  009C                     	;# 
   137  009D                     	;# 
   138  009E                     	;# 
   139  009F                     	;# 
   140  0105                     	;# 
   141  0107                     	;# 
   142  0108                     	;# 
   143  0109                     	;# 
   144  010C                     	;# 
   145  010C                     	;# 
   146  010D                     	;# 
   147  010E                     	;# 
   148  010F                     	;# 
   149  0185                     	;# 
   150  0187                     	;# 
   151  0188                     	;# 
   152  0189                     	;# 
   153  018C                     	;# 
   154  018D                     	;# 
   155  0000                     	;# 
   156  0001                     	;# 
   157  0002                     	;# 
   158  0003                     	;# 
   159  0004                     	;# 
   160  0005                     	;# 
   161  0006                     	;# 
   162  0007                     	;# 
   163  0008                     	;# 
   164  0009                     	;# 
   165  000A                     	;# 
   166  000B                     	;# 
   167  000C                     	;# 
   168  000D                     	;# 
   169  000E                     	;# 
   170  000E                     	;# 
   171  000F                     	;# 
   172  0010                     	;# 
   173  0011                     	;# 
   174  0012                     	;# 
   175  0013                     	;# 
   176  0014                     	;# 
   177  0015                     	;# 
   178  0015                     	;# 
   179  0016                     	;# 
   180  0017                     	;# 
   181  0018                     	;# 
   182  0019                     	;# 
   183  001A                     	;# 
   184  001B                     	;# 
   185  001B                     	;# 
   186  001C                     	;# 
   187  001D                     	;# 
   188  001E                     	;# 
   189  001F                     	;# 
   190  0081                     	;# 
   191  0085                     	;# 
   192  0086                     	;# 
   193  0087                     	;# 
   194  0088                     	;# 
   195  0089                     	;# 
   196  008C                     	;# 
   197  008D                     	;# 
   198  008E                     	;# 
   199  008F                     	;# 
   200  0090                     	;# 
   201  0091                     	;# 
   202  0092                     	;# 
   203  0093                     	;# 
   204  0093                     	;# 
   205  0093                     	;# 
   206  0094                     	;# 
   207  0095                     	;# 
   208  0096                     	;# 
   209  0097                     	;# 
   210  0098                     	;# 
   211  0099                     	;# 
   212  009A                     	;# 
   213  009B                     	;# 
   214  009C                     	;# 
   215  009D                     	;# 
   216  009E                     	;# 
   217  009F                     	;# 
   218  0105                     	;# 
   219  0107                     	;# 
   220  0108                     	;# 
   221  0109                     	;# 
   222  010C                     	;# 
   223  010C                     	;# 
   224  010D                     	;# 
   225  010E                     	;# 
   226  010F                     	;# 
   227  0185                     	;# 
   228  0187                     	;# 
   229  0188                     	;# 
   230  0189                     	;# 
   231  018C                     	;# 
   232  018D                     	;# 
   233  0000                     	;# 
   234  0001                     	;# 
   235  0002                     	;# 
   236  0003                     	;# 
   237  0004                     	;# 
   238  0005                     	;# 
   239  0006                     	;# 
   240  0007                     	;# 
   241  0008                     	;# 
   242  0009                     	;# 
   243  000A                     	;# 
   244  000B                     	;# 
   245  000C                     	;# 
   246  000D                     	;# 
   247  000E                     	;# 
   248  000E                     	;# 
   249  000F                     	;# 
   250  0010                     	;# 
   251  0011                     	;# 
   252  0012                     	;# 
   253  0013                     	;# 
   254  0014                     	;# 
   255  0015                     	;# 
   256  0015                     	;# 
   257  0016                     	;# 
   258  0017                     	;# 
   259  0018                     	;# 
   260  0019                     	;# 
   261  001A                     	;# 
   262  001B                     	;# 
   263  001B                     	;# 
   264  001C                     	;# 
   265  001D                     	;# 
   266  001E                     	;# 
   267  001F                     	;# 
   268  0081                     	;# 
   269  0085                     	;# 
   270  0086                     	;# 
   271  0087                     	;# 
   272  0088                     	;# 
   273  0089                     	;# 
   274  008C                     	;# 
   275  008D                     	;# 
   276  008E                     	;# 
   277  008F                     	;# 
   278  0090                     	;# 
   279  0091                     	;# 
   280  0092                     	;# 
   281  0093                     	;# 
   282  0093                     	;# 
   283  0093                     	;# 
   284  0094                     	;# 
   285  0095                     	;# 
   286  0096                     	;# 
   287  0097                     	;# 
   288  0098                     	;# 
   289  0099                     	;# 
   290  009A                     	;# 
   291  009B                     	;# 
   292  009C                     	;# 
   293  009D                     	;# 
   294  009E                     	;# 
   295  009F                     	;# 
   296  0105                     	;# 
   297  0107                     	;# 
   298  0108                     	;# 
   299  0109                     	;# 
   300  010C                     	;# 
   301  010C                     	;# 
   302  010D                     	;# 
   303  010E                     	;# 
   304  010F                     	;# 
   305  0185                     	;# 
   306  0187                     	;# 
   307  0188                     	;# 
   308  0189                     	;# 
   309  018C                     	;# 
   310  018D                     	;# 
   311  0000                     	;# 
   312  0001                     	;# 
   313  0002                     	;# 
   314  0003                     	;# 
   315  0004                     	;# 
   316  0005                     	;# 
   317  0006                     	;# 
   318  0007                     	;# 
   319  0008                     	;# 
   320  0009                     	;# 
   321  000A                     	;# 
   322  000B                     	;# 
   323  000C                     	;# 
   324  000D                     	;# 
   325  000E                     	;# 
   326  000E                     	;# 
   327  000F                     	;# 
   328  0010                     	;# 
   329  0011                     	;# 
   330  0012                     	;# 
   331  0013                     	;# 
   332  0014                     	;# 
   333  0015                     	;# 
   334  0015                     	;# 
   335  0016                     	;# 
   336  0017                     	;# 
   337  0018                     	;# 
   338  0019                     	;# 
   339  001A                     	;# 
   340  001B                     	;# 
   341  001B                     	;# 
   342  001C                     	;# 
   343  001D                     	;# 
   344  001E                     	;# 
   345  001F                     	;# 
   346  0081                     	;# 
   347  0085                     	;# 
   348  0086                     	;# 
   349  0087                     	;# 
   350  0088                     	;# 
   351  0089                     	;# 
   352  008C                     	;# 
   353  008D                     	;# 
   354  008E                     	;# 
   355  008F                     	;# 
   356  0090                     	;# 
   357  0091                     	;# 
   358  0092                     	;# 
   359  0093                     	;# 
   360  0093                     	;# 
   361  0093                     	;# 
   362  0094                     	;# 
   363  0095                     	;# 
   364  0096                     	;# 
   365  0097                     	;# 
   366  0098                     	;# 
   367  0099                     	;# 
   368  009A                     	;# 
   369  009B                     	;# 
   370  009C                     	;# 
   371  009D                     	;# 
   372  009E                     	;# 
   373  009F                     	;# 
   374  0105                     	;# 
   375  0107                     	;# 
   376  0108                     	;# 
   377  0109                     	;# 
   378  010C                     	;# 
   379  010C                     	;# 
   380  010D                     	;# 
   381  010E                     	;# 
   382  010F                     	;# 
   383  0185                     	;# 
   384  0187                     	;# 
   385  0188                     	;# 
   386  0189                     	;# 
   387  018C                     	;# 
   388  018D                     	;# 
   389  0013                     _SSPBUF	set	19
   390  0014                     _SSPCON	set	20
   391  0009                     _PORTE	set	9
   392  0008                     _PORTD	set	8
   393  0006                     _PORTB	set	6
   394  0005                     _PORTA	set	5
   395  0049                     _RE1	set	73
   396  0048                     _RE0	set	72
   397  0091                     _SSPCON2bits	set	145
   398  0087                     _TRISCbits	set	135
   399  0093                     _SSPADD	set	147
   400  0094                     _SSPSTAT	set	148
   401  0091                     _SSPCON2	set	145
   402  008F                     _OSCCONbits	set	143
   403  0089                     _TRISE	set	137
   404  0088                     _TRISD	set	136
   405  0086                     _TRISB	set	134
   406  0085                     _TRISA	set	133
   407  0189                     _ANSELH	set	393
   408  0188                     _ANSEL	set	392
   409                           
   410                           	psect	strings
   411  0800                     __pstrings:
   412  0800                     stringtab:
   413  0800                     __stringtab:
   414  0800                     stringcode:	
   415                           ;	String table - string pointers are 1 byte each
   416                           
   417  0800                     stringdir:
   418  0800  3008               	movlw	high stringdir
   419  0801  008A               	movwf	10
   420  0802  0804               	movf	4,w
   421  0803  0A84               	incf	4,f
   422  0804  0782               	addwf	2,f
   423  0805                     __stringbase:
   424  0805  3400               	retlw	0
   425  0806                     __end_of__stringtab:
   426  0806                     STR_1:
   427  0806  3453               	retlw	83	;'S'
   428  0807  3431               	retlw	49	;'1'
   429  0808  343A               	retlw	58	;':'
   430  0809  3420               	retlw	32	;' '
   431  080A  3420               	retlw	32	;' '
   432  080B  3420               	retlw	32	;' '
   433  080C  3453               	retlw	83	;'S'
   434  080D  3432               	retlw	50	;'2'
   435  080E  343A               	retlw	58	;':'
   436  080F  3420               	retlw	32	;' '
   437  0810  3420               	retlw	32	;' '
   438  0811  3420               	retlw	32	;' '
   439  0812  3453               	retlw	83	;'S'
   440  0813  3433               	retlw	51	;'3'
   441  0814  343A               	retlw	58	;':'
   442  0815  3400               	retlw	0
   443                           
   444                           	psect	cinit
   445  000F                     start_initialization:	
   446                           ; #config settings
   447                           
   448  000F                     __initialization:
   449                           
   450                           ; Clear objects allocated to COMMON
   451  000F  01FA               	clrf	__pbssCOMMON& (0+127)
   452  0010  01FB               	clrf	(__pbssCOMMON+1)& (0+127)
   453                           
   454                           ; Clear objects allocated to BANK0
   455  0011  1283               	bcf	3,5	;RP0=0, select bank0
   456  0012  1303               	bcf	3,6	;RP1=0, select bank0
   457  0013  01E0               	clrf	__pbssBANK0& (0+127)
   458  0014  01E1               	clrf	(__pbssBANK0+1)& (0+127)
   459  0015  01E2               	clrf	(__pbssBANK0+2)& (0+127)
   460  0016  01E3               	clrf	(__pbssBANK0+3)& (0+127)
   461  0017  01E4               	clrf	(__pbssBANK0+4)& (0+127)
   462  0018  01E5               	clrf	(__pbssBANK0+5)& (0+127)
   463  0019  01E6               	clrf	(__pbssBANK0+6)& (0+127)
   464  001A  01E7               	clrf	(__pbssBANK0+7)& (0+127)
   465  001B  01E8               	clrf	(__pbssBANK0+8)& (0+127)
   466  001C  01E9               	clrf	(__pbssBANK0+9)& (0+127)
   467  001D  01EA               	clrf	(__pbssBANK0+10)& (0+127)
   468  001E  01EB               	clrf	(__pbssBANK0+11)& (0+127)
   469  001F  01EC               	clrf	(__pbssBANK0+12)& (0+127)
   470  0020  01ED               	clrf	(__pbssBANK0+13)& (0+127)
   471  0021                     end_of_initialization:	
   472                           ;End of C runtime variable initialization code
   473                           
   474  0021                     __end_of__initialization:
   475  0021  0183               	clrf	3
   476  0022  120A  118A  2E0E   	ljmp	_main	;jump to C main() function
   477                           
   478                           	psect	bssCOMMON
   479  007A                     __pbssCOMMON:
   480  007A                     _DatS3:
   481  007A                     	ds	1
   482  007B                     _DatS1:
   483  007B                     	ds	1
   484                           
   485                           	psect	bssBANK0
   486  0060                     __pbssBANK0:
   487  0060                     _lect1:
   488  0060                     	ds	4
   489  0064                     _disp3:
   490  0064                     	ds	3
   491  0067                     _disp2:
   492  0067                     	ds	3
   493  006A                     _disp1:
   494  006A                     	ds	3
   495  006D                     _DatS2:
   496  006D                     	ds	1
   497                           
   498                           	psect	cstackCOMMON
   499  0070                     __pcstackCOMMON:
   500  0070                     ?_config:
   501  0070                     ?_initLCD:	
   502                           ; 1 bytes @ 0x0
   503                           
   504  0070                     ?_MasterStart_I2C:	
   505                           ; 1 bytes @ 0x0
   506                           
   507  0070                     ?_MasterSend_I2C:	
   508                           ; 1 bytes @ 0x0
   509                           
   510  0070                     ?_MasterRepeatS_I2C:	
   511                           ; 1 bytes @ 0x0
   512                           
   513  0070                     ?_MasterStop_I2C:	
   514                           ; 1 bytes @ 0x0
   515                           
   516  0070                     ?_MasterReceive_I2C:	
   517                           ; 1 bytes @ 0x0
   518                           
   519  0070                     ?_LCDstring:	
   520                           ; 1 bytes @ 0x0
   521                           
   522  0070                     ?_dispCHAR:	
   523                           ; 1 bytes @ 0x0
   524                           
   525  0070                     ?_comandoLCD:	
   526                           ; 1 bytes @ 0x0
   527                           
   528  0070                     ?_interrupcion:	
   529                           ; 1 bytes @ 0x0
   530                           
   531  0070                     ??_interrupcion:	
   532                           ; 1 bytes @ 0x0
   533                           
   534  0070                     ?_main:	
   535                           ; 1 bytes @ 0x0
   536                           
   537  0070                     ?_waitCondition:	
   538                           ; 1 bytes @ 0x0
   539                           
   540                           
   541                           ; 1 bytes @ 0x0
   542  0070                     	ds	2
   543  0072                     ??_MasterStart_I2C:
   544  0072                     ??_MasterSend_I2C:	
   545                           ; 1 bytes @ 0x2
   546                           
   547  0072                     ??_MasterRepeatS_I2C:	
   548                           ; 1 bytes @ 0x2
   549                           
   550  0072                     ??_MasterStop_I2C:	
   551                           ; 1 bytes @ 0x2
   552                           
   553  0072                     ??_MasterReceive_I2C:	
   554                           ; 1 bytes @ 0x2
   555                           
   556  0072                     ??_dispCHAR:	
   557                           ; 1 bytes @ 0x2
   558                           
   559  0072                     ??_comandoLCD:	
   560                           ; 1 bytes @ 0x2
   561                           
   562  0072                     ??_waitCondition:	
   563                           ; 1 bytes @ 0x2
   564                           
   565  0072                     ?___bmul:	
   566                           ; 1 bytes @ 0x2
   567                           
   568  0072                     ?__Umul8_16:	
   569                           ; 1 bytes @ 0x2
   570                           
   571  0072                     ?___awdiv:	
   572                           ; 2 bytes @ 0x2
   573                           
   574  0072                     ?___lldiv:	
   575                           ; 2 bytes @ 0x2
   576                           
   577  0072                     ?___fladd:	
   578                           ; 4 bytes @ 0x2
   579                           
   580  0072                     ?___xxtofl:	
   581                           ; 4 bytes @ 0x2
   582                           
   583  0072                     MasterSend_I2C@dato:	
   584                           ; 4 bytes @ 0x2
   585                           
   586  0072                     ___bmul@multiplicand:	
   587                           ; 1 bytes @ 0x2
   588                           
   589  0072                     __Umul8_16@multiplicand:	
   590                           ; 1 bytes @ 0x2
   591                           
   592  0072                     ___awdiv@divisor:	
   593                           ; 1 bytes @ 0x2
   594                           
   595  0072                     ___lldiv@divisor:	
   596                           ; 2 bytes @ 0x2
   597                           
   598  0072                     ___fladd@b:	
   599                           ; 4 bytes @ 0x2
   600                           
   601  0072                     ___xxtofl@val:	
   602                           ; 4 bytes @ 0x2
   603                           
   604                           
   605                           ; 4 bytes @ 0x2
   606  0072                     	ds	1
   607  0073                     ??___bmul:
   608  0073                     MasterReceive_I2C@valor:	
   609                           ; 1 bytes @ 0x3
   610                           
   611  0073                     dispCHAR@b:	
   612                           ; 1 bytes @ 0x3
   613                           
   614                           
   615                           ; 1 bytes @ 0x3
   616  0073                     	ds	1
   617  0074                     ??_LCDstring:
   618  0074                     ??__Umul8_16:	
   619                           ; 1 bytes @ 0x4
   620                           
   621  0074                     comandoLCD@cmd:	
   622                           ; 1 bytes @ 0x4
   623                           
   624  0074                     ___bmul@product:	
   625                           ; 1 bytes @ 0x4
   626                           
   627  0074                     ___awdiv@dividend:	
   628                           ; 1 bytes @ 0x4
   629                           
   630                           
   631                           ; 2 bytes @ 0x4
   632  0074                     	ds	1
   633  0075                     ??_initLCD:
   634  0075                     ?_cursorLCD:	
   635                           ; 1 bytes @ 0x5
   636                           
   637  0075                     cursorLCD@columna:	
   638                           ; 1 bytes @ 0x5
   639                           
   640  0075                     LCDstring@mensaje:	
   641                           ; 1 bytes @ 0x5
   642                           
   643  0075                     ___bmul@multiplier:	
   644                           ; 1 bytes @ 0x5
   645                           
   646                           
   647                           ; 1 bytes @ 0x5
   648  0075                     	ds	1
   649  0076                     ??_cursorLCD:
   650  0076                     ??___awdiv:	
   651                           ; 1 bytes @ 0x6
   652                           
   653  0076                     ??___xxtofl:	
   654                           ; 1 bytes @ 0x6
   655                           
   656  0076                     ___lldiv@dividend:	
   657                           ; 1 bytes @ 0x6
   658                           
   659  0076                     ___fladd@a:	
   660                           ; 4 bytes @ 0x6
   661                           
   662                           
   663                           ; 4 bytes @ 0x6
   664  0076                     	ds	1
   665  0077                     ??_division:
   666  0077                     ??_divisiondecimal:	
   667                           ; 1 bytes @ 0x7
   668                           
   669  0077                     cursorLCD@fila:	
   670                           ; 1 bytes @ 0x7
   671                           
   672                           
   673                           ; 1 bytes @ 0x7
   674  0077                     	ds	1
   675  0078                     cursorLCD@temp:
   676                           
   677                           ; 1 bytes @ 0x8
   678  0078                     	ds	2
   679  007A                     ??_config:
   680  007A                     ??___flsub:	
   681                           ; 1 bytes @ 0xA
   682                           
   683                           
   684                           	psect	cstackBANK0
   685  0020                     __pcstackBANK0:	
   686                           ; 1 bytes @ 0xA
   687                           
   688  0020                     ??___lldiv:
   689  0020                     ??___fladd:	
   690                           ; 1 bytes @ 0x0
   691                           
   692  0020                     ___awdiv@counter:	
   693                           ; 1 bytes @ 0x0
   694                           
   695  0020                     ___xxtofl@sign:	
   696                           ; 1 bytes @ 0x0
   697                           
   698  0020                     __Umul8_16@product:	
   699                           ; 1 bytes @ 0x0
   700                           
   701                           
   702                           ; 2 bytes @ 0x0
   703  0020                     	ds	1
   704  0021                     ___awdiv@sign:
   705  0021                     ___xxtofl@exp:	
   706                           ; 1 bytes @ 0x1
   707                           
   708  0021                     ___lldiv@quotient:	
   709                           ; 1 bytes @ 0x1
   710                           
   711                           
   712                           ; 4 bytes @ 0x1
   713  0021                     	ds	1
   714  0022                     ___awdiv@quotient:
   715  0022                     __Umul8_16@word_mpld:	
   716                           ; 2 bytes @ 0x2
   717                           
   718  0022                     ___xxtofl@arg:	
   719                           ; 2 bytes @ 0x2
   720                           
   721                           
   722                           ; 4 bytes @ 0x2
   723  0022                     	ds	2
   724  0024                     ?_division:
   725  0024                     ?_divisiondecimal:	
   726                           ; 1 bytes @ 0x4
   727                           
   728  0024                     division@un:	
   729                           ; 1 bytes @ 0x4
   730                           
   731  0024                     divisiondecimal@un:	
   732                           ; 1 bytes @ 0x4
   733                           
   734  0024                     __Umul8_16@multiplier:	
   735                           ; 1 bytes @ 0x4
   736                           
   737                           
   738                           ; 1 bytes @ 0x4
   739  0024                     	ds	1
   740  0025                     division@dec:
   741  0025                     divisiondecimal@dec:	
   742                           ; 1 bytes @ 0x5
   743                           
   744  0025                     ___lldiv@counter:	
   745                           ; 1 bytes @ 0x5
   746                           
   747                           
   748                           ; 1 bytes @ 0x5
   749  0025                     	ds	1
   750  0026                     ?_MasterInit_I2C:
   751  0026                     ?___flmul:	
   752                           ; 1 bytes @ 0x6
   753                           
   754  0026                     division@conteo:	
   755                           ; 4 bytes @ 0x6
   756                           
   757  0026                     divisiondecimal@cent:	
   758                           ; 1 bytes @ 0x6
   759                           
   760  0026                     MasterInit_I2C@frec:	
   761                           ; 1 bytes @ 0x6
   762                           
   763  0026                     ___flmul@b:	
   764                           ; 4 bytes @ 0x6
   765                           
   766                           
   767                           ; 4 bytes @ 0x6
   768  0026                     	ds	1
   769  0027                     division@div:
   770  0027                     divisiondecimal@conteo:	
   771                           ; 1 bytes @ 0x7
   772                           
   773                           
   774                           ; 1 bytes @ 0x7
   775  0027                     	ds	1
   776  0028                     divisiondecimal@div:
   777  0028                     ___fladd@signs:	
   778                           ; 1 bytes @ 0x8
   779                           
   780                           
   781                           ; 1 bytes @ 0x8
   782  0028                     	ds	1
   783  0029                     ?_hexTochar:
   784  0029                     ?_hexTocharNEG:	
   785                           ; 1 bytes @ 0x9
   786                           
   787  0029                     hexTochar@conv:	
   788                           ; 1 bytes @ 0x9
   789                           
   790  0029                     hexTocharNEG@conv:	
   791                           ; 1 bytes @ 0x9
   792                           
   793  0029                     ___fladd@aexp:	
   794                           ; 1 bytes @ 0x9
   795                           
   796                           
   797                           ; 1 bytes @ 0x9
   798  0029                     	ds	1
   799  002A                     ??_hexTochar:
   800  002A                     ??_hexTocharNEG:	
   801                           ; 1 bytes @ 0xA
   802                           
   803  002A                     ??_MasterInit_I2C:	
   804                           ; 1 bytes @ 0xA
   805                           
   806  002A                     ___fladd@bexp:	
   807                           ; 1 bytes @ 0xA
   808                           
   809  002A                     ___flmul@a:	
   810                           ; 1 bytes @ 0xA
   811                           
   812                           
   813                           ; 4 bytes @ 0xA
   814  002A                     	ds	1
   815  002B                     ___fladd@grs:
   816                           
   817                           ; 1 bytes @ 0xB
   818  002B                     	ds	1
   819  002C                     ?___flsub:
   820  002C                     ___flsub@a:	
   821                           ; 4 bytes @ 0xC
   822                           
   823                           
   824                           ; 4 bytes @ 0xC
   825  002C                     	ds	1
   826  002D                     hexTochar@valor:
   827  002D                     hexTocharNEG@temporal:	
   828                           ; 1 bytes @ 0xD
   829                           
   830                           
   831                           ; 1 bytes @ 0xD
   832  002D                     	ds	1
   833  002E                     ??___flmul:
   834  002E                     hexTochar@unidad:	
   835                           ; 1 bytes @ 0xE
   836                           
   837  002E                     hexTocharNEG@valor:	
   838                           ; 1 bytes @ 0xE
   839                           
   840                           
   841                           ; 1 bytes @ 0xE
   842  002E                     	ds	1
   843  002F                     hexTochar@centena:
   844  002F                     hexTocharNEG@centena:	
   845                           ; 1 bytes @ 0xF
   846                           
   847                           
   848                           ; 1 bytes @ 0xF
   849  002F                     	ds	1
   850  0030                     hexTochar@decena:
   851  0030                     hexTocharNEG@unidad:	
   852                           ; 1 bytes @ 0x10
   853                           
   854  0030                     ___flsub@b:	
   855                           ; 1 bytes @ 0x10
   856                           
   857                           
   858                           ; 4 bytes @ 0x10
   859  0030                     	ds	1
   860  0031                     hexTocharNEG@decena:
   861                           
   862                           ; 1 bytes @ 0x11
   863  0031                     	ds	2
   864  0033                     ___flmul@sign:
   865                           
   866                           ; 1 bytes @ 0x13
   867  0033                     	ds	1
   868  0034                     ___flmul@aexp:
   869                           
   870                           ; 1 bytes @ 0x14
   871  0034                     	ds	1
   872  0035                     ___flmul@grs:
   873                           
   874                           ; 4 bytes @ 0x15
   875  0035                     	ds	4
   876  0039                     ___flmul@bexp:
   877                           
   878                           ; 1 bytes @ 0x19
   879  0039                     	ds	1
   880  003A                     ___flmul@prod:
   881                           
   882                           ; 4 bytes @ 0x1A
   883  003A                     	ds	4
   884  003E                     ___flmul@temp:
   885                           
   886                           ; 2 bytes @ 0x1E
   887  003E                     	ds	2
   888  0040                     ?___fltol:
   889  0040                     ___fltol@f1:	
   890                           ; 4 bytes @ 0x20
   891                           
   892                           
   893                           ; 4 bytes @ 0x20
   894  0040                     	ds	4
   895  0044                     ??___fltol:
   896                           
   897                           ; 1 bytes @ 0x24
   898  0044                     	ds	5
   899  0049                     ___fltol@sign1:
   900                           
   901                           ; 1 bytes @ 0x29
   902  0049                     	ds	1
   903  004A                     ___fltol@exp1:
   904                           
   905                           ; 1 bytes @ 0x2A
   906  004A                     	ds	1
   907  004B                     ?_floTochar:
   908  004B                     floTochar@valor:	
   909                           ; 1 bytes @ 0x2B
   910                           
   911                           
   912                           ; 4 bytes @ 0x2B
   913  004B                     	ds	4
   914  004F                     floTochar@conv:
   915                           
   916                           ; 1 bytes @ 0x2F
   917  004F                     	ds	1
   918  0050                     ??_floTochar:
   919                           
   920                           ; 1 bytes @ 0x30
   921  0050                     	ds	4
   922  0054                     floTochar@temp:
   923                           
   924                           ; 4 bytes @ 0x34
   925  0054                     	ds	4
   926  0058                     floTochar@decimal:
   927                           
   928                           ; 1 bytes @ 0x38
   929  0058                     	ds	1
   930  0059                     floTochar@entero:
   931                           
   932                           ; 1 bytes @ 0x39
   933  0059                     	ds	1
   934  005A                     floTochar@digdecimal:
   935                           
   936                           ; 2 bytes @ 0x3A
   937  005A                     	ds	2
   938  005C                     ??_main:
   939                           
   940                           ; 1 bytes @ 0x3C
   941  005C                     	ds	4
   942                           
   943                           	psect	maintext
   944  060E                     __pmaintext:	
   945 ;;
   946 ;;Main: autosize = 0, tempsize = 4, incstack = 0, save=0
   947 ;;
   948 ;; *************** function _main *****************
   949 ;; Defined at:
   950 ;;		line 62 in file "main.c"
   951 ;; Parameters:    Size  Location     Type
   952 ;;		None
   953 ;; Auto vars:     Size  Location     Type
   954 ;;		None
   955 ;; Return value:  Size  Location     Type
   956 ;;                  1    wreg      void 
   957 ;; Registers used:
   958 ;;		wreg, fsr0l, fsr0h, status,2, status,0, btemp+1, pclath, cstack
   959 ;; Tracked objects:
   960 ;;		On entry : B00/0
   961 ;;		On exit  : 0/0
   962 ;;		Unchanged: 0/0
   963 ;; Data sizes:     COMMON   BANK0   BANK1   BANK3   BANK2
   964 ;;      Params:         0       0       0       0       0
   965 ;;      Locals:         0       0       0       0       0
   966 ;;      Temps:          0       4       0       0       0
   967 ;;      Totals:         0       4       0       0       0
   968 ;;Total ram usage:        4 bytes
   969 ;; Hardware stack levels required when called:    4
   970 ;; This function calls:
   971 ;;		_LCDstring
   972 ;;		_MasterReceive_I2C
   973 ;;		_MasterRepeatS_I2C
   974 ;;		_MasterSend_I2C
   975 ;;		_MasterStart_I2C
   976 ;;		_MasterStop_I2C
   977 ;;		___flmul
   978 ;;		___xxtofl
   979 ;;		_config
   980 ;;		_cursorLCD
   981 ;;		_dispCHAR
   982 ;;		_floTochar
   983 ;;		_hexTochar
   984 ;;		_hexTocharNEG
   985 ;;		_initLCD
   986 ;; This function is called by:
   987 ;;		Startup code after reset
   988 ;; This function uses a non-reentrant model
   989 ;;
   990                           
   991                           
   992                           ;psect for function _main
   993  060E                     _main:
   994  060E                     l2624:	
   995                           ;incstack = 0
   996                           ; Regs used in _main: [wreg-fsr0h+status,2+status,0+btemp+1+pclath+cstack]
   997                           
   998                           
   999                           ;main.c: 63:     config();
  1000  060E  120A  158A  2383  120A  118A  	fcall	_config
  1001                           
  1002                           ;main.c: 64:     initLCD();
  1003  0613  120A  118A  27A1  120A  118A  	fcall	_initLCD
  1004                           
  1005                           ;main.c: 66:     MasterStart_I2C();
  1006  0618  120A  158A  22AE  120A  118A  	fcall	_MasterStart_I2C
  1007                           
  1008                           ;main.c: 67:     MasterSend_I2C(0X90);
  1009  061D  3090               	movlw	144
  1010  061E  120A  158A  22C0  120A  118A  	fcall	_MasterSend_I2C
  1011                           
  1012                           ;main.c: 68:     MasterSend_I2C(0XAC);
  1013  0623  30AC               	movlw	172
  1014  0624  120A  158A  22C0  120A  118A  	fcall	_MasterSend_I2C
  1015                           
  1016                           ;main.c: 69:     MasterSend_I2C(0X00);
  1017  0629  3000               	movlw	0
  1018  062A  120A  158A  22C0  120A  118A  	fcall	_MasterSend_I2C
  1019                           
  1020                           ;main.c: 70:     MasterRepeatS_I2C();
  1021  062F  120A  158A  22A5  120A  118A  	fcall	_MasterRepeatS_I2C
  1022                           
  1023                           ;main.c: 71:     MasterSend_I2C(0X90);
  1024  0634  3090               	movlw	144
  1025  0635  120A  158A  22C0  120A  118A  	fcall	_MasterSend_I2C
  1026                           
  1027                           ;main.c: 72:     MasterSend_I2C(0XEE);
  1028  063A  30EE               	movlw	238
  1029  063B  120A  158A  22C0  120A  118A  	fcall	_MasterSend_I2C
  1030                           
  1031                           ;main.c: 73:     MasterStop_I2C();
  1032  0640  120A  158A  22B7  120A  118A  	fcall	_MasterStop_I2C
  1033  0645                     l78:	
  1034                           ;main.c: 75:     while(1){
  1035                           
  1036                           
  1037                           ;main.c: 77:         MasterStart_I2C();
  1038  0645  120A  158A  22AE  120A  118A  	fcall	_MasterStart_I2C
  1039                           
  1040                           ;main.c: 78:         MasterSend_I2C(0X21);
  1041  064A  3021               	movlw	33
  1042  064B  120A  158A  22C0  120A  118A  	fcall	_MasterSend_I2C
  1043  0650                     l2626:
  1044                           
  1045                           ;main.c: 79:         MasterReceive_I2C(&DatS1);
  1046  0650  307B               	movlw	(low (_DatS1| 0))& (0+255)
  1047  0651  120A  158A  231B  120A  118A  	fcall	_MasterReceive_I2C
  1048  0656                     l2628:
  1049                           
  1050                           ;main.c: 80:         MasterStop_I2C();
  1051  0656  120A  158A  22B7  120A  118A  	fcall	_MasterStop_I2C
  1052  065B                     l2630:
  1053                           
  1054                           ;main.c: 83:         MasterStart_I2C();
  1055  065B  120A  158A  22AE  120A  118A  	fcall	_MasterStart_I2C
  1056  0660                     l2632:
  1057                           
  1058                           ;main.c: 84:         MasterSend_I2C(0X31);
  1059  0660  3031               	movlw	49
  1060  0661  120A  158A  22C0  120A  118A  	fcall	_MasterSend_I2C
  1061                           
  1062                           ;main.c: 85:         MasterReceive_I2C(&DatS2);
  1063  0666  306D               	movlw	(low (_DatS2| 0))& (0+255)
  1064  0667  120A  158A  231B  120A  118A  	fcall	_MasterReceive_I2C
  1065  066C                     l2634:
  1066                           
  1067                           ;main.c: 86:         MasterStop_I2C();
  1068  066C  120A  158A  22B7  120A  118A  	fcall	_MasterStop_I2C
  1069  0671                     l2636:
  1070                           
  1071                           ;main.c: 89:         MasterStart_I2C();
  1072  0671  120A  158A  22AE  120A  118A  	fcall	_MasterStart_I2C
  1073  0676                     l2638:
  1074                           
  1075                           ;main.c: 90:         MasterSend_I2C(0X90);
  1076  0676  3090               	movlw	144
  1077  0677  120A  158A  22C0  120A  118A  	fcall	_MasterSend_I2C
  1078  067C                     l2640:
  1079                           
  1080                           ;main.c: 91:         MasterSend_I2C(0XAA);
  1081  067C  30AA               	movlw	170
  1082  067D  120A  158A  22C0  120A  118A  	fcall	_MasterSend_I2C
  1083  0682                     l2642:
  1084                           
  1085                           ;main.c: 92:         MasterRepeatS_I2C();
  1086  0682  120A  158A  22A5  120A  118A  	fcall	_MasterRepeatS_I2C
  1087  0687                     l2644:
  1088                           
  1089                           ;main.c: 93:         MasterSend_I2C(0X91);
  1090  0687  3091               	movlw	145
  1091  0688  120A  158A  22C0  120A  118A  	fcall	_MasterSend_I2C
  1092                           
  1093                           ;main.c: 94:         MasterReceive_I2C(&DatS3);
  1094  068D  307A               	movlw	(low (_DatS3| 0))& (0+255)
  1095  068E  120A  158A  231B  120A  118A  	fcall	_MasterReceive_I2C
  1096  0693                     l2646:
  1097                           
  1098                           ;main.c: 95:         MasterStop_I2C();
  1099  0693  120A  158A  22B7  120A  118A  	fcall	_MasterStop_I2C
  1100  0698                     l2648:
  1101                           
  1102                           ;main.c: 99:         lect1 = (float)(0.01961)*(DatS1);
  1103  0698  303C               	movlw	60
  1104  0699  1283               	bcf	3,5	;RP0=0, select bank0
  1105  069A  1303               	bcf	3,6	;RP1=0, select bank0
  1106  069B  00A9               	movwf	___flmul@b+3
  1107  069C  30A0               	movlw	160
  1108  069D  00A8               	movwf	___flmul@b+2
  1109  069E  30A5               	movlw	165
  1110  069F  00A7               	movwf	___flmul@b+1
  1111  06A0  3027               	movlw	39
  1112  06A1  00A6               	movwf	___flmul@b
  1113  06A2  087B               	movf	_DatS1,w
  1114  06A3  00DC               	movwf	??_main
  1115  06A4  01DD               	clrf	??_main+1
  1116  06A5  01DE               	clrf	??_main+2
  1117  06A6  01DF               	clrf	??_main+3
  1118  06A7  085F               	movf	??_main+3,w
  1119  06A8  00F5               	movwf	___xxtofl@val+3
  1120  06A9  085E               	movf	??_main+2,w
  1121  06AA  00F4               	movwf	___xxtofl@val+2
  1122  06AB  085D               	movf	??_main+1,w
  1123  06AC  00F3               	movwf	___xxtofl@val+1
  1124  06AD  085C               	movf	??_main,w
  1125  06AE  00F2               	movwf	___xxtofl@val
  1126  06AF  3001               	movlw	1
  1127  06B0  120A  158A  2744  120A  118A  	fcall	___xxtofl
  1128  06B5  0875               	movf	?___xxtofl+3,w
  1129  06B6  1283               	bcf	3,5	;RP0=0, select bank0
  1130  06B7  1303               	bcf	3,6	;RP1=0, select bank0
  1131  06B8  00AD               	movwf	___flmul@a+3
  1132  06B9  0874               	movf	?___xxtofl+2,w
  1133  06BA  00AC               	movwf	___flmul@a+2
  1134  06BB  0873               	movf	?___xxtofl+1,w
  1135  06BC  00AB               	movwf	___flmul@a+1
  1136  06BD  0872               	movf	?___xxtofl,w
  1137  06BE  00AA               	movwf	___flmul@a
  1138  06BF  120A  118A  2025  120A  118A  	fcall	___flmul
  1139  06C4  1283               	bcf	3,5	;RP0=0, select bank0
  1140  06C5  1303               	bcf	3,6	;RP1=0, select bank0
  1141  06C6  0829               	movf	?___flmul+3,w
  1142  06C7  00E3               	movwf	_lect1+3
  1143  06C8  0828               	movf	?___flmul+2,w
  1144  06C9  00E2               	movwf	_lect1+2
  1145  06CA  0827               	movf	?___flmul+1,w
  1146  06CB  00E1               	movwf	_lect1+1
  1147  06CC  0826               	movf	?___flmul,w
  1148  06CD  00E0               	movwf	_lect1
  1149                           
  1150                           ;main.c: 101:         floTochar(lect1,&disp1);
  1151  06CE  0863               	movf	_lect1+3,w
  1152  06CF  00CE               	movwf	floTochar@valor+3
  1153  06D0  0862               	movf	_lect1+2,w
  1154  06D1  00CD               	movwf	floTochar@valor+2
  1155  06D2  0861               	movf	_lect1+1,w
  1156  06D3  00CC               	movwf	floTochar@valor+1
  1157  06D4  0860               	movf	_lect1,w
  1158  06D5  00CB               	movwf	floTochar@valor
  1159  06D6  306A               	movlw	(low (_disp1| 0))& (0+255)
  1160  06D7  00DC               	movwf	??_main
  1161  06D8  085C               	movf	??_main,w
  1162  06D9  00CF               	movwf	floTochar@conv
  1163  06DA  120A  158A  26A8  120A  118A  	fcall	_floTochar
  1164  06DF                     l2650:
  1165                           
  1166                           ;main.c: 102:         hexTochar(DatS2,&disp2);
  1167  06DF  3067               	movlw	(low (_disp2| 0))& (0+255)
  1168  06E0  1283               	bcf	3,5	;RP0=0, select bank0
  1169  06E1  1303               	bcf	3,6	;RP1=0, select bank0
  1170  06E2  00DC               	movwf	??_main
  1171  06E3  085C               	movf	??_main,w
  1172  06E4  00A9               	movwf	hexTochar@conv
  1173  06E5  086D               	movf	_DatS2,w
  1174  06E6  120A  158A  23D1  120A  118A  	fcall	_hexTochar
  1175  06EB                     l2652:
  1176                           
  1177                           ;main.c: 103:         hexTocharNEG(DatS3,&disp3);
  1178  06EB  3064               	movlw	(low (_disp3| 0))& (0+255)
  1179  06EC  1283               	bcf	3,5	;RP0=0, select bank0
  1180  06ED  1303               	bcf	3,6	;RP1=0, select bank0
  1181  06EE  00DC               	movwf	??_main
  1182  06EF  085C               	movf	??_main,w
  1183  06F0  00A9               	movwf	hexTocharNEG@conv
  1184  06F1  087A               	movf	_DatS3,w
  1185  06F2  120A  158A  247E  120A  118A  	fcall	_hexTocharNEG
  1186  06F7                     l2654:
  1187                           
  1188                           ;main.c: 104:         cursorLCD(1,1);
  1189  06F7  01F5               	clrf	cursorLCD@columna
  1190  06F8  0AF5               	incf	cursorLCD@columna,f
  1191  06F9  3001               	movlw	1
  1192  06FA  120A  158A  233C  120A  118A  	fcall	_cursorLCD
  1193  06FF                     l2656:
  1194                           
  1195                           ;main.c: 105:         LCDstring("S1:   S2:   S3:");
  1196  06FF  3001               	movlw	(low ((STR_1-__stringbase)| (0+32768)))& (0+255)
  1197  0700  120A  158A  22FC  120A  118A  	fcall	_LCDstring
  1198  0705                     l2658:
  1199                           
  1200                           ;main.c: 106:         cursorLCD(2,1);
  1201  0705  01F5               	clrf	cursorLCD@columna
  1202  0706  0AF5               	incf	cursorLCD@columna,f
  1203  0707  3002               	movlw	2
  1204  0708  120A  158A  233C  120A  118A  	fcall	_cursorLCD
  1205  070D                     l2660:
  1206                           
  1207                           ;main.c: 107:         dispCHAR(disp1[0]+48);
  1208  070D  1283               	bcf	3,5	;RP0=0, select bank0
  1209  070E  1303               	bcf	3,6	;RP1=0, select bank0
  1210  070F  086A               	movf	_disp1,w
  1211  0710  3E30               	addlw	48
  1212  0711  120A  158A  22D8  120A  118A  	fcall	_dispCHAR
  1213  0716                     l2662:
  1214                           
  1215                           ;main.c: 108:         dispCHAR('.');
  1216  0716  302E               	movlw	46
  1217  0717  120A  158A  22D8  120A  118A  	fcall	_dispCHAR
  1218  071C                     l2664:
  1219                           
  1220                           ;main.c: 109:         dispCHAR(disp1[1]+48);
  1221  071C  1283               	bcf	3,5	;RP0=0, select bank0
  1222  071D  1303               	bcf	3,6	;RP1=0, select bank0
  1223  071E  086B               	movf	_disp1+1,w
  1224  071F  3E30               	addlw	48
  1225  0720  120A  158A  22D8  120A  118A  	fcall	_dispCHAR
  1226  0725                     l2666:
  1227                           
  1228                           ;main.c: 110:         dispCHAR(disp1[2]+48);
  1229  0725  1283               	bcf	3,5	;RP0=0, select bank0
  1230  0726  1303               	bcf	3,6	;RP1=0, select bank0
  1231  0727  086C               	movf	_disp1+2,w
  1232  0728  3E30               	addlw	48
  1233  0729  120A  158A  22D8  120A  118A  	fcall	_dispCHAR
  1234  072E                     l2668:
  1235                           
  1236                           ;main.c: 111:         dispCHAR('V');
  1237  072E  3056               	movlw	86
  1238  072F  120A  158A  22D8  120A  118A  	fcall	_dispCHAR
  1239  0734                     l2670:
  1240                           
  1241                           ;main.c: 112:         cursorLCD(2,7);
  1242  0734  3007               	movlw	7
  1243  0735  1283               	bcf	3,5	;RP0=0, select bank0
  1244  0736  1303               	bcf	3,6	;RP1=0, select bank0
  1245  0737  00DC               	movwf	??_main
  1246  0738  085C               	movf	??_main,w
  1247  0739  00F5               	movwf	cursorLCD@columna
  1248  073A  3002               	movlw	2
  1249  073B  120A  158A  233C  120A  118A  	fcall	_cursorLCD
  1250  0740                     l2672:
  1251                           
  1252                           ;main.c: 113:         dispCHAR(disp2[2]+48);
  1253  0740  1283               	bcf	3,5	;RP0=0, select bank0
  1254  0741  1303               	bcf	3,6	;RP1=0, select bank0
  1255  0742  0869               	movf	_disp2+2,w
  1256  0743  3E30               	addlw	48
  1257  0744  120A  158A  22D8  120A  118A  	fcall	_dispCHAR
  1258  0749                     l2674:
  1259                           
  1260                           ;main.c: 114:         dispCHAR(disp2[1]+48);
  1261  0749  1283               	bcf	3,5	;RP0=0, select bank0
  1262  074A  1303               	bcf	3,6	;RP1=0, select bank0
  1263  074B  0868               	movf	_disp2+1,w
  1264  074C  3E30               	addlw	48
  1265  074D  120A  158A  22D8  120A  118A  	fcall	_dispCHAR
  1266  0752                     l2676:
  1267                           
  1268                           ;main.c: 115:         dispCHAR(disp2[0]+48);
  1269  0752  1283               	bcf	3,5	;RP0=0, select bank0
  1270  0753  1303               	bcf	3,6	;RP1=0, select bank0
  1271  0754  0867               	movf	_disp2,w
  1272  0755  3E30               	addlw	48
  1273  0756  120A  158A  22D8  120A  118A  	fcall	_dispCHAR
  1274  075B                     l2678:
  1275                           
  1276                           ;main.c: 116:         cursorLCD(2,12);
  1277  075B  300C               	movlw	12
  1278  075C  1283               	bcf	3,5	;RP0=0, select bank0
  1279  075D  1303               	bcf	3,6	;RP1=0, select bank0
  1280  075E  00DC               	movwf	??_main
  1281  075F  085C               	movf	??_main,w
  1282  0760  00F5               	movwf	cursorLCD@columna
  1283  0761  3002               	movlw	2
  1284  0762  120A  158A  233C  120A  118A  	fcall	_cursorLCD
  1285  0767                     l2680:
  1286                           
  1287                           ;main.c: 117:         if(DatS3<=128) dispCHAR(disp3[2]+48);
  1288  0767  3081               	movlw	129
  1289  0768  027A               	subwf	_DatS3,w
  1290  0769  1803               	skipnc
  1291  076A  2F6C               	goto	u3431
  1292  076B  2F6D               	goto	u3430
  1293  076C                     u3431:
  1294  076C  2F77               	goto	l2684
  1295  076D                     u3430:
  1296  076D                     l2682:
  1297  076D  1283               	bcf	3,5	;RP0=0, select bank0
  1298  076E  1303               	bcf	3,6	;RP1=0, select bank0
  1299  076F  0866               	movf	_disp3+2,w
  1300  0770  3E30               	addlw	48
  1301  0771  120A  158A  22D8  120A  118A  	fcall	_dispCHAR
  1302  0776  2F7F               	goto	l80
  1303  0777                     l2684:
  1304  0777  1283               	bcf	3,5	;RP0=0, select bank0
  1305  0778  1303               	bcf	3,6	;RP1=0, select bank0
  1306  0779  0866               	movf	_disp3+2,w
  1307  077A  120A  158A  22D8  120A  118A  	fcall	_dispCHAR
  1308  077F                     l80:
  1309                           
  1310                           ;main.c: 119:         dispCHAR(disp3[1]+48);
  1311  077F  1283               	bcf	3,5	;RP0=0, select bank0
  1312  0780  1303               	bcf	3,6	;RP1=0, select bank0
  1313  0781  0865               	movf	_disp3+1,w
  1314  0782  3E30               	addlw	48
  1315  0783  120A  158A  22D8  120A  118A  	fcall	_dispCHAR
  1316                           
  1317                           ;main.c: 120:         dispCHAR(disp3[0]+48);
  1318  0788  1283               	bcf	3,5	;RP0=0, select bank0
  1319  0789  1303               	bcf	3,6	;RP1=0, select bank0
  1320  078A  0864               	movf	_disp3,w
  1321  078B  3E30               	addlw	48
  1322  078C  120A  158A  22D8  120A  118A  	fcall	_dispCHAR
  1323                           
  1324                           ;main.c: 121:         dispCHAR(223);
  1325  0791  30DF               	movlw	223
  1326  0792  120A  158A  22D8  120A  118A  	fcall	_dispCHAR
  1327                           
  1328                           ;main.c: 122:         dispCHAR('C');
  1329  0797  3043               	movlw	67
  1330  0798  120A  158A  22D8  120A  118A  	fcall	_dispCHAR
  1331  079D  2E45               	goto	l78
  1332  079E  120A  118A  280C   	ljmp	start
  1333  07A1                     __end_of_main:
  1334                           
  1335                           	psect	text1
  1336  07A1                     __ptext1:	
  1337 ;; *************** function _initLCD *****************
  1338 ;; Defined at:
  1339 ;;		line 20 in file "LCDD2.c"
  1340 ;; Parameters:    Size  Location     Type
  1341 ;;		None
  1342 ;; Auto vars:     Size  Location     Type
  1343 ;;		None
  1344 ;; Return value:  Size  Location     Type
  1345 ;;                  1    wreg      void 
  1346 ;; Registers used:
  1347 ;;		wreg, status,2, status,0, pclath, cstack
  1348 ;; Tracked objects:
  1349 ;;		On entry : 0/0
  1350 ;;		On exit  : 0/0
  1351 ;;		Unchanged: 0/0
  1352 ;; Data sizes:     COMMON   BANK0   BANK1   BANK3   BANK2
  1353 ;;      Params:         0       0       0       0       0
  1354 ;;      Locals:         0       0       0       0       0
  1355 ;;      Temps:          2       0       0       0       0
  1356 ;;      Totals:         2       0       0       0       0
  1357 ;;Total ram usage:        2 bytes
  1358 ;; Hardware stack levels used:    1
  1359 ;; Hardware stack levels required when called:    2
  1360 ;; This function calls:
  1361 ;;		_comandoLCD
  1362 ;; This function is called by:
  1363 ;;		_main
  1364 ;; This function uses a non-reentrant model
  1365 ;;
  1366                           
  1367                           
  1368                           ;psect for function _initLCD
  1369  07A1                     _initLCD:
  1370  07A1                     l2136:	
  1371                           ;incstack = 0
  1372                           ; Regs used in _initLCD: [wreg+status,2+status,0+pclath+cstack]
  1373                           
  1374                           
  1375                           ;LCDD2.c: 21:     RE0 = 0;
  1376  07A1  1283               	bcf	3,5	;RP0=0, select bank0
  1377  07A2  1303               	bcf	3,6	;RP1=0, select bank0
  1378  07A3  1009               	bcf	9,0	;volatile
  1379  07A4                     l2138:
  1380                           
  1381                           ;LCDD2.c: 22:     PORTD = 0X00;
  1382  07A4  0188               	clrf	8	;volatile
  1383  07A5                     l2140:
  1384                           
  1385                           ;LCDD2.c: 23:     _delay((unsigned long)((50)*(8000000/4000.0)));
  1386  07A5  3082               	movlw	130
  1387  07A6  00F6               	movwf	??_initLCD+1
  1388  07A7  30DD               	movlw	221
  1389  07A8  00F5               	movwf	??_initLCD
  1390  07A9                     u3447:
  1391  07A9  0BF5               	decfsz	??_initLCD,f
  1392  07AA  2FA9               	goto	u3447
  1393  07AB  0BF6               	decfsz	??_initLCD+1,f
  1394  07AC  2FA9               	goto	u3447
  1395  07AD  2FAE               	nop2
  1396  07AE                     l2142:
  1397                           
  1398                           ;LCDD2.c: 24:     comandoLCD(0X30);
  1399  07AE  3030               	movlw	48
  1400  07AF  120A  158A  22E8  120A  118A  	fcall	_comandoLCD
  1401  07B4                     l2144:
  1402                           
  1403                           ;LCDD2.c: 25:     _delay((unsigned long)((5)*(8000000/4000.0)));
  1404  07B4  300D               	movlw	13
  1405  07B5  00F6               	movwf	??_initLCD+1
  1406  07B6  30FB               	movlw	251
  1407  07B7  00F5               	movwf	??_initLCD
  1408  07B8                     u3457:
  1409  07B8  0BF5               	decfsz	??_initLCD,f
  1410  07B9  2FB8               	goto	u3457
  1411  07BA  0BF6               	decfsz	??_initLCD+1,f
  1412  07BB  2FB8               	goto	u3457
  1413  07BC  2FBD               	nop2
  1414  07BD                     l2146:
  1415                           
  1416                           ;LCDD2.c: 26:     comandoLCD(0X30);
  1417  07BD  3030               	movlw	48
  1418  07BE  120A  158A  22E8  120A  118A  	fcall	_comandoLCD
  1419  07C3                     l2148:
  1420                           
  1421                           ;LCDD2.c: 27:     _delay((unsigned long)((5)*(8000000/4000.0)));
  1422  07C3  300D               	movlw	13
  1423  07C4  00F6               	movwf	??_initLCD+1
  1424  07C5  30FB               	movlw	251
  1425  07C6  00F5               	movwf	??_initLCD
  1426  07C7                     u3467:
  1427  07C7  0BF5               	decfsz	??_initLCD,f
  1428  07C8  2FC7               	goto	u3467
  1429  07C9  0BF6               	decfsz	??_initLCD+1,f
  1430  07CA  2FC7               	goto	u3467
  1431  07CB  2FCC               	nop2
  1432  07CC                     l2150:
  1433                           
  1434                           ;LCDD2.c: 28:     comandoLCD(0X30);
  1435  07CC  3030               	movlw	48
  1436  07CD  120A  158A  22E8  120A  118A  	fcall	_comandoLCD
  1437  07D2                     l2152:
  1438                           
  1439                           ;LCDD2.c: 29:     comandoLCD(0X38);
  1440  07D2  3038               	movlw	56
  1441  07D3  120A  158A  22E8  120A  118A  	fcall	_comandoLCD
  1442  07D8                     l2154:
  1443                           
  1444                           ;LCDD2.c: 30:     comandoLCD(0X06);
  1445  07D8  3006               	movlw	6
  1446  07D9  120A  158A  22E8  120A  118A  	fcall	_comandoLCD
  1447  07DE                     l2156:
  1448                           
  1449                           ;LCDD2.c: 31:     comandoLCD(0X0C);
  1450  07DE  300C               	movlw	12
  1451  07DF  120A  158A  22E8  120A  118A  	fcall	_comandoLCD
  1452  07E4                     l2158:
  1453                           
  1454                           ;LCDD2.c: 32:     comandoLCD(0X01);
  1455  07E4  3001               	movlw	1
  1456  07E5  120A  158A  22E8  120A  118A  	fcall	_comandoLCD
  1457  07EA                     l166:
  1458  07EA  0008               	return
  1459  07EB                     __end_of_initLCD:
  1460                           
  1461                           	psect	text2
  1462  0C7E                     __ptext2:	
  1463 ;; *************** function _hexTocharNEG *****************
  1464 ;; Defined at:
  1465 ;;		line 196 in file "main.c"
  1466 ;; Parameters:    Size  Location     Type
  1467 ;;  valor           1    wreg     unsigned char 
  1468 ;;  conv            1    9[BANK0 ] PTR unsigned char 
  1469 ;;		 -> disp3(3), 
  1470 ;; Auto vars:     Size  Location     Type
  1471 ;;  valor           1   14[BANK0 ] unsigned char 
  1472 ;;  decena          1   17[BANK0 ] unsigned char 
  1473 ;;  unidad          1   16[BANK0 ] unsigned char 
  1474 ;;  centena         1   15[BANK0 ] unsigned char 
  1475 ;;  temporal        1   13[BANK0 ] unsigned char 
  1476 ;; Return value:  Size  Location     Type
  1477 ;;                  1    wreg      void 
  1478 ;; Registers used:
  1479 ;;		wreg, fsr0l, fsr0h, status,2, status,0, pclath, cstack
  1480 ;; Tracked objects:
  1481 ;;		On entry : 0/0
  1482 ;;		On exit  : 0/0
  1483 ;;		Unchanged: 0/0
  1484 ;; Data sizes:     COMMON   BANK0   BANK1   BANK3   BANK2
  1485 ;;      Params:         0       1       0       0       0
  1486 ;;      Locals:         0       5       0       0       0
  1487 ;;      Temps:          0       3       0       0       0
  1488 ;;      Totals:         0       9       0       0       0
  1489 ;;Total ram usage:        9 bytes
  1490 ;; Hardware stack levels used:    1
  1491 ;; Hardware stack levels required when called:    3
  1492 ;; This function calls:
  1493 ;;		_divisiondecimal
  1494 ;; This function is called by:
  1495 ;;		_main
  1496 ;; This function uses a non-reentrant model
  1497 ;;
  1498                           
  1499                           
  1500                           ;psect for function _hexTocharNEG
  1501  0C7E                     _hexTocharNEG:
  1502                           
  1503                           ;incstack = 0
  1504                           ; Regs used in _hexTocharNEG: [wreg-fsr0h+status,2+status,0+pclath+cstack]
  1505                           ;hexTocharNEG@valor stored from wreg
  1506  0C7E  1283               	bcf	3,5	;RP0=0, select bank0
  1507  0C7F  1303               	bcf	3,6	;RP1=0, select bank0
  1508  0C80  00AE               	movwf	hexTocharNEG@valor
  1509  0C81                     l2604:
  1510                           
  1511                           ;main.c: 200:     uint8_t centena;;main.c: 201:     uint8_t decena;;main.c: 202:     uin
      +                          t8_t unidad;;main.c: 203:     uint8_t temporal;;main.c: 204:     if(valor <= 128){
  1512  0C81  3081               	movlw	129
  1513  0C82  022E               	subwf	hexTocharNEG@valor,w
  1514  0C83  1803               	skipnc
  1515  0C84  2C86               	goto	u3421
  1516  0C85  2C87               	goto	u3420
  1517  0C86                     u3421:
  1518  0C86  2CB0               	goto	l2614
  1519  0C87                     u3420:
  1520  0C87                     l2606:
  1521                           
  1522                           ;main.c: 205:         divisiondecimal(valor,&unidad,&decena,&centena);
  1523  0C87  3030               	movlw	(low (hexTocharNEG@unidad| 0))& (0+255)
  1524  0C88  00AA               	movwf	??_hexTocharNEG
  1525  0C89  082A               	movf	??_hexTocharNEG,w
  1526  0C8A  00A4               	movwf	divisiondecimal@un
  1527  0C8B  3031               	movlw	(low (hexTocharNEG@decena| 0))& (0+255)
  1528  0C8C  00AB               	movwf	??_hexTocharNEG+1
  1529  0C8D  082B               	movf	??_hexTocharNEG+1,w
  1530  0C8E  00A5               	movwf	divisiondecimal@dec
  1531  0C8F  302F               	movlw	(low (hexTocharNEG@centena| 0))& (0+255)
  1532  0C90  00AC               	movwf	??_hexTocharNEG+2
  1533  0C91  082C               	movf	??_hexTocharNEG+2,w
  1534  0C92  00A6               	movwf	divisiondecimal@cent
  1535  0C93  082E               	movf	hexTocharNEG@valor,w
  1536  0C94  120A  158A  262B  120A  158A  	fcall	_divisiondecimal
  1537  0C99                     l2608:
  1538                           
  1539                           ;main.c: 206:         conv[0]= unidad;
  1540  0C99  1283               	bcf	3,5	;RP0=0, select bank0
  1541  0C9A  1303               	bcf	3,6	;RP1=0, select bank0
  1542  0C9B  0830               	movf	hexTocharNEG@unidad,w
  1543  0C9C  00AA               	movwf	??_hexTocharNEG
  1544  0C9D  0829               	movf	hexTocharNEG@conv,w
  1545  0C9E  0084               	movwf	4
  1546  0C9F  082A               	movf	??_hexTocharNEG,w
  1547  0CA0  1383               	bcf	3,7	;select IRP bank0
  1548  0CA1  0080               	movwf	0
  1549  0CA2                     l2610:
  1550                           
  1551                           ;main.c: 207:         conv[1]= decena;
  1552  0CA2  0831               	movf	hexTocharNEG@decena,w
  1553  0CA3  00AA               	movwf	??_hexTocharNEG
  1554  0CA4  0A29               	incf	hexTocharNEG@conv,w
  1555  0CA5  0084               	movwf	4
  1556  0CA6  082A               	movf	??_hexTocharNEG,w
  1557  0CA7  0080               	movwf	0
  1558  0CA8                     l2612:
  1559                           
  1560                           ;main.c: 208:         conv[2]= centena;
  1561  0CA8  082F               	movf	hexTocharNEG@centena,w
  1562  0CA9  00AA               	movwf	??_hexTocharNEG
  1563  0CAA  0829               	movf	hexTocharNEG@conv,w
  1564  0CAB  3E02               	addlw	2
  1565  0CAC  0084               	movwf	4
  1566  0CAD  082A               	movf	??_hexTocharNEG,w
  1567  0CAE  0080               	movwf	0
  1568                           
  1569                           ;main.c: 209:     }
  1570  0CAF  2CDD               	goto	l103
  1571  0CB0                     l2614:
  1572                           
  1573                           ;main.c: 211:         temporal = 256 - valor;
  1574  0CB0  082E               	movf	hexTocharNEG@valor,w
  1575  0CB1  3C00               	sublw	0
  1576  0CB2  00AA               	movwf	??_hexTocharNEG
  1577  0CB3  082A               	movf	??_hexTocharNEG,w
  1578  0CB4  00AD               	movwf	hexTocharNEG@temporal
  1579  0CB5                     l2616:
  1580                           
  1581                           ;main.c: 212:         divisiondecimal(temporal,&unidad,&decena,&centena);
  1582  0CB5  3030               	movlw	(low (hexTocharNEG@unidad| 0))& (0+255)
  1583  0CB6  00AA               	movwf	??_hexTocharNEG
  1584  0CB7  082A               	movf	??_hexTocharNEG,w
  1585  0CB8  00A4               	movwf	divisiondecimal@un
  1586  0CB9  3031               	movlw	(low (hexTocharNEG@decena| 0))& (0+255)
  1587  0CBA  00AB               	movwf	??_hexTocharNEG+1
  1588  0CBB  082B               	movf	??_hexTocharNEG+1,w
  1589  0CBC  00A5               	movwf	divisiondecimal@dec
  1590  0CBD  302F               	movlw	(low (hexTocharNEG@centena| 0))& (0+255)
  1591  0CBE  00AC               	movwf	??_hexTocharNEG+2
  1592  0CBF  082C               	movf	??_hexTocharNEG+2,w
  1593  0CC0  00A6               	movwf	divisiondecimal@cent
  1594  0CC1  082D               	movf	hexTocharNEG@temporal,w
  1595  0CC2  120A  158A  262B  120A  158A  	fcall	_divisiondecimal
  1596  0CC7                     l2618:
  1597                           
  1598                           ;main.c: 213:         conv[0]= unidad;
  1599  0CC7  1283               	bcf	3,5	;RP0=0, select bank0
  1600  0CC8  1303               	bcf	3,6	;RP1=0, select bank0
  1601  0CC9  0830               	movf	hexTocharNEG@unidad,w
  1602  0CCA  00AA               	movwf	??_hexTocharNEG
  1603  0CCB  0829               	movf	hexTocharNEG@conv,w
  1604  0CCC  0084               	movwf	4
  1605  0CCD  082A               	movf	??_hexTocharNEG,w
  1606  0CCE  1383               	bcf	3,7	;select IRP bank0
  1607  0CCF  0080               	movwf	0
  1608  0CD0                     l2620:
  1609                           
  1610                           ;main.c: 214:         conv[1]= decena;
  1611  0CD0  0831               	movf	hexTocharNEG@decena,w
  1612  0CD1  00AA               	movwf	??_hexTocharNEG
  1613  0CD2  0A29               	incf	hexTocharNEG@conv,w
  1614  0CD3  0084               	movwf	4
  1615  0CD4  082A               	movf	??_hexTocharNEG,w
  1616  0CD5  0080               	movwf	0
  1617  0CD6                     l2622:
  1618                           
  1619                           ;main.c: 215:         conv[2]= '-';
  1620  0CD6  302D               	movlw	45
  1621  0CD7  00AA               	movwf	??_hexTocharNEG
  1622  0CD8  0829               	movf	hexTocharNEG@conv,w
  1623  0CD9  3E02               	addlw	2
  1624  0CDA  0084               	movwf	4
  1625  0CDB  082A               	movf	??_hexTocharNEG,w
  1626  0CDC  0080               	movwf	0
  1627  0CDD                     l103:
  1628  0CDD  0008               	return
  1629  0CDE                     __end_of_hexTocharNEG:
  1630                           
  1631                           	psect	text3
  1632  0BD1                     __ptext3:	
  1633 ;; *************** function _hexTochar *****************
  1634 ;; Defined at:
  1635 ;;		line 184 in file "main.c"
  1636 ;; Parameters:    Size  Location     Type
  1637 ;;  valor           1    wreg     unsigned char 
  1638 ;;  conv            1    9[BANK0 ] PTR unsigned char 
  1639 ;;		 -> disp2(3), 
  1640 ;; Auto vars:     Size  Location     Type
  1641 ;;  valor           1   13[BANK0 ] unsigned char 
  1642 ;;  decena          1   16[BANK0 ] unsigned char 
  1643 ;;  centena         1   15[BANK0 ] unsigned char 
  1644 ;;  unidad          1   14[BANK0 ] unsigned char 
  1645 ;; Return value:  Size  Location     Type
  1646 ;;                  1    wreg      void 
  1647 ;; Registers used:
  1648 ;;		wreg, fsr0l, fsr0h, status,2, status,0, pclath, cstack
  1649 ;; Tracked objects:
  1650 ;;		On entry : 0/0
  1651 ;;		On exit  : 0/0
  1652 ;;		Unchanged: 0/0
  1653 ;; Data sizes:     COMMON   BANK0   BANK1   BANK3   BANK2
  1654 ;;      Params:         0       1       0       0       0
  1655 ;;      Locals:         0       4       0       0       0
  1656 ;;      Temps:          0       3       0       0       0
  1657 ;;      Totals:         0       8       0       0       0
  1658 ;;Total ram usage:        8 bytes
  1659 ;; Hardware stack levels used:    1
  1660 ;; Hardware stack levels required when called:    3
  1661 ;; This function calls:
  1662 ;;		_divisiondecimal
  1663 ;; This function is called by:
  1664 ;;		_main
  1665 ;; This function uses a non-reentrant model
  1666 ;;
  1667                           
  1668                           
  1669                           ;psect for function _hexTochar
  1670  0BD1                     _hexTochar:
  1671                           
  1672                           ;incstack = 0
  1673                           ; Regs used in _hexTochar: [wreg-fsr0h+status,2+status,0+pclath+cstack]
  1674                           ;hexTochar@valor stored from wreg
  1675  0BD1  1283               	bcf	3,5	;RP0=0, select bank0
  1676  0BD2  1303               	bcf	3,6	;RP1=0, select bank0
  1677  0BD3  00AD               	movwf	hexTochar@valor
  1678  0BD4                     l2596:
  1679                           
  1680                           ;main.c: 185:     uint8_t centena;;main.c: 186:     uint8_t decena;;main.c: 187:     uin
      +                          t8_t unidad;;main.c: 189:     divisiondecimal(valor,&unidad,&decena,&centena);
  1681  0BD4  302E               	movlw	(low (hexTochar@unidad| 0))& (0+255)
  1682  0BD5  00AA               	movwf	??_hexTochar
  1683  0BD6  082A               	movf	??_hexTochar,w
  1684  0BD7  00A4               	movwf	divisiondecimal@un
  1685  0BD8  3030               	movlw	(low (hexTochar@decena| 0))& (0+255)
  1686  0BD9  00AB               	movwf	??_hexTochar+1
  1687  0BDA  082B               	movf	??_hexTochar+1,w
  1688  0BDB  00A5               	movwf	divisiondecimal@dec
  1689  0BDC  302F               	movlw	(low (hexTochar@centena| 0))& (0+255)
  1690  0BDD  00AC               	movwf	??_hexTochar+2
  1691  0BDE  082C               	movf	??_hexTochar+2,w
  1692  0BDF  00A6               	movwf	divisiondecimal@cent
  1693  0BE0  082D               	movf	hexTochar@valor,w
  1694  0BE1  120A  158A  262B  120A  158A  	fcall	_divisiondecimal
  1695  0BE6                     l2598:
  1696                           
  1697                           ;main.c: 190:     conv[0]= unidad;
  1698  0BE6  1283               	bcf	3,5	;RP0=0, select bank0
  1699  0BE7  1303               	bcf	3,6	;RP1=0, select bank0
  1700  0BE8  082E               	movf	hexTochar@unidad,w
  1701  0BE9  00AA               	movwf	??_hexTochar
  1702  0BEA  0829               	movf	hexTochar@conv,w
  1703  0BEB  0084               	movwf	4
  1704  0BEC  082A               	movf	??_hexTochar,w
  1705  0BED  1383               	bcf	3,7	;select IRP bank0
  1706  0BEE  0080               	movwf	0
  1707  0BEF                     l2600:
  1708                           
  1709                           ;main.c: 191:     conv[1]= decena;
  1710  0BEF  0830               	movf	hexTochar@decena,w
  1711  0BF0  00AA               	movwf	??_hexTochar
  1712  0BF1  0A29               	incf	hexTochar@conv,w
  1713  0BF2  0084               	movwf	4
  1714  0BF3  082A               	movf	??_hexTochar,w
  1715  0BF4  0080               	movwf	0
  1716  0BF5                     l2602:
  1717                           
  1718                           ;main.c: 192:     conv[2]= centena;
  1719  0BF5  082F               	movf	hexTochar@centena,w
  1720  0BF6  00AA               	movwf	??_hexTochar
  1721  0BF7  0829               	movf	hexTochar@conv,w
  1722  0BF8  3E02               	addlw	2
  1723  0BF9  0084               	movwf	4
  1724  0BFA  082A               	movf	??_hexTochar,w
  1725  0BFB  0080               	movwf	0
  1726  0BFC                     l98:
  1727  0BFC  0008               	return
  1728  0BFD                     __end_of_hexTochar:
  1729                           
  1730                           	psect	text4
  1731  0E2B                     __ptext4:	
  1732 ;; *************** function _divisiondecimal *****************
  1733 ;; Defined at:
  1734 ;;		line 220 in file "main.c"
  1735 ;; Parameters:    Size  Location     Type
  1736 ;;  conteo          1    wreg     unsigned char 
  1737 ;;  un              1    4[BANK0 ] PTR unsigned char 
  1738 ;;		 -> hexTocharNEG@unidad(1), hexTochar@unidad(1), 
  1739 ;;  dec             1    5[BANK0 ] PTR unsigned char 
  1740 ;;		 -> hexTocharNEG@decena(1), hexTochar@decena(1), 
  1741 ;;  cent            1    6[BANK0 ] PTR unsigned char 
  1742 ;;		 -> hexTocharNEG@centena(1), hexTochar@centena(1), 
  1743 ;; Auto vars:     Size  Location     Type
  1744 ;;  conteo          1    7[BANK0 ] unsigned char 
  1745 ;;  div             1    8[BANK0 ] unsigned char 
  1746 ;; Return value:  Size  Location     Type
  1747 ;;                  1    wreg      void 
  1748 ;; Registers used:
  1749 ;;		wreg, fsr0l, fsr0h, status,2, status,0, pclath, cstack
  1750 ;; Tracked objects:
  1751 ;;		On entry : 0/0
  1752 ;;		On exit  : 0/0
  1753 ;;		Unchanged: 0/0
  1754 ;; Data sizes:     COMMON   BANK0   BANK1   BANK3   BANK2
  1755 ;;      Params:         0       3       0       0       0
  1756 ;;      Locals:         0       2       0       0       0
  1757 ;;      Temps:          3       0       0       0       0
  1758 ;;      Totals:         3       5       0       0       0
  1759 ;;Total ram usage:        8 bytes
  1760 ;; Hardware stack levels used:    1
  1761 ;; Hardware stack levels required when called:    2
  1762 ;; This function calls:
  1763 ;;		___awdiv
  1764 ;;		___bmul
  1765 ;; This function is called by:
  1766 ;;		_hexTochar
  1767 ;;		_hexTocharNEG
  1768 ;; This function uses a non-reentrant model
  1769 ;;
  1770                           
  1771                           
  1772                           ;psect for function _divisiondecimal
  1773  0E2B                     _divisiondecimal:
  1774                           
  1775                           ;incstack = 0
  1776                           ; Regs used in _divisiondecimal: [wreg-fsr0h+status,2+status,0+pclath+cstack]
  1777                           ;divisiondecimal@conteo stored from wreg
  1778  0E2B  1283               	bcf	3,5	;RP0=0, select bank0
  1779  0E2C  1303               	bcf	3,6	;RP1=0, select bank0
  1780  0E2D  00A7               	movwf	divisiondecimal@conteo
  1781  0E2E                     l2418:
  1782                           
  1783                           ;main.c: 221:     uint8_t div = conteo;
  1784  0E2E  0827               	movf	divisiondecimal@conteo,w
  1785  0E2F  00F7               	movwf	??_divisiondecimal
  1786  0E30  0877               	movf	??_divisiondecimal,w
  1787  0E31  00A8               	movwf	divisiondecimal@div
  1788  0E32                     l2420:
  1789                           
  1790                           ;main.c: 222:     *un = 0;
  1791  0E32  0824               	movf	divisiondecimal@un,w
  1792  0E33  0084               	movwf	4
  1793  0E34  1383               	bcf	3,7	;select IRP bank0
  1794  0E35  0180               	clrf	0
  1795  0E36                     l2422:
  1796                           
  1797                           ;main.c: 223:     *dec = 0;
  1798  0E36  0825               	movf	divisiondecimal@dec,w
  1799  0E37  0084               	movwf	4
  1800  0E38  0180               	clrf	0
  1801  0E39                     l2424:
  1802                           
  1803                           ;main.c: 224:     *cent = 0;
  1804  0E39  0826               	movf	divisiondecimal@cent,w
  1805  0E3A  0084               	movwf	4
  1806  0E3B  0180               	clrf	0
  1807                           
  1808                           ;main.c: 227:     while(div >= 100){
  1809  0E3C  2E68               	goto	l2428
  1810  0E3D                     l2426:
  1811                           
  1812                           ;main.c: 228:     *cent = div/100;
  1813  0E3D  3064               	movlw	100
  1814  0E3E  00F2               	movwf	___awdiv@divisor
  1815  0E3F  3000               	movlw	0
  1816  0E40  00F3               	movwf	___awdiv@divisor+1
  1817  0E41  0828               	movf	divisiondecimal@div,w
  1818  0E42  00F7               	movwf	??_divisiondecimal
  1819  0E43  01F8               	clrf	??_divisiondecimal+1
  1820  0E44  0877               	movf	??_divisiondecimal,w
  1821  0E45  00F4               	movwf	___awdiv@dividend
  1822  0E46  0878               	movf	??_divisiondecimal+1,w
  1823  0E47  00F5               	movwf	___awdiv@dividend+1
  1824  0E48  120A  158A  2546  120A  158A  	fcall	___awdiv
  1825  0E4D  0872               	movf	?___awdiv,w
  1826  0E4E  00F9               	movwf	??_divisiondecimal+2
  1827  0E4F  1283               	bcf	3,5	;RP0=0, select bank0
  1828  0E50  1303               	bcf	3,6	;RP1=0, select bank0
  1829  0E51  0826               	movf	divisiondecimal@cent,w
  1830  0E52  0084               	movwf	4
  1831  0E53  0879               	movf	??_divisiondecimal+2,w
  1832  0E54  1383               	bcf	3,7	;select IRP bank0
  1833  0E55  0080               	movwf	0
  1834                           
  1835                           ;main.c: 229:     div = div - (*cent)*(100);
  1836  0E56  309C               	movlw	156
  1837  0E57  00F7               	movwf	??_divisiondecimal
  1838  0E58  0877               	movf	??_divisiondecimal,w
  1839  0E59  00F2               	movwf	___bmul@multiplicand
  1840  0E5A  0826               	movf	divisiondecimal@cent,w
  1841  0E5B  0084               	movwf	4
  1842  0E5C  0800               	movf	0,w
  1843  0E5D  120A  118A  27EB  120A  158A  	fcall	___bmul
  1844  0E62  1283               	bcf	3,5	;RP0=0, select bank0
  1845  0E63  1303               	bcf	3,6	;RP1=0, select bank0
  1846  0E64  0728               	addwf	divisiondecimal@div,w
  1847  0E65  00F8               	movwf	??_divisiondecimal+1
  1848  0E66  0878               	movf	??_divisiondecimal+1,w
  1849  0E67  00A8               	movwf	divisiondecimal@div
  1850  0E68                     l2428:
  1851                           
  1852                           ;main.c: 227:     while(div >= 100){
  1853  0E68  3064               	movlw	100
  1854  0E69  0228               	subwf	divisiondecimal@div,w
  1855  0E6A  1803               	skipnc
  1856  0E6B  2E6D               	goto	u3031
  1857  0E6C  2E6E               	goto	u3030
  1858  0E6D                     u3031:
  1859  0E6D  2E3D               	goto	l2426
  1860  0E6E                     u3030:
  1861  0E6E  2E9A               	goto	l2432
  1862  0E6F                     l2430:
  1863                           
  1864                           ;main.c: 233:     *dec = div/10;
  1865  0E6F  300A               	movlw	10
  1866  0E70  00F2               	movwf	___awdiv@divisor
  1867  0E71  3000               	movlw	0
  1868  0E72  00F3               	movwf	___awdiv@divisor+1
  1869  0E73  0828               	movf	divisiondecimal@div,w
  1870  0E74  00F7               	movwf	??_divisiondecimal
  1871  0E75  01F8               	clrf	??_divisiondecimal+1
  1872  0E76  0877               	movf	??_divisiondecimal,w
  1873  0E77  00F4               	movwf	___awdiv@dividend
  1874  0E78  0878               	movf	??_divisiondecimal+1,w
  1875  0E79  00F5               	movwf	___awdiv@dividend+1
  1876  0E7A  120A  158A  2546  120A  158A  	fcall	___awdiv
  1877  0E7F  0872               	movf	?___awdiv,w
  1878  0E80  00F9               	movwf	??_divisiondecimal+2
  1879  0E81  1283               	bcf	3,5	;RP0=0, select bank0
  1880  0E82  1303               	bcf	3,6	;RP1=0, select bank0
  1881  0E83  0825               	movf	divisiondecimal@dec,w
  1882  0E84  0084               	movwf	4
  1883  0E85  0879               	movf	??_divisiondecimal+2,w
  1884  0E86  1383               	bcf	3,7	;select IRP bank0
  1885  0E87  0080               	movwf	0
  1886                           
  1887                           ;main.c: 234:     div = div - (*dec)*(10);
  1888  0E88  30F6               	movlw	246
  1889  0E89  00F7               	movwf	??_divisiondecimal
  1890  0E8A  0877               	movf	??_divisiondecimal,w
  1891  0E8B  00F2               	movwf	___bmul@multiplicand
  1892  0E8C  0825               	movf	divisiondecimal@dec,w
  1893  0E8D  0084               	movwf	4
  1894  0E8E  0800               	movf	0,w
  1895  0E8F  120A  118A  27EB  120A  158A  	fcall	___bmul
  1896  0E94  1283               	bcf	3,5	;RP0=0, select bank0
  1897  0E95  1303               	bcf	3,6	;RP1=0, select bank0
  1898  0E96  0728               	addwf	divisiondecimal@div,w
  1899  0E97  00F8               	movwf	??_divisiondecimal+1
  1900  0E98  0878               	movf	??_divisiondecimal+1,w
  1901  0E99  00A8               	movwf	divisiondecimal@div
  1902  0E9A                     l2432:
  1903                           
  1904                           ;main.c: 232:     while (div >= 10){
  1905  0E9A  300A               	movlw	10
  1906  0E9B  0228               	subwf	divisiondecimal@div,w
  1907  0E9C  1803               	skipnc
  1908  0E9D  2E9F               	goto	u3041
  1909  0E9E  2EA0               	goto	u3040
  1910  0E9F                     u3041:
  1911  0E9F  2E6F               	goto	l2430
  1912  0EA0                     u3040:
  1913  0EA0                     l2434:
  1914                           
  1915                           ;main.c: 237:     *un = div;
  1916  0EA0  0828               	movf	divisiondecimal@div,w
  1917  0EA1  00F7               	movwf	??_divisiondecimal
  1918  0EA2  0824               	movf	divisiondecimal@un,w
  1919  0EA3  0084               	movwf	4
  1920  0EA4  0877               	movf	??_divisiondecimal,w
  1921  0EA5  1383               	bcf	3,7	;select IRP bank0
  1922  0EA6  0080               	movwf	0
  1923  0EA7                     l112:
  1924  0EA7  0008               	return
  1925  0EA8                     __end_of_divisiondecimal:
  1926                           
  1927                           	psect	text5
  1928  0EA8                     __ptext5:	
  1929 ;; *************** function _floTochar *****************
  1930 ;; Defined at:
  1931 ;;		line 148 in file "main.c"
  1932 ;; Parameters:    Size  Location     Type
  1933 ;;  valor           4   43[BANK0 ] const float 
  1934 ;;  conv            1   47[BANK0 ] PTR unsigned char 
  1935 ;;		 -> disp1(3), 
  1936 ;; Auto vars:     Size  Location     Type
  1937 ;;  temp            4   52[BANK0 ] float 
  1938 ;;  digdecimal      2   58[BANK0 ] unsigned char [2]
  1939 ;;  entero          1   57[BANK0 ] unsigned char 
  1940 ;;  decimal         1   56[BANK0 ] unsigned char 
  1941 ;; Return value:  Size  Location     Type
  1942 ;;                  1    wreg      void 
  1943 ;; Registers used:
  1944 ;;		wreg, fsr0l, fsr0h, status,2, status,0, btemp+1, pclath, cstack
  1945 ;; Tracked objects:
  1946 ;;		On entry : 0/0
  1947 ;;		On exit  : 0/0
  1948 ;;		Unchanged: 0/0
  1949 ;; Data sizes:     COMMON   BANK0   BANK1   BANK3   BANK2
  1950 ;;      Params:         0       5       0       0       0
  1951 ;;      Locals:         0       8       0       0       0
  1952 ;;      Temps:          0       4       0       0       0
  1953 ;;      Totals:         0      17       0       0       0
  1954 ;;Total ram usage:       17 bytes
  1955 ;; Hardware stack levels used:    1
  1956 ;; Hardware stack levels required when called:    3
  1957 ;; This function calls:
  1958 ;;		___flmul
  1959 ;;		___flsub
  1960 ;;		___fltol
  1961 ;;		___xxtofl
  1962 ;;		_division
  1963 ;; This function is called by:
  1964 ;;		_main
  1965 ;; This function uses a non-reentrant model
  1966 ;;
  1967                           
  1968                           
  1969                           ;psect for function _floTochar
  1970  0EA8                     _floTochar:
  1971  0EA8                     l2584:	
  1972                           ;incstack = 0
  1973                           ; Regs used in _floTochar: [wreg-fsr0h+status,2+status,0+btemp+1+pclath+cstack]
  1974                           
  1975                           
  1976                           ;main.c: 149:     uint8_t entero;;main.c: 150:     uint8_t decimal;;main.c: 151:     flo
      +                          at temp;;main.c: 152:     unsigned char digdecimal[2];;main.c: 158:     entero = valor;
  1977  0EA8  1283               	bcf	3,5	;RP0=0, select bank0
  1978  0EA9  1303               	bcf	3,6	;RP1=0, select bank0
  1979  0EAA  084E               	movf	floTochar@valor+3,w
  1980  0EAB  00C3               	movwf	___fltol@f1+3
  1981  0EAC  084D               	movf	floTochar@valor+2,w
  1982  0EAD  00C2               	movwf	___fltol@f1+2
  1983  0EAE  084C               	movf	floTochar@valor+1,w
  1984  0EAF  00C1               	movwf	___fltol@f1+1
  1985  0EB0  084B               	movf	floTochar@valor,w
  1986  0EB1  00C0               	movwf	___fltol@f1
  1987  0EB2  120A  158A  25AF  120A  158A  	fcall	___fltol
  1988  0EB7  1283               	bcf	3,5	;RP0=0, select bank0
  1989  0EB8  1303               	bcf	3,6	;RP1=0, select bank0
  1990  0EB9  0840               	movf	?___fltol,w
  1991  0EBA  00D0               	movwf	??_floTochar
  1992  0EBB  0850               	movf	??_floTochar,w
  1993  0EBC  00D9               	movwf	floTochar@entero
  1994  0EBD                     l2586:
  1995                           
  1996                           ;main.c: 159:     digdecimal[2] = entero;
  1997  0EBD  0859               	movf	floTochar@entero,w
  1998  0EBE  00D0               	movwf	??_floTochar
  1999  0EBF  0850               	movf	??_floTochar,w
  2000  0EC0  00DC               	movwf	floTochar@digdecimal+2
  2001  0EC1                     l2588:
  2002                           
  2003                           ;main.c: 160:     temp = valor-(float)entero;
  2004  0EC1  0859               	movf	floTochar@entero,w
  2005  0EC2  00D0               	movwf	??_floTochar
  2006  0EC3  01D1               	clrf	??_floTochar+1
  2007  0EC4  01D2               	clrf	??_floTochar+2
  2008  0EC5  01D3               	clrf	??_floTochar+3
  2009  0EC6  0853               	movf	??_floTochar+3,w
  2010  0EC7  00F5               	movwf	___xxtofl@val+3
  2011  0EC8  0852               	movf	??_floTochar+2,w
  2012  0EC9  00F4               	movwf	___xxtofl@val+2
  2013  0ECA  0851               	movf	??_floTochar+1,w
  2014  0ECB  00F3               	movwf	___xxtofl@val+1
  2015  0ECC  0850               	movf	??_floTochar,w
  2016  0ECD  00F2               	movwf	___xxtofl@val
  2017  0ECE  3000               	movlw	0
  2018  0ECF  120A  158A  2744  120A  158A  	fcall	___xxtofl
  2019  0ED4  0875               	movf	?___xxtofl+3,w
  2020  0ED5  1283               	bcf	3,5	;RP0=0, select bank0
  2021  0ED6  1303               	bcf	3,6	;RP1=0, select bank0
  2022  0ED7  00AF               	movwf	___flsub@a+3
  2023  0ED8  0874               	movf	?___xxtofl+2,w
  2024  0ED9  00AE               	movwf	___flsub@a+2
  2025  0EDA  0873               	movf	?___xxtofl+1,w
  2026  0EDB  00AD               	movwf	___flsub@a+1
  2027  0EDC  0872               	movf	?___xxtofl,w
  2028  0EDD  00AC               	movwf	___flsub@a
  2029  0EDE  084E               	movf	floTochar@valor+3,w
  2030  0EDF  00B3               	movwf	___flsub@b+3
  2031  0EE0  084D               	movf	floTochar@valor+2,w
  2032  0EE1  00B2               	movwf	___flsub@b+2
  2033  0EE2  084C               	movf	floTochar@valor+1,w
  2034  0EE3  00B1               	movwf	___flsub@b+1
  2035  0EE4  084B               	movf	floTochar@valor,w
  2036  0EE5  00B0               	movwf	___flsub@b
  2037  0EE6  120A  158A  235F  120A  158A  	fcall	___flsub
  2038  0EEB  1283               	bcf	3,5	;RP0=0, select bank0
  2039  0EEC  1303               	bcf	3,6	;RP1=0, select bank0
  2040  0EED  082F               	movf	?___flsub+3,w
  2041  0EEE  00D7               	movwf	floTochar@temp+3
  2042  0EEF  082E               	movf	?___flsub+2,w
  2043  0EF0  00D6               	movwf	floTochar@temp+2
  2044  0EF1  082D               	movf	?___flsub+1,w
  2045  0EF2  00D5               	movwf	floTochar@temp+1
  2046  0EF3  082C               	movf	?___flsub,w
  2047  0EF4  00D4               	movwf	floTochar@temp
  2048  0EF5                     l2590:
  2049                           
  2050                           ;main.c: 161:     decimal = (temp*100);
  2051  0EF5  0857               	movf	floTochar@temp+3,w
  2052  0EF6  00AD               	movwf	___flmul@a+3
  2053  0EF7  0856               	movf	floTochar@temp+2,w
  2054  0EF8  00AC               	movwf	___flmul@a+2
  2055  0EF9  0855               	movf	floTochar@temp+1,w
  2056  0EFA  00AB               	movwf	___flmul@a+1
  2057  0EFB  0854               	movf	floTochar@temp,w
  2058  0EFC  00AA               	movwf	___flmul@a
  2059  0EFD  3042               	movlw	66
  2060  0EFE  00A9               	movwf	___flmul@b+3
  2061  0EFF  30C8               	movlw	200
  2062  0F00  00A8               	movwf	___flmul@b+2
  2063  0F01  3000               	movlw	0
  2064  0F02  00A7               	movwf	___flmul@b+1
  2065  0F03  3000               	movlw	0
  2066  0F04  00A6               	movwf	___flmul@b
  2067  0F05  120A  118A  2025  120A  158A  	fcall	___flmul
  2068  0F0A  1283               	bcf	3,5	;RP0=0, select bank0
  2069  0F0B  1303               	bcf	3,6	;RP1=0, select bank0
  2070  0F0C  0829               	movf	?___flmul+3,w
  2071  0F0D  00C3               	movwf	___fltol@f1+3
  2072  0F0E  0828               	movf	?___flmul+2,w
  2073  0F0F  00C2               	movwf	___fltol@f1+2
  2074  0F10  0827               	movf	?___flmul+1,w
  2075  0F11  00C1               	movwf	___fltol@f1+1
  2076  0F12  0826               	movf	?___flmul,w
  2077  0F13  00C0               	movwf	___fltol@f1
  2078  0F14  120A  158A  25AF  120A  158A  	fcall	___fltol
  2079  0F19  1283               	bcf	3,5	;RP0=0, select bank0
  2080  0F1A  1303               	bcf	3,6	;RP1=0, select bank0
  2081  0F1B  0840               	movf	?___fltol,w
  2082  0F1C  00D0               	movwf	??_floTochar
  2083  0F1D  0850               	movf	??_floTochar,w
  2084  0F1E  00D8               	movwf	floTochar@decimal
  2085  0F1F                     l2592:
  2086                           
  2087                           ;main.c: 162:     division(decimal,&digdecimal[0],&digdecimal[1]);
  2088  0F1F  305A               	movlw	(low (floTochar@digdecimal| 0))& (0+255)
  2089  0F20  00D0               	movwf	??_floTochar
  2090  0F21  0850               	movf	??_floTochar,w
  2091  0F22  00A4               	movwf	division@un
  2092  0F23  305B               	movlw	(low ((floTochar@digdecimal| 0+1)))& (0+255)
  2093  0F24  00D1               	movwf	??_floTochar+1
  2094  0F25  0851               	movf	??_floTochar+1,w
  2095  0F26  00A5               	movwf	division@dec
  2096  0F27  0858               	movf	floTochar@decimal,w
  2097  0F28  120A  158A  2436  120A  158A  	fcall	_division
  2098                           
  2099                           ;main.c: 163:     conv[0] = entero;
  2100  0F2D  1283               	bcf	3,5	;RP0=0, select bank0
  2101  0F2E  1303               	bcf	3,6	;RP1=0, select bank0
  2102  0F2F  0859               	movf	floTochar@entero,w
  2103  0F30  00D0               	movwf	??_floTochar
  2104  0F31  084F               	movf	floTochar@conv,w
  2105  0F32  0084               	movwf	4
  2106  0F33  0850               	movf	??_floTochar,w
  2107  0F34  1383               	bcf	3,7	;select IRP bank0
  2108  0F35  0080               	movwf	0
  2109                           
  2110                           ;main.c: 164:     conv[1] = digdecimal[1];
  2111  0F36  085B               	movf	floTochar@digdecimal+1,w
  2112  0F37  00D0               	movwf	??_floTochar
  2113  0F38  0A4F               	incf	floTochar@conv,w
  2114  0F39  0084               	movwf	4
  2115  0F3A  0850               	movf	??_floTochar,w
  2116  0F3B  0080               	movwf	0
  2117  0F3C                     l2594:
  2118                           
  2119                           ;main.c: 165:     conv[2] = digdecimal[0];
  2120  0F3C  085A               	movf	floTochar@digdecimal,w
  2121  0F3D  00D0               	movwf	??_floTochar
  2122  0F3E  084F               	movf	floTochar@conv,w
  2123  0F3F  3E02               	addlw	2
  2124  0F40  0084               	movwf	4
  2125  0F41  0850               	movf	??_floTochar,w
  2126  0F42  0080               	movwf	0
  2127  0F43                     l89:
  2128  0F43  0008               	return
  2129  0F44                     __end_of_floTochar:
  2130                           
  2131                           	psect	text6
  2132  0C36                     __ptext6:	
  2133 ;; *************** function _division *****************
  2134 ;; Defined at:
  2135 ;;		line 170 in file "main.c"
  2136 ;; Parameters:    Size  Location     Type
  2137 ;;  conteo          1    wreg     unsigned char 
  2138 ;;  un              1    4[BANK0 ] PTR unsigned char 
  2139 ;;		 -> floTochar@digdecimal(2), 
  2140 ;;  dec             1    5[BANK0 ] PTR unsigned char 
  2141 ;;		 -> floTochar@digdecimal(2), 
  2142 ;; Auto vars:     Size  Location     Type
  2143 ;;  conteo          1    6[BANK0 ] unsigned char 
  2144 ;;  div             1    7[BANK0 ] unsigned char 
  2145 ;; Return value:  Size  Location     Type
  2146 ;;                  1    wreg      void 
  2147 ;; Registers used:
  2148 ;;		wreg, fsr0l, fsr0h, status,2, status,0, pclath, cstack
  2149 ;; Tracked objects:
  2150 ;;		On entry : 0/0
  2151 ;;		On exit  : 0/0
  2152 ;;		Unchanged: 0/0
  2153 ;; Data sizes:     COMMON   BANK0   BANK1   BANK3   BANK2
  2154 ;;      Params:         0       2       0       0       0
  2155 ;;      Locals:         0       2       0       0       0
  2156 ;;      Temps:          3       0       0       0       0
  2157 ;;      Totals:         3       4       0       0       0
  2158 ;;Total ram usage:        7 bytes
  2159 ;; Hardware stack levels used:    1
  2160 ;; Hardware stack levels required when called:    2
  2161 ;; This function calls:
  2162 ;;		___awdiv
  2163 ;;		___bmul
  2164 ;; This function is called by:
  2165 ;;		_floTochar
  2166 ;; This function uses a non-reentrant model
  2167 ;;
  2168                           
  2169                           
  2170                           ;psect for function _division
  2171  0C36                     _division:
  2172                           
  2173                           ;incstack = 0
  2174                           ; Regs used in _division: [wreg-fsr0h+status,2+status,0+pclath+cstack]
  2175                           ;division@conteo stored from wreg
  2176  0C36  1283               	bcf	3,5	;RP0=0, select bank0
  2177  0C37  1303               	bcf	3,6	;RP1=0, select bank0
  2178  0C38  00A6               	movwf	division@conteo
  2179  0C39                     l2406:
  2180                           
  2181                           ;main.c: 171:     uint8_t div = conteo;
  2182  0C39  0826               	movf	division@conteo,w
  2183  0C3A  00F7               	movwf	??_division
  2184  0C3B  0877               	movf	??_division,w
  2185  0C3C  00A7               	movwf	division@div
  2186  0C3D                     l2408:
  2187                           
  2188                           ;main.c: 172:     *un = 0;
  2189  0C3D  0824               	movf	division@un,w
  2190  0C3E  0084               	movwf	4
  2191  0C3F  1383               	bcf	3,7	;select IRP bank0
  2192  0C40  0180               	clrf	0
  2193  0C41                     l2410:
  2194                           
  2195                           ;main.c: 173:     *dec = 0;
  2196  0C41  0825               	movf	division@dec,w
  2197  0C42  0084               	movwf	4
  2198  0C43  0180               	clrf	0
  2199                           
  2200                           ;main.c: 176:     while (div >= 10){
  2201  0C44  2C70               	goto	l2414
  2202  0C45                     l2412:
  2203                           
  2204                           ;main.c: 177:     *dec = div/10;
  2205  0C45  300A               	movlw	10
  2206  0C46  00F2               	movwf	___awdiv@divisor
  2207  0C47  3000               	movlw	0
  2208  0C48  00F3               	movwf	___awdiv@divisor+1
  2209  0C49  0827               	movf	division@div,w
  2210  0C4A  00F7               	movwf	??_division
  2211  0C4B  01F8               	clrf	??_division+1
  2212  0C4C  0877               	movf	??_division,w
  2213  0C4D  00F4               	movwf	___awdiv@dividend
  2214  0C4E  0878               	movf	??_division+1,w
  2215  0C4F  00F5               	movwf	___awdiv@dividend+1
  2216  0C50  120A  158A  2546  120A  158A  	fcall	___awdiv
  2217  0C55  0872               	movf	?___awdiv,w
  2218  0C56  00F9               	movwf	??_division+2
  2219  0C57  1283               	bcf	3,5	;RP0=0, select bank0
  2220  0C58  1303               	bcf	3,6	;RP1=0, select bank0
  2221  0C59  0825               	movf	division@dec,w
  2222  0C5A  0084               	movwf	4
  2223  0C5B  0879               	movf	??_division+2,w
  2224  0C5C  1383               	bcf	3,7	;select IRP bank0
  2225  0C5D  0080               	movwf	0
  2226                           
  2227                           ;main.c: 178:     div = div - (*dec)*(10);
  2228  0C5E  30F6               	movlw	246
  2229  0C5F  00F7               	movwf	??_division
  2230  0C60  0877               	movf	??_division,w
  2231  0C61  00F2               	movwf	___bmul@multiplicand
  2232  0C62  0825               	movf	division@dec,w
  2233  0C63  0084               	movwf	4
  2234  0C64  0800               	movf	0,w
  2235  0C65  120A  118A  27EB  120A  158A  	fcall	___bmul
  2236  0C6A  1283               	bcf	3,5	;RP0=0, select bank0
  2237  0C6B  1303               	bcf	3,6	;RP1=0, select bank0
  2238  0C6C  0727               	addwf	division@div,w
  2239  0C6D  00F8               	movwf	??_division+1
  2240  0C6E  0878               	movf	??_division+1,w
  2241  0C6F  00A7               	movwf	division@div
  2242  0C70                     l2414:
  2243                           
  2244                           ;main.c: 176:     while (div >= 10){
  2245  0C70  300A               	movlw	10
  2246  0C71  0227               	subwf	division@div,w
  2247  0C72  1803               	skipnc
  2248  0C73  2C75               	goto	u3021
  2249  0C74  2C76               	goto	u3020
  2250  0C75                     u3021:
  2251  0C75  2C45               	goto	l2412
  2252  0C76                     u3020:
  2253  0C76                     l2416:
  2254                           
  2255                           ;main.c: 181:     *un = div;
  2256  0C76  0827               	movf	division@div,w
  2257  0C77  00F7               	movwf	??_division
  2258  0C78  0824               	movf	division@un,w
  2259  0C79  0084               	movwf	4
  2260  0C7A  0877               	movf	??_division,w
  2261  0C7B  1383               	bcf	3,7	;select IRP bank0
  2262  0C7C  0080               	movwf	0
  2263  0C7D                     l95:
  2264  0C7D  0008               	return
  2265  0C7E                     __end_of_division:
  2266                           
  2267                           	psect	text7
  2268  07EB                     __ptext7:	
  2269 ;; *************** function ___bmul *****************
  2270 ;; Defined at:
  2271 ;;		line 4 in file "C:\Program Files\Microchip\xc8\v2.31\pic\sources\c90\common\Umul8.c"
  2272 ;; Parameters:    Size  Location     Type
  2273 ;;  multiplier      1    wreg     unsigned char 
  2274 ;;  multiplicand    1    2[COMMON] unsigned char 
  2275 ;; Auto vars:     Size  Location     Type
  2276 ;;  multiplier      1    5[COMMON] unsigned char 
  2277 ;;  product         1    4[COMMON] unsigned char 
  2278 ;; Return value:  Size  Location     Type
  2279 ;;                  1    wreg      unsigned char 
  2280 ;; Registers used:
  2281 ;;		wreg, status,2, status,0
  2282 ;; Tracked objects:
  2283 ;;		On entry : 0/0
  2284 ;;		On exit  : 0/0
  2285 ;;		Unchanged: 0/0
  2286 ;; Data sizes:     COMMON   BANK0   BANK1   BANK3   BANK2
  2287 ;;      Params:         1       0       0       0       0
  2288 ;;      Locals:         2       0       0       0       0
  2289 ;;      Temps:          1       0       0       0       0
  2290 ;;      Totals:         4       0       0       0       0
  2291 ;;Total ram usage:        4 bytes
  2292 ;; Hardware stack levels used:    1
  2293 ;; Hardware stack levels required when called:    1
  2294 ;; This function calls:
  2295 ;;		Nothing
  2296 ;; This function is called by:
  2297 ;;		_division
  2298 ;;		_divisiondecimal
  2299 ;; This function uses a non-reentrant model
  2300 ;;
  2301                           
  2302                           
  2303                           ;psect for function ___bmul
  2304  07EB                     ___bmul:
  2305                           
  2306                           ;incstack = 0
  2307                           ; Regs used in ___bmul: [wreg+status,2+status,0]
  2308                           ;___bmul@multiplier stored from wreg
  2309  07EB  00F5               	movwf	___bmul@multiplier
  2310  07EC                     l1550:
  2311  07EC  01F4               	clrf	___bmul@product
  2312  07ED                     l1552:
  2313  07ED  1C75               	btfss	___bmul@multiplier,0
  2314  07EE  2FF0               	goto	u1411
  2315  07EF  2FF1               	goto	u1410
  2316  07F0                     u1411:
  2317  07F0  2FF5               	goto	l1556
  2318  07F1                     u1410:
  2319  07F1                     l1554:
  2320  07F1  0872               	movf	___bmul@multiplicand,w
  2321  07F2  00F3               	movwf	??___bmul
  2322  07F3  0873               	movf	??___bmul,w
  2323  07F4  07F4               	addwf	___bmul@product,f
  2324  07F5                     l1556:
  2325  07F5  1003               	clrc
  2326  07F6  0DF2               	rlf	___bmul@multiplicand,f
  2327  07F7                     l1558:
  2328  07F7  1003               	clrc
  2329  07F8  0CF5               	rrf	___bmul@multiplier,f
  2330  07F9  0875               	movf	___bmul@multiplier,w
  2331  07FA  1D03               	btfss	3,2
  2332  07FB  2FFD               	goto	u1421
  2333  07FC  2FFE               	goto	u1420
  2334  07FD                     u1421:
  2335  07FD  2FED               	goto	l1552
  2336  07FE                     u1420:
  2337  07FE                     l1560:
  2338  07FE  0874               	movf	___bmul@product,w
  2339  07FF                     l298:
  2340  07FF  0008               	return
  2341  0800                     __end_of___bmul:
  2342                           
  2343                           	psect	text8
  2344  0D46                     __ptext8:	
  2345 ;; *************** function ___awdiv *****************
  2346 ;; Defined at:
  2347 ;;		line 5 in file "C:\Program Files\Microchip\xc8\v2.31\pic\sources\c90\common\awdiv.c"
  2348 ;; Parameters:    Size  Location     Type
  2349 ;;  divisor         2    2[COMMON] int 
  2350 ;;  dividend        2    4[COMMON] int 
  2351 ;; Auto vars:     Size  Location     Type
  2352 ;;  quotient        2    2[BANK0 ] int 
  2353 ;;  sign            1    1[BANK0 ] unsigned char 
  2354 ;;  counter         1    0[BANK0 ] unsigned char 
  2355 ;; Return value:  Size  Location     Type
  2356 ;;                  2    2[COMMON] int 
  2357 ;; Registers used:
  2358 ;;		wreg, status,2, status,0
  2359 ;; Tracked objects:
  2360 ;;		On entry : 0/0
  2361 ;;		On exit  : 0/0
  2362 ;;		Unchanged: 0/0
  2363 ;; Data sizes:     COMMON   BANK0   BANK1   BANK3   BANK2
  2364 ;;      Params:         4       0       0       0       0
  2365 ;;      Locals:         0       4       0       0       0
  2366 ;;      Temps:          1       0       0       0       0
  2367 ;;      Totals:         5       4       0       0       0
  2368 ;;Total ram usage:        9 bytes
  2369 ;; Hardware stack levels used:    1
  2370 ;; Hardware stack levels required when called:    1
  2371 ;; This function calls:
  2372 ;;		Nothing
  2373 ;; This function is called by:
  2374 ;;		_division
  2375 ;;		_divisiondecimal
  2376 ;; This function uses a non-reentrant model
  2377 ;;
  2378                           
  2379                           
  2380                           ;psect for function ___awdiv
  2381  0D46                     ___awdiv:
  2382  0D46                     l2336:	
  2383                           ;incstack = 0
  2384                           ; Regs used in ___awdiv: [wreg+status,2+status,0]
  2385                           
  2386  0D46  1283               	bcf	3,5	;RP0=0, select bank0
  2387  0D47  1303               	bcf	3,6	;RP1=0, select bank0
  2388  0D48  01A1               	clrf	___awdiv@sign
  2389  0D49                     l2338:
  2390  0D49  1FF3               	btfss	___awdiv@divisor+1,7
  2391  0D4A  2D4C               	goto	u2881
  2392  0D4B  2D4D               	goto	u2880
  2393  0D4C                     u2881:
  2394  0D4C  2D54               	goto	l2344
  2395  0D4D                     u2880:
  2396  0D4D                     l2340:
  2397  0D4D  09F2               	comf	___awdiv@divisor,f
  2398  0D4E  09F3               	comf	___awdiv@divisor+1,f
  2399  0D4F  0AF2               	incf	___awdiv@divisor,f
  2400  0D50  1903               	skipnz
  2401  0D51  0AF3               	incf	___awdiv@divisor+1,f
  2402  0D52                     l2342:
  2403  0D52  01A1               	clrf	___awdiv@sign
  2404  0D53  0AA1               	incf	___awdiv@sign,f
  2405  0D54                     l2344:
  2406  0D54  1FF5               	btfss	___awdiv@dividend+1,7
  2407  0D55  2D57               	goto	u2891
  2408  0D56  2D58               	goto	u2890
  2409  0D57                     u2891:
  2410  0D57  2D61               	goto	l2350
  2411  0D58                     u2890:
  2412  0D58                     l2346:
  2413  0D58  09F4               	comf	___awdiv@dividend,f
  2414  0D59  09F5               	comf	___awdiv@dividend+1,f
  2415  0D5A  0AF4               	incf	___awdiv@dividend,f
  2416  0D5B  1903               	skipnz
  2417  0D5C  0AF5               	incf	___awdiv@dividend+1,f
  2418  0D5D                     l2348:
  2419  0D5D  3001               	movlw	1
  2420  0D5E  00F6               	movwf	??___awdiv
  2421  0D5F  0876               	movf	??___awdiv,w
  2422  0D60  06A1               	xorwf	___awdiv@sign,f
  2423  0D61                     l2350:
  2424  0D61  01A2               	clrf	___awdiv@quotient
  2425  0D62  01A3               	clrf	___awdiv@quotient+1
  2426  0D63                     l2352:
  2427  0D63  0872               	movf	___awdiv@divisor,w
  2428  0D64  0473               	iorwf	___awdiv@divisor+1,w
  2429  0D65  1903               	btfsc	3,2
  2430  0D66  2D68               	goto	u2901
  2431  0D67  2D69               	goto	u2900
  2432  0D68                     u2901:
  2433  0D68  2DA0               	goto	l2372
  2434  0D69                     u2900:
  2435  0D69                     l2354:
  2436  0D69  01A0               	clrf	___awdiv@counter
  2437  0D6A  0AA0               	incf	___awdiv@counter,f
  2438  0D6B  2D77               	goto	l2360
  2439  0D6C                     l2356:
  2440  0D6C  3001               	movlw	1
  2441  0D6D                     u2915:
  2442  0D6D  1003               	clrc
  2443  0D6E  0DF2               	rlf	___awdiv@divisor,f
  2444  0D6F  0DF3               	rlf	___awdiv@divisor+1,f
  2445  0D70  3EFF               	addlw	-1
  2446  0D71  1D03               	skipz
  2447  0D72  2D6D               	goto	u2915
  2448  0D73                     l2358:
  2449  0D73  3001               	movlw	1
  2450  0D74  00F6               	movwf	??___awdiv
  2451  0D75  0876               	movf	??___awdiv,w
  2452  0D76  07A0               	addwf	___awdiv@counter,f
  2453  0D77                     l2360:
  2454  0D77  1FF3               	btfss	___awdiv@divisor+1,7
  2455  0D78  2D7A               	goto	u2921
  2456  0D79  2D7B               	goto	u2920
  2457  0D7A                     u2921:
  2458  0D7A  2D6C               	goto	l2356
  2459  0D7B                     u2920:
  2460  0D7B                     l2362:
  2461  0D7B  3001               	movlw	1
  2462  0D7C                     u2935:
  2463  0D7C  1003               	clrc
  2464  0D7D  0DA2               	rlf	___awdiv@quotient,f
  2465  0D7E  0DA3               	rlf	___awdiv@quotient+1,f
  2466  0D7F  3EFF               	addlw	-1
  2467  0D80  1D03               	skipz
  2468  0D81  2D7C               	goto	u2935
  2469  0D82  0873               	movf	___awdiv@divisor+1,w
  2470  0D83  0275               	subwf	___awdiv@dividend+1,w
  2471  0D84  1D03               	skipz
  2472  0D85  2D88               	goto	u2945
  2473  0D86  0872               	movf	___awdiv@divisor,w
  2474  0D87  0274               	subwf	___awdiv@dividend,w
  2475  0D88                     u2945:
  2476  0D88  1C03               	skipc
  2477  0D89  2D8B               	goto	u2941
  2478  0D8A  2D8C               	goto	u2940
  2479  0D8B                     u2941:
  2480  0D8B  2D93               	goto	l2368
  2481  0D8C                     u2940:
  2482  0D8C                     l2364:
  2483  0D8C  0872               	movf	___awdiv@divisor,w
  2484  0D8D  02F4               	subwf	___awdiv@dividend,f
  2485  0D8E  0873               	movf	___awdiv@divisor+1,w
  2486  0D8F  1C03               	skipc
  2487  0D90  03F5               	decf	___awdiv@dividend+1,f
  2488  0D91  02F5               	subwf	___awdiv@dividend+1,f
  2489  0D92                     l2366:
  2490  0D92  1422               	bsf	___awdiv@quotient,0
  2491  0D93                     l2368:
  2492  0D93  3001               	movlw	1
  2493  0D94                     u2955:
  2494  0D94  1003               	clrc
  2495  0D95  0CF3               	rrf	___awdiv@divisor+1,f
  2496  0D96  0CF2               	rrf	___awdiv@divisor,f
  2497  0D97  3EFF               	addlw	-1
  2498  0D98  1D03               	skipz
  2499  0D99  2D94               	goto	u2955
  2500  0D9A                     l2370:
  2501  0D9A  3001               	movlw	1
  2502  0D9B  02A0               	subwf	___awdiv@counter,f
  2503  0D9C  1D03               	btfss	3,2
  2504  0D9D  2D9F               	goto	u2961
  2505  0D9E  2DA0               	goto	u2960
  2506  0D9F                     u2961:
  2507  0D9F  2D7B               	goto	l2362
  2508  0DA0                     u2960:
  2509  0DA0                     l2372:
  2510  0DA0  0821               	movf	___awdiv@sign,w
  2511  0DA1  1903               	btfsc	3,2
  2512  0DA2  2DA4               	goto	u2971
  2513  0DA3  2DA5               	goto	u2970
  2514  0DA4                     u2971:
  2515  0DA4  2DAA               	goto	l2376
  2516  0DA5                     u2970:
  2517  0DA5                     l2374:
  2518  0DA5  09A2               	comf	___awdiv@quotient,f
  2519  0DA6  09A3               	comf	___awdiv@quotient+1,f
  2520  0DA7  0AA2               	incf	___awdiv@quotient,f
  2521  0DA8  1903               	skipnz
  2522  0DA9  0AA3               	incf	___awdiv@quotient+1,f
  2523  0DAA                     l2376:
  2524  0DAA  0823               	movf	___awdiv@quotient+1,w
  2525  0DAB  00F3               	movwf	?___awdiv+1
  2526  0DAC  0822               	movf	___awdiv@quotient,w
  2527  0DAD  00F2               	movwf	?___awdiv
  2528  0DAE                     l425:
  2529  0DAE  0008               	return
  2530  0DAF                     __end_of___awdiv:
  2531                           
  2532                           	psect	text9
  2533  0F44                     __ptext9:	
  2534 ;; *************** function ___xxtofl *****************
  2535 ;; Defined at:
  2536 ;;		line 10 in file "C:\Program Files\Microchip\xc8\v2.31\pic\sources\c90\common\xxtofl.c"
  2537 ;; Parameters:    Size  Location     Type
  2538 ;;  sign            1    wreg     unsigned char 
  2539 ;;  val             4    2[COMMON] long 
  2540 ;; Auto vars:     Size  Location     Type
  2541 ;;  sign            1    0[BANK0 ] unsigned char 
  2542 ;;  arg             4    2[BANK0 ] unsigned long 
  2543 ;;  exp             1    1[BANK0 ] unsigned char 
  2544 ;; Return value:  Size  Location     Type
  2545 ;;                  4    2[COMMON] unsigned char 
  2546 ;; Registers used:
  2547 ;;		wreg, status,2, status,0
  2548 ;; Tracked objects:
  2549 ;;		On entry : 0/0
  2550 ;;		On exit  : 0/0
  2551 ;;		Unchanged: 0/0
  2552 ;; Data sizes:     COMMON   BANK0   BANK1   BANK3   BANK2
  2553 ;;      Params:         4       0       0       0       0
  2554 ;;      Locals:         0       6       0       0       0
  2555 ;;      Temps:          4       0       0       0       0
  2556 ;;      Totals:         8       6       0       0       0
  2557 ;;Total ram usage:       14 bytes
  2558 ;; Hardware stack levels used:    1
  2559 ;; Hardware stack levels required when called:    1
  2560 ;; This function calls:
  2561 ;;		Nothing
  2562 ;; This function is called by:
  2563 ;;		_main
  2564 ;;		_floTochar
  2565 ;; This function uses a non-reentrant model
  2566 ;;
  2567                           
  2568                           
  2569                           ;psect for function ___xxtofl
  2570  0F44                     ___xxtofl:
  2571                           
  2572                           ;incstack = 0
  2573                           ; Regs used in ___xxtofl: [wreg+status,2+status,0]
  2574                           ;___xxtofl@sign stored from wreg
  2575  0F44  1283               	bcf	3,5	;RP0=0, select bank0
  2576  0F45  1303               	bcf	3,6	;RP1=0, select bank0
  2577  0F46  00A0               	movwf	___xxtofl@sign
  2578  0F47                     l2084:
  2579  0F47  0820               	movf	___xxtofl@sign,w
  2580  0F48  1903               	btfsc	3,2
  2581  0F49  2F4B               	goto	u2621
  2582  0F4A  2F4C               	goto	u2620
  2583  0F4B                     u2621:
  2584  0F4B  2F60               	goto	l2090
  2585  0F4C                     u2620:
  2586  0F4C                     l2086:
  2587  0F4C  1FF5               	btfss	___xxtofl@val+3,7
  2588  0F4D  2F4F               	goto	u2631
  2589  0F4E  2F50               	goto	u2630
  2590  0F4F                     u2631:
  2591  0F4F  2F60               	goto	l2090
  2592  0F50                     u2630:
  2593  0F50                     l2088:
  2594  0F50  0972               	comf	___xxtofl@val,w
  2595  0F51  00A2               	movwf	___xxtofl@arg
  2596  0F52  0973               	comf	___xxtofl@val+1,w
  2597  0F53  00A3               	movwf	___xxtofl@arg+1
  2598  0F54  0974               	comf	___xxtofl@val+2,w
  2599  0F55  00A4               	movwf	___xxtofl@arg+2
  2600  0F56  0975               	comf	___xxtofl@val+3,w
  2601  0F57  00A5               	movwf	___xxtofl@arg+3
  2602  0F58  0AA2               	incf	___xxtofl@arg,f
  2603  0F59  1903               	skipnz
  2604  0F5A  0AA3               	incf	___xxtofl@arg+1,f
  2605  0F5B  1903               	skipnz
  2606  0F5C  0AA4               	incf	___xxtofl@arg+2,f
  2607  0F5D  1903               	skipnz
  2608  0F5E  0AA5               	incf	___xxtofl@arg+3,f
  2609  0F5F  2F68               	goto	l705
  2610  0F60                     l2090:
  2611  0F60  0875               	movf	___xxtofl@val+3,w
  2612  0F61  00A5               	movwf	___xxtofl@arg+3
  2613  0F62  0874               	movf	___xxtofl@val+2,w
  2614  0F63  00A4               	movwf	___xxtofl@arg+2
  2615  0F64  0873               	movf	___xxtofl@val+1,w
  2616  0F65  00A3               	movwf	___xxtofl@arg+1
  2617  0F66  0872               	movf	___xxtofl@val,w
  2618  0F67  00A2               	movwf	___xxtofl@arg
  2619  0F68                     l705:
  2620  0F68  0875               	movf	___xxtofl@val+3,w
  2621  0F69  0474               	iorwf	___xxtofl@val+2,w
  2622  0F6A  0473               	iorwf	___xxtofl@val+1,w
  2623  0F6B  0472               	iorwf	___xxtofl@val,w
  2624  0F6C  1D03               	skipz
  2625  0F6D  2F6F               	goto	u2641
  2626  0F6E  2F70               	goto	u2640
  2627  0F6F                     u2641:
  2628  0F6F  2F79               	goto	l2096
  2629  0F70                     u2640:
  2630  0F70                     l2092:
  2631  0F70  3000               	movlw	0
  2632  0F71  00F5               	movwf	?___xxtofl+3
  2633  0F72  3000               	movlw	0
  2634  0F73  00F4               	movwf	?___xxtofl+2
  2635  0F74  3000               	movlw	0
  2636  0F75  00F3               	movwf	?___xxtofl+1
  2637  0F76  3000               	movlw	0
  2638  0F77  00F2               	movwf	?___xxtofl
  2639  0F78  2FFF               	goto	l707
  2640  0F79                     l2096:
  2641  0F79  3096               	movlw	150
  2642  0F7A  00F6               	movwf	??___xxtofl
  2643  0F7B  0876               	movf	??___xxtofl,w
  2644  0F7C  00A1               	movwf	___xxtofl@exp
  2645  0F7D  2F8B               	goto	l2100
  2646  0F7E                     l2098:
  2647  0F7E  3001               	movlw	1
  2648  0F7F  00F6               	movwf	??___xxtofl
  2649  0F80  0876               	movf	??___xxtofl,w
  2650  0F81  07A1               	addwf	___xxtofl@exp,f
  2651  0F82  3001               	movlw	1
  2652  0F83                     u2655:
  2653  0F83  1003               	clrc
  2654  0F84  0CA5               	rrf	___xxtofl@arg+3,f
  2655  0F85  0CA4               	rrf	___xxtofl@arg+2,f
  2656  0F86  0CA3               	rrf	___xxtofl@arg+1,f
  2657  0F87  0CA2               	rrf	___xxtofl@arg,f
  2658  0F88  3EFF               	addlw	-1
  2659  0F89  1D03               	skipz
  2660  0F8A  2F83               	goto	u2655
  2661  0F8B                     l2100:
  2662  0F8B  30FE               	movlw	254
  2663  0F8C  0525               	andwf	___xxtofl@arg+3,w
  2664  0F8D  1D03               	btfss	3,2
  2665  0F8E  2F90               	goto	u2661
  2666  0F8F  2F91               	goto	u2660
  2667  0F90                     u2661:
  2668  0F90  2F7E               	goto	l2098
  2669  0F91                     u2660:
  2670  0F91  2FAD               	goto	l711
  2671  0F92                     l2102:
  2672  0F92  3001               	movlw	1
  2673  0F93  00F6               	movwf	??___xxtofl
  2674  0F94  0876               	movf	??___xxtofl,w
  2675  0F95  07A1               	addwf	___xxtofl@exp,f
  2676  0F96                     l2104:
  2677  0F96  3001               	movlw	1
  2678  0F97  07A2               	addwf	___xxtofl@arg,f
  2679  0F98  3000               	movlw	0
  2680  0F99  1803               	skipnc
  2681  0F9A  3001               	movlw	1
  2682  0F9B  07A3               	addwf	___xxtofl@arg+1,f
  2683  0F9C  3000               	movlw	0
  2684  0F9D  1803               	skipnc
  2685  0F9E  3001               	movlw	1
  2686  0F9F  07A4               	addwf	___xxtofl@arg+2,f
  2687  0FA0  3000               	movlw	0
  2688  0FA1  1803               	skipnc
  2689  0FA2  3001               	movlw	1
  2690  0FA3  07A5               	addwf	___xxtofl@arg+3,f
  2691  0FA4                     l2106:
  2692  0FA4  3001               	movlw	1
  2693  0FA5                     u2675:
  2694  0FA5  1003               	clrc
  2695  0FA6  0CA5               	rrf	___xxtofl@arg+3,f
  2696  0FA7  0CA4               	rrf	___xxtofl@arg+2,f
  2697  0FA8  0CA3               	rrf	___xxtofl@arg+1,f
  2698  0FA9  0CA2               	rrf	___xxtofl@arg,f
  2699  0FAA  3EFF               	addlw	-1
  2700  0FAB  1D03               	skipz
  2701  0FAC  2FA5               	goto	u2675
  2702  0FAD                     l711:
  2703  0FAD  30FF               	movlw	255
  2704  0FAE  0525               	andwf	___xxtofl@arg+3,w
  2705  0FAF  1D03               	btfss	3,2
  2706  0FB0  2FB2               	goto	u2681
  2707  0FB1  2FB3               	goto	u2680
  2708  0FB2                     u2681:
  2709  0FB2  2F92               	goto	l2102
  2710  0FB3                     u2680:
  2711  0FB3  2FBF               	goto	l2110
  2712  0FB4                     l2108:
  2713  0FB4  3001               	movlw	1
  2714  0FB5  02A1               	subwf	___xxtofl@exp,f
  2715  0FB6  3001               	movlw	1
  2716  0FB7  00F6               	movwf	??___xxtofl
  2717  0FB8                     u2695:
  2718  0FB8  1003               	clrc
  2719  0FB9  0DA2               	rlf	___xxtofl@arg,f
  2720  0FBA  0DA3               	rlf	___xxtofl@arg+1,f
  2721  0FBB  0DA4               	rlf	___xxtofl@arg+2,f
  2722  0FBC  0DA5               	rlf	___xxtofl@arg+3,f
  2723  0FBD  0BF6               	decfsz	??___xxtofl,f
  2724  0FBE  2FB8               	goto	u2695
  2725  0FBF                     l2110:
  2726  0FBF  1BA4               	btfsc	___xxtofl@arg+2,7
  2727  0FC0  2FC2               	goto	u2701
  2728  0FC1  2FC3               	goto	u2700
  2729  0FC2                     u2701:
  2730  0FC2  2FC9               	goto	l718
  2731  0FC3                     u2700:
  2732  0FC3                     l2112:
  2733  0FC3  3002               	movlw	2
  2734  0FC4  0221               	subwf	___xxtofl@exp,w
  2735  0FC5  1803               	skipnc
  2736  0FC6  2FC8               	goto	u2711
  2737  0FC7  2FC9               	goto	u2710
  2738  0FC8                     u2711:
  2739  0FC8  2FB4               	goto	l2108
  2740  0FC9                     u2710:
  2741  0FC9                     l718:
  2742  0FC9  1821               	btfsc	___xxtofl@exp,0
  2743  0FCA  2FCC               	goto	u2721
  2744  0FCB  2FCD               	goto	u2720
  2745  0FCC                     u2721:
  2746  0FCC  2FD5               	goto	l719
  2747  0FCD                     u2720:
  2748  0FCD                     l2114:
  2749  0FCD  30FF               	movlw	255
  2750  0FCE  05A2               	andwf	___xxtofl@arg,f
  2751  0FCF  30FF               	movlw	255
  2752  0FD0  05A3               	andwf	___xxtofl@arg+1,f
  2753  0FD1  307F               	movlw	127
  2754  0FD2  05A4               	andwf	___xxtofl@arg+2,f
  2755  0FD3  30FF               	movlw	255
  2756  0FD4  05A5               	andwf	___xxtofl@arg+3,f
  2757  0FD5                     l719:
  2758  0FD5  1003               	clrc
  2759  0FD6  0CA1               	rrf	___xxtofl@exp,f
  2760  0FD7                     l2116:
  2761  0FD7  0821               	movf	___xxtofl@exp,w
  2762  0FD8  00F6               	movwf	??___xxtofl
  2763  0FD9  01F7               	clrf	??___xxtofl+1
  2764  0FDA  01F8               	clrf	??___xxtofl+2
  2765  0FDB  01F9               	clrf	??___xxtofl+3
  2766  0FDC  3018               	movlw	24
  2767  0FDD                     u2735:
  2768  0FDD  1003               	clrc
  2769  0FDE  0DF6               	rlf	??___xxtofl,f
  2770  0FDF  0DF7               	rlf	??___xxtofl+1,f
  2771  0FE0  0DF8               	rlf	??___xxtofl+2,f
  2772  0FE1  0DF9               	rlf	??___xxtofl+3,f
  2773  0FE2                     u2730:
  2774  0FE2  3EFF               	addlw	-1
  2775  0FE3  1D03               	skipz
  2776  0FE4  2FDD               	goto	u2735
  2777  0FE5  0876               	movf	??___xxtofl,w
  2778  0FE6  04A2               	iorwf	___xxtofl@arg,f
  2779  0FE7  0877               	movf	??___xxtofl+1,w
  2780  0FE8  04A3               	iorwf	___xxtofl@arg+1,f
  2781  0FE9  0878               	movf	??___xxtofl+2,w
  2782  0FEA  04A4               	iorwf	___xxtofl@arg+2,f
  2783  0FEB  0879               	movf	??___xxtofl+3,w
  2784  0FEC  04A5               	iorwf	___xxtofl@arg+3,f
  2785  0FED                     l2118:
  2786  0FED  0820               	movf	___xxtofl@sign,w
  2787  0FEE  1903               	btfsc	3,2
  2788  0FEF  2FF1               	goto	u2741
  2789  0FF0  2FF2               	goto	u2740
  2790  0FF1                     u2741:
  2791  0FF1  2FF7               	goto	l2124
  2792  0FF2                     u2740:
  2793  0FF2                     l2120:
  2794  0FF2  1FF5               	btfss	___xxtofl@val+3,7
  2795  0FF3  2FF5               	goto	u2751
  2796  0FF4  2FF6               	goto	u2750
  2797  0FF5                     u2751:
  2798  0FF5  2FF7               	goto	l2124
  2799  0FF6                     u2750:
  2800  0FF6                     l2122:
  2801  0FF6  17A5               	bsf	___xxtofl@arg+3,7
  2802  0FF7                     l2124:
  2803  0FF7  0825               	movf	___xxtofl@arg+3,w
  2804  0FF8  00F5               	movwf	?___xxtofl+3
  2805  0FF9  0824               	movf	___xxtofl@arg+2,w
  2806  0FFA  00F4               	movwf	?___xxtofl+2
  2807  0FFB  0823               	movf	___xxtofl@arg+1,w
  2808  0FFC  00F3               	movwf	?___xxtofl+1
  2809  0FFD  0822               	movf	___xxtofl@arg,w
  2810  0FFE  00F2               	movwf	?___xxtofl
  2811  0FFF                     l707:
  2812  0FFF  0008               	return
  2813  1000                     __end_of___xxtofl:
  2814                           
  2815                           	psect	text10
  2816  0DAF                     __ptext10:	
  2817 ;; *************** function ___fltol *****************
  2818 ;; Defined at:
  2819 ;;		line 43 in file "C:\Program Files\Microchip\xc8\v2.31\pic\sources\c90\common\fltol.c"
  2820 ;; Parameters:    Size  Location     Type
  2821 ;;  f1              4   32[BANK0 ] unsigned char 
  2822 ;; Auto vars:     Size  Location     Type
  2823 ;;  exp1            1   42[BANK0 ] unsigned char 
  2824 ;;  sign1           1   41[BANK0 ] unsigned char 
  2825 ;; Return value:  Size  Location     Type
  2826 ;;                  4   32[BANK0 ] long 
  2827 ;; Registers used:
  2828 ;;		wreg, status,2, status,0
  2829 ;; Tracked objects:
  2830 ;;		On entry : 0/0
  2831 ;;		On exit  : 0/0
  2832 ;;		Unchanged: 0/0
  2833 ;; Data sizes:     COMMON   BANK0   BANK1   BANK3   BANK2
  2834 ;;      Params:         0       4       0       0       0
  2835 ;;      Locals:         0       2       0       0       0
  2836 ;;      Temps:          0       5       0       0       0
  2837 ;;      Totals:         0      11       0       0       0
  2838 ;;Total ram usage:       11 bytes
  2839 ;; Hardware stack levels used:    1
  2840 ;; Hardware stack levels required when called:    1
  2841 ;; This function calls:
  2842 ;;		Nothing
  2843 ;; This function is called by:
  2844 ;;		_floTochar
  2845 ;; This function uses a non-reentrant model
  2846 ;;
  2847                           
  2848                           
  2849                           ;psect for function ___fltol
  2850  0DAF                     ___fltol:
  2851  0DAF                     l1902:	
  2852                           ;incstack = 0
  2853                           ; Regs used in ___fltol: [wreg+status,2+status,0]
  2854                           
  2855  0DAF  1003               	clrc
  2856  0DB0  1283               	bcf	3,5	;RP0=0, select bank0
  2857  0DB1  1303               	bcf	3,6	;RP1=0, select bank0
  2858  0DB2  0D42               	rlf	___fltol@f1+2,w
  2859  0DB3  0D43               	rlf	___fltol@f1+3,w
  2860  0DB4  00C4               	movwf	??___fltol
  2861  0DB5  0844               	movf	??___fltol,w
  2862  0DB6  00CA               	movwf	___fltol@exp1
  2863  0DB7  084A               	movf	___fltol@exp1,w
  2864  0DB8  1D03               	btfss	3,2
  2865  0DB9  2DBB               	goto	u2151
  2866  0DBA  2DBC               	goto	u2150
  2867  0DBB                     u2151:
  2868  0DBB  2DC5               	goto	l1908
  2869  0DBC                     u2150:
  2870  0DBC                     l1904:
  2871  0DBC  3000               	movlw	0
  2872  0DBD  00C3               	movwf	?___fltol+3
  2873  0DBE  3000               	movlw	0
  2874  0DBF  00C2               	movwf	?___fltol+2
  2875  0DC0  3000               	movlw	0
  2876  0DC1  00C1               	movwf	?___fltol+1
  2877  0DC2  3000               	movlw	0
  2878  0DC3  00C0               	movwf	?___fltol
  2879  0DC4  2E2A               	goto	l458
  2880  0DC5                     l1908:
  2881  0DC5  0840               	movf	___fltol@f1,w
  2882  0DC6  00C4               	movwf	??___fltol
  2883  0DC7  0841               	movf	___fltol@f1+1,w
  2884  0DC8  00C5               	movwf	??___fltol+1
  2885  0DC9  0842               	movf	___fltol@f1+2,w
  2886  0DCA  00C6               	movwf	??___fltol+2
  2887  0DCB  0843               	movf	___fltol@f1+3,w
  2888  0DCC  00C7               	movwf	??___fltol+3
  2889  0DCD  301F               	movlw	31
  2890  0DCE                     u2165:
  2891  0DCE  1003               	clrc
  2892  0DCF  0CC7               	rrf	??___fltol+3,f
  2893  0DD0  0CC6               	rrf	??___fltol+2,f
  2894  0DD1  0CC5               	rrf	??___fltol+1,f
  2895  0DD2  0CC4               	rrf	??___fltol,f
  2896  0DD3                     u2160:
  2897  0DD3  3EFF               	addlw	-1
  2898  0DD4  1D03               	skipz
  2899  0DD5  2DCE               	goto	u2165
  2900  0DD6  0844               	movf	??___fltol,w
  2901  0DD7  00C8               	movwf	??___fltol+4
  2902  0DD8  0848               	movf	??___fltol+4,w
  2903  0DD9  00C9               	movwf	___fltol@sign1
  2904  0DDA                     l1910:
  2905  0DDA  17C2               	bsf	___fltol@f1+2,7
  2906  0DDB                     l1912:
  2907  0DDB  30FF               	movlw	255
  2908  0DDC  05C0               	andwf	___fltol@f1,f
  2909  0DDD  30FF               	movlw	255
  2910  0DDE  05C1               	andwf	___fltol@f1+1,f
  2911  0DDF  30FF               	movlw	255
  2912  0DE0  05C2               	andwf	___fltol@f1+2,f
  2913  0DE1  3000               	movlw	0
  2914  0DE2  05C3               	andwf	___fltol@f1+3,f
  2915  0DE3                     l1914:
  2916  0DE3  3096               	movlw	150
  2917  0DE4  02CA               	subwf	___fltol@exp1,f
  2918  0DE5                     l1916:
  2919  0DE5  1FCA               	btfss	___fltol@exp1,7
  2920  0DE6  2DE8               	goto	u2171
  2921  0DE7  2DE9               	goto	u2170
  2922  0DE8                     u2171:
  2923  0DE8  2E03               	goto	l1926
  2924  0DE9                     u2170:
  2925  0DE9                     l1918:
  2926  0DE9  084A               	movf	___fltol@exp1,w
  2927  0DEA  3A80               	xorlw	128
  2928  0DEB  3E97               	addlw	151
  2929  0DEC  1803               	skipnc
  2930  0DED  2DEF               	goto	u2181
  2931  0DEE  2DF0               	goto	u2180
  2932  0DEF                     u2181:
  2933  0DEF  2DF1               	goto	l1924
  2934  0DF0                     u2180:
  2935  0DF0  2DBC               	goto	l1904
  2936  0DF1                     l1924:
  2937  0DF1  3001               	movlw	1
  2938  0DF2                     u2195:
  2939  0DF2  1003               	clrc
  2940  0DF3  0CC3               	rrf	___fltol@f1+3,f
  2941  0DF4  0CC2               	rrf	___fltol@f1+2,f
  2942  0DF5  0CC1               	rrf	___fltol@f1+1,f
  2943  0DF6  0CC0               	rrf	___fltol@f1,f
  2944  0DF7  3EFF               	addlw	-1
  2945  0DF8  1D03               	skipz
  2946  0DF9  2DF2               	goto	u2195
  2947  0DFA  3001               	movlw	1
  2948  0DFB  00C4               	movwf	??___fltol
  2949  0DFC  0844               	movf	??___fltol,w
  2950  0DFD  07CA               	addwf	___fltol@exp1,f
  2951  0DFE  1D03               	btfss	3,2
  2952  0DFF  2E01               	goto	u2201
  2953  0E00  2E02               	goto	u2200
  2954  0E01                     u2201:
  2955  0E01  2DF1               	goto	l1924
  2956  0E02                     u2200:
  2957  0E02  2E1A               	goto	l1934
  2958  0E03                     l1926:
  2959  0E03  3020               	movlw	32
  2960  0E04  024A               	subwf	___fltol@exp1,w
  2961  0E05  1C03               	skipc
  2962  0E06  2E08               	goto	u2211
  2963  0E07  2E09               	goto	u2210
  2964  0E08                     u2211:
  2965  0E08  2E15               	goto	l465
  2966  0E09                     u2210:
  2967  0E09  2DBC               	goto	l1904
  2968  0E0A                     l1932:
  2969  0E0A  3001               	movlw	1
  2970  0E0B  00C4               	movwf	??___fltol
  2971  0E0C                     u2225:
  2972  0E0C  1003               	clrc
  2973  0E0D  0DC0               	rlf	___fltol@f1,f
  2974  0E0E  0DC1               	rlf	___fltol@f1+1,f
  2975  0E0F  0DC2               	rlf	___fltol@f1+2,f
  2976  0E10  0DC3               	rlf	___fltol@f1+3,f
  2977  0E11  0BC4               	decfsz	??___fltol,f
  2978  0E12  2E0C               	goto	u2225
  2979  0E13  3001               	movlw	1
  2980  0E14  02CA               	subwf	___fltol@exp1,f
  2981  0E15                     l465:
  2982  0E15  084A               	movf	___fltol@exp1,w
  2983  0E16  1D03               	btfss	3,2
  2984  0E17  2E19               	goto	u2231
  2985  0E18  2E1A               	goto	u2230
  2986  0E19                     u2231:
  2987  0E19  2E0A               	goto	l1932
  2988  0E1A                     u2230:
  2989  0E1A                     l1934:
  2990  0E1A  0849               	movf	___fltol@sign1,w
  2991  0E1B  1903               	btfsc	3,2
  2992  0E1C  2E1E               	goto	u2241
  2993  0E1D  2E1F               	goto	u2240
  2994  0E1E                     u2241:
  2995  0E1E  2E2A               	goto	l468
  2996  0E1F                     u2240:
  2997  0E1F                     l1936:
  2998  0E1F  09C0               	comf	___fltol@f1,f
  2999  0E20  09C1               	comf	___fltol@f1+1,f
  3000  0E21  09C2               	comf	___fltol@f1+2,f
  3001  0E22  09C3               	comf	___fltol@f1+3,f
  3002  0E23  0AC0               	incf	___fltol@f1,f
  3003  0E24  1903               	skipnz
  3004  0E25  0AC1               	incf	___fltol@f1+1,f
  3005  0E26  1903               	skipnz
  3006  0E27  0AC2               	incf	___fltol@f1+2,f
  3007  0E28  1903               	skipnz
  3008  0E29  0AC3               	incf	___fltol@f1+3,f
  3009  0E2A                     l468:
  3010  0E2A                     l458:
  3011  0E2A  0008               	return
  3012  0E2B                     __end_of___fltol:
  3013                           
  3014                           	psect	text11
  3015  0B5F                     __ptext11:	
  3016 ;; *************** function ___flsub *****************
  3017 ;; Defined at:
  3018 ;;		line 242 in file "C:\Program Files\Microchip\xc8\v2.31\pic\sources\c90\common\sprcadd.c"
  3019 ;; Parameters:    Size  Location     Type
  3020 ;;  a               4   12[BANK0 ] long 
  3021 ;;  b               4   16[BANK0 ] long 
  3022 ;; Auto vars:     Size  Location     Type
  3023 ;;		None
  3024 ;; Return value:  Size  Location     Type
  3025 ;;                  4   12[BANK0 ] long 
  3026 ;; Registers used:
  3027 ;;		wreg, status,2, status,0, btemp+1, pclath, cstack
  3028 ;; Tracked objects:
  3029 ;;		On entry : 0/0
  3030 ;;		On exit  : 0/0
  3031 ;;		Unchanged: 0/0
  3032 ;; Data sizes:     COMMON   BANK0   BANK1   BANK3   BANK2
  3033 ;;      Params:         0       8       0       0       0
  3034 ;;      Locals:         0       0       0       0       0
  3035 ;;      Temps:          0       0       0       0       0
  3036 ;;      Totals:         0       8       0       0       0
  3037 ;;Total ram usage:        8 bytes
  3038 ;; Hardware stack levels used:    1
  3039 ;; Hardware stack levels required when called:    2
  3040 ;; This function calls:
  3041 ;;		___fladd
  3042 ;; This function is called by:
  3043 ;;		_floTochar
  3044 ;; This function uses a non-reentrant model
  3045 ;;
  3046                           
  3047                           
  3048                           ;psect for function ___flsub
  3049  0B5F                     ___flsub:
  3050  0B5F                     l1938:	
  3051                           ;incstack = 0
  3052                           ; Regs used in ___flsub: [wreg+status,2+status,0+btemp+1+pclath+cstack]
  3053                           
  3054  0B5F  3080               	movlw	128
  3055  0B60  1283               	bcf	3,5	;RP0=0, select bank0
  3056  0B61  1303               	bcf	3,6	;RP1=0, select bank0
  3057  0B62  06AF               	xorwf	___flsub@a+3,f
  3058  0B63                     l1940:
  3059  0B63  0833               	movf	___flsub@b+3,w
  3060  0B64  00F5               	movwf	___fladd@b+3
  3061  0B65  0832               	movf	___flsub@b+2,w
  3062  0B66  00F4               	movwf	___fladd@b+2
  3063  0B67  0831               	movf	___flsub@b+1,w
  3064  0B68  00F3               	movwf	___fladd@b+1
  3065  0B69  0830               	movf	___flsub@b,w
  3066  0B6A  00F2               	movwf	___fladd@b
  3067  0B6B  082F               	movf	___flsub@a+3,w
  3068  0B6C  00F9               	movwf	___fladd@a+3
  3069  0B6D  082E               	movf	___flsub@a+2,w
  3070  0B6E  00F8               	movwf	___fladd@a+2
  3071  0B6F  082D               	movf	___flsub@a+1,w
  3072  0B70  00F7               	movwf	___fladd@a+1
  3073  0B71  082C               	movf	___flsub@a,w
  3074  0B72  00F6               	movwf	___fladd@a
  3075  0B73  120A  118A  2386  120A  158A  	fcall	___fladd
  3076  0B78  0875               	movf	?___fladd+3,w
  3077  0B79  1283               	bcf	3,5	;RP0=0, select bank0
  3078  0B7A  1303               	bcf	3,6	;RP1=0, select bank0
  3079  0B7B  00AF               	movwf	?___flsub+3
  3080  0B7C  0874               	movf	?___fladd+2,w
  3081  0B7D  00AE               	movwf	?___flsub+2
  3082  0B7E  0873               	movf	?___fladd+1,w
  3083  0B7F  00AD               	movwf	?___flsub+1
  3084  0B80  0872               	movf	?___fladd,w
  3085  0B81  00AC               	movwf	?___flsub
  3086  0B82                     l611:
  3087  0B82  0008               	return
  3088  0B83                     __end_of___flsub:
  3089                           
  3090                           	psect	text12
  3091  0386                     __ptext12:	
  3092 ;; *************** function ___fladd *****************
  3093 ;; Defined at:
  3094 ;;		line 10 in file "C:\Program Files\Microchip\xc8\v2.31\pic\sources\c90\common\sprcadd.c"
  3095 ;; Parameters:    Size  Location     Type
  3096 ;;  b               4    2[COMMON] long 
  3097 ;;  a               4    6[COMMON] long 
  3098 ;; Auto vars:     Size  Location     Type
  3099 ;;  grs             1   11[BANK0 ] unsigned char 
  3100 ;;  bexp            1   10[BANK0 ] unsigned char 
  3101 ;;  aexp            1    9[BANK0 ] unsigned char 
  3102 ;;  signs           1    8[BANK0 ] unsigned char 
  3103 ;; Return value:  Size  Location     Type
  3104 ;;                  4    2[COMMON] unsigned char 
  3105 ;; Registers used:
  3106 ;;		wreg, status,2, status,0, btemp+1
  3107 ;; Tracked objects:
  3108 ;;		On entry : 0/0
  3109 ;;		On exit  : 0/0
  3110 ;;		Unchanged: 0/0
  3111 ;; Data sizes:     COMMON   BANK0   BANK1   BANK3   BANK2
  3112 ;;      Params:         8       0       0       0       0
  3113 ;;      Locals:         0       4       0       0       0
  3114 ;;      Temps:          0       8       0       0       0
  3115 ;;      Totals:         8      12       0       0       0
  3116 ;;Total ram usage:       20 bytes
  3117 ;; Hardware stack levels used:    1
  3118 ;; Hardware stack levels required when called:    1
  3119 ;; This function calls:
  3120 ;;		Nothing
  3121 ;; This function is called by:
  3122 ;;		___flsub
  3123 ;; This function uses a non-reentrant model
  3124 ;;
  3125                           
  3126                           
  3127                           ;psect for function ___fladd
  3128  0386                     ___fladd:
  3129  0386                     l1632:	
  3130                           ;incstack = 0
  3131                           ; Regs used in ___fladd: [wreg+status,2+status,0+btemp+1]
  3132                           
  3133  0386  0875               	movf	___fladd@b+3,w
  3134  0387  3980               	andlw	128
  3135  0388  1283               	bcf	3,5	;RP0=0, select bank0
  3136  0389  1303               	bcf	3,6	;RP1=0, select bank0
  3137  038A  00A0               	movwf	??___fladd
  3138  038B  0820               	movf	??___fladd,w
  3139  038C  00A8               	movwf	___fladd@signs
  3140  038D                     l1634:
  3141  038D  0875               	movf	___fladd@b+3,w
  3142  038E  00A0               	movwf	??___fladd
  3143  038F  0720               	addwf	??___fladd,w
  3144  0390  00A1               	movwf	??___fladd+1
  3145  0391  0821               	movf	??___fladd+1,w
  3146  0392  00AA               	movwf	___fladd@bexp
  3147  0393                     l1636:
  3148  0393  1FF4               	btfss	___fladd@b+2,7
  3149  0394  2B96               	goto	u1601
  3150  0395  2B97               	goto	u1600
  3151  0396                     u1601:
  3152  0396  2B98               	goto	l1640
  3153  0397                     u1600:
  3154  0397                     l1638:
  3155  0397  142A               	bsf	___fladd@bexp,0
  3156  0398                     l1640:
  3157  0398  082A               	movf	___fladd@bexp,w
  3158  0399  1903               	btfsc	3,2
  3159  039A  2B9C               	goto	u1611
  3160  039B  2B9D               	goto	u1610
  3161  039C                     u1611:
  3162  039C  2BAD               	goto	l1650
  3163  039D                     u1610:
  3164  039D                     l1642:
  3165  039D  0A2A               	incf	___fladd@bexp,w
  3166  039E  1D03               	btfss	3,2
  3167  039F  2BA1               	goto	u1621
  3168  03A0  2BA2               	goto	u1620
  3169  03A1                     u1621:
  3170  03A1  2BAA               	goto	l1646
  3171  03A2                     u1620:
  3172  03A2                     l1644:
  3173  03A2  3000               	movlw	0
  3174  03A3  00F5               	movwf	___fladd@b+3
  3175  03A4  3000               	movlw	0
  3176  03A5  00F4               	movwf	___fladd@b+2
  3177  03A6  3000               	movlw	0
  3178  03A7  00F3               	movwf	___fladd@b+1
  3179  03A8  3000               	movlw	0
  3180  03A9  00F2               	movwf	___fladd@b
  3181  03AA                     l1646:
  3182  03AA  17F4               	bsf	___fladd@b+2,7
  3183  03AB                     l1648:
  3184  03AB  01F5               	clrf	___fladd@b+3
  3185  03AC  2BB5               	goto	l1652
  3186  03AD                     l1650:
  3187  03AD  3000               	movlw	0
  3188  03AE  00F5               	movwf	___fladd@b+3
  3189  03AF  3000               	movlw	0
  3190  03B0  00F4               	movwf	___fladd@b+2
  3191  03B1  3000               	movlw	0
  3192  03B2  00F3               	movwf	___fladd@b+1
  3193  03B3  3000               	movlw	0
  3194  03B4  00F2               	movwf	___fladd@b
  3195  03B5                     l1652:
  3196  03B5  0879               	movf	___fladd@a+3,w
  3197  03B6  3980               	andlw	128
  3198  03B7  00A0               	movwf	??___fladd
  3199  03B8  0820               	movf	??___fladd,w
  3200  03B9  00A9               	movwf	___fladd@aexp
  3201  03BA                     l1654:
  3202  03BA  0829               	movf	___fladd@aexp,w
  3203  03BB  0628               	xorwf	___fladd@signs,w
  3204  03BC  1903               	skipnz
  3205  03BD  2BBF               	goto	u1631
  3206  03BE  2BC0               	goto	u1630
  3207  03BF                     u1631:
  3208  03BF  2BC1               	goto	l1658
  3209  03C0                     u1630:
  3210  03C0                     l1656:
  3211  03C0  1728               	bsf	___fladd@signs,6
  3212  03C1                     l1658:
  3213  03C1  0879               	movf	___fladd@a+3,w
  3214  03C2  00A0               	movwf	??___fladd
  3215  03C3  0720               	addwf	??___fladd,w
  3216  03C4  00A1               	movwf	??___fladd+1
  3217  03C5  0821               	movf	??___fladd+1,w
  3218  03C6  00A9               	movwf	___fladd@aexp
  3219  03C7                     l1660:
  3220  03C7  1FF8               	btfss	___fladd@a+2,7
  3221  03C8  2BCA               	goto	u1641
  3222  03C9  2BCB               	goto	u1640
  3223  03CA                     u1641:
  3224  03CA  2BCC               	goto	l1664
  3225  03CB                     u1640:
  3226  03CB                     l1662:
  3227  03CB  1429               	bsf	___fladd@aexp,0
  3228  03CC                     l1664:
  3229  03CC  0829               	movf	___fladd@aexp,w
  3230  03CD  1903               	btfsc	3,2
  3231  03CE  2BD0               	goto	u1651
  3232  03CF  2BD1               	goto	u1650
  3233  03D0                     u1651:
  3234  03D0  2BE1               	goto	l1674
  3235  03D1                     u1650:
  3236  03D1                     l1666:
  3237  03D1  0A29               	incf	___fladd@aexp,w
  3238  03D2  1D03               	btfss	3,2
  3239  03D3  2BD5               	goto	u1661
  3240  03D4  2BD6               	goto	u1660
  3241  03D5                     u1661:
  3242  03D5  2BDE               	goto	l1670
  3243  03D6                     u1660:
  3244  03D6                     l1668:
  3245  03D6  3000               	movlw	0
  3246  03D7  00F9               	movwf	___fladd@a+3
  3247  03D8  3000               	movlw	0
  3248  03D9  00F8               	movwf	___fladd@a+2
  3249  03DA  3000               	movlw	0
  3250  03DB  00F7               	movwf	___fladd@a+1
  3251  03DC  3000               	movlw	0
  3252  03DD  00F6               	movwf	___fladd@a
  3253  03DE                     l1670:
  3254  03DE  17F8               	bsf	___fladd@a+2,7
  3255  03DF                     l1672:
  3256  03DF  01F9               	clrf	___fladd@a+3
  3257  03E0  2BE9               	goto	l565
  3258  03E1                     l1674:
  3259  03E1  3000               	movlw	0
  3260  03E2  00F9               	movwf	___fladd@a+3
  3261  03E3  3000               	movlw	0
  3262  03E4  00F8               	movwf	___fladd@a+2
  3263  03E5  3000               	movlw	0
  3264  03E6  00F7               	movwf	___fladd@a+1
  3265  03E7  3000               	movlw	0
  3266  03E8  00F6               	movwf	___fladd@a
  3267  03E9                     l565:
  3268  03E9  082A               	movf	___fladd@bexp,w
  3269  03EA  0229               	subwf	___fladd@aexp,w
  3270  03EB  1803               	skipnc
  3271  03EC  2BEE               	goto	u1671
  3272  03ED  2BEF               	goto	u1670
  3273  03EE                     u1671:
  3274  03EE  2C33               	goto	l1710
  3275  03EF                     u1670:
  3276  03EF                     l1676:
  3277  03EF  1F28               	btfss	___fladd@signs,6
  3278  03F0  2BF2               	goto	u1681
  3279  03F1  2BF3               	goto	u1680
  3280  03F2                     u1681:
  3281  03F2  2BF7               	goto	l1680
  3282  03F3                     u1680:
  3283  03F3                     l1678:
  3284  03F3  3080               	movlw	128
  3285  03F4  00A0               	movwf	??___fladd
  3286  03F5  0820               	movf	??___fladd,w
  3287  03F6  06A8               	xorwf	___fladd@signs,f
  3288  03F7                     l1680:
  3289  03F7  082A               	movf	___fladd@bexp,w
  3290  03F8  00A0               	movwf	??___fladd
  3291  03F9  0820               	movf	??___fladd,w
  3292  03FA  00AB               	movwf	___fladd@grs
  3293  03FB                     l1682:
  3294  03FB  0829               	movf	___fladd@aexp,w
  3295  03FC  00A0               	movwf	??___fladd
  3296  03FD  0820               	movf	??___fladd,w
  3297  03FE  00AA               	movwf	___fladd@bexp
  3298  03FF                     l1684:
  3299  03FF  082B               	movf	___fladd@grs,w
  3300  0400  00A0               	movwf	??___fladd
  3301  0401  0820               	movf	??___fladd,w
  3302  0402  00A9               	movwf	___fladd@aexp
  3303  0403                     l1686:
  3304  0403  0872               	movf	___fladd@b,w
  3305  0404  00A0               	movwf	??___fladd
  3306  0405  0820               	movf	??___fladd,w
  3307  0406  00AB               	movwf	___fladd@grs
  3308  0407                     l1688:
  3309  0407  0876               	movf	___fladd@a,w
  3310  0408  00A0               	movwf	??___fladd
  3311  0409  0820               	movf	??___fladd,w
  3312  040A  00F2               	movwf	___fladd@b
  3313  040B                     l1690:
  3314  040B  082B               	movf	___fladd@grs,w
  3315  040C  00A0               	movwf	??___fladd
  3316  040D  0820               	movf	??___fladd,w
  3317  040E  00F6               	movwf	___fladd@a
  3318  040F                     l1692:
  3319  040F  0873               	movf	___fladd@b+1,w
  3320  0410  00A0               	movwf	??___fladd
  3321  0411  0820               	movf	??___fladd,w
  3322  0412  00AB               	movwf	___fladd@grs
  3323  0413                     l1694:
  3324  0413  0877               	movf	___fladd@a+1,w
  3325  0414  00A0               	movwf	??___fladd
  3326  0415  0820               	movf	??___fladd,w
  3327  0416  00F3               	movwf	___fladd@b+1
  3328  0417                     l1696:
  3329  0417  082B               	movf	___fladd@grs,w
  3330  0418  00A0               	movwf	??___fladd
  3331  0419  0820               	movf	??___fladd,w
  3332  041A  00F7               	movwf	___fladd@a+1
  3333  041B                     l1698:
  3334  041B  0874               	movf	___fladd@b+2,w
  3335  041C  00A0               	movwf	??___fladd
  3336  041D  0820               	movf	??___fladd,w
  3337  041E  00AB               	movwf	___fladd@grs
  3338  041F                     l1700:
  3339  041F  0878               	movf	___fladd@a+2,w
  3340  0420  00A0               	movwf	??___fladd
  3341  0421  0820               	movf	??___fladd,w
  3342  0422  00F4               	movwf	___fladd@b+2
  3343  0423                     l1702:
  3344  0423  082B               	movf	___fladd@grs,w
  3345  0424  00A0               	movwf	??___fladd
  3346  0425  0820               	movf	??___fladd,w
  3347  0426  00F8               	movwf	___fladd@a+2
  3348  0427                     l1704:
  3349  0427  0875               	movf	___fladd@b+3,w
  3350  0428  00A0               	movwf	??___fladd
  3351  0429  0820               	movf	??___fladd,w
  3352  042A  00AB               	movwf	___fladd@grs
  3353  042B                     l1706:
  3354  042B  0879               	movf	___fladd@a+3,w
  3355  042C  00A0               	movwf	??___fladd
  3356  042D  0820               	movf	??___fladd,w
  3357  042E  00F5               	movwf	___fladd@b+3
  3358  042F                     l1708:
  3359  042F  082B               	movf	___fladd@grs,w
  3360  0430  00A0               	movwf	??___fladd
  3361  0431  0820               	movf	??___fladd,w
  3362  0432  00F9               	movwf	___fladd@a+3
  3363  0433                     l1710:
  3364  0433  01AB               	clrf	___fladd@grs
  3365  0434                     l1712:
  3366  0434  0829               	movf	___fladd@aexp,w
  3367  0435  00A0               	movwf	??___fladd
  3368  0436  01A1               	clrf	??___fladd+1
  3369  0437  0821               	movf	??___fladd+1,w
  3370  0438  00A3               	movwf	??___fladd+3
  3371  0439  082A               	movf	___fladd@bexp,w
  3372  043A  0220               	subwf	??___fladd,w
  3373  043B  00A2               	movwf	??___fladd+2
  3374  043C  1C03               	skipc
  3375  043D  03A3               	decf	??___fladd+3,f
  3376  043E  0823               	movf	??___fladd+3,w
  3377  043F  3A80               	xorlw	128
  3378  0440  00FF               	movwf	btemp+1
  3379  0441  3080               	movlw	128
  3380  0442  027F               	subwf	btemp+1,w
  3381  0443  1D03               	skipz
  3382  0444  2C47               	goto	u1695
  3383  0445  301A               	movlw	26
  3384  0446  0222               	subwf	??___fladd+2,w
  3385  0447                     u1695:
  3386  0447  1C03               	skipc
  3387  0448  2C4A               	goto	u1691
  3388  0449  2C4B               	goto	u1690
  3389  044A                     u1691:
  3390  044A  2C88               	goto	l1728
  3391  044B                     u1690:
  3392  044B                     l1714:
  3393  044B  0875               	movf	___fladd@b+3,w
  3394  044C  0474               	iorwf	___fladd@b+2,w
  3395  044D  0473               	iorwf	___fladd@b+1,w
  3396  044E  0472               	iorwf	___fladd@b,w
  3397  044F  1D03               	skipz
  3398  0450  2C52               	goto	u1701
  3399  0451  2C54               	goto	u1700
  3400  0452                     u1701:
  3401  0452  3001               	movlw	1
  3402  0453  2C55               	goto	u1710
  3403  0454                     u1700:
  3404  0454  3000               	movlw	0
  3405  0455                     u1710:
  3406  0455  1283               	bcf	3,5	;RP0=0, select bank0
  3407  0456  1303               	bcf	3,6	;RP1=0, select bank0
  3408  0457  00A0               	movwf	??___fladd
  3409  0458  0820               	movf	??___fladd,w
  3410  0459  00AB               	movwf	___fladd@grs
  3411  045A  3000               	movlw	0
  3412  045B  00F5               	movwf	___fladd@b+3
  3413  045C  3000               	movlw	0
  3414  045D  00F4               	movwf	___fladd@b+2
  3415  045E  3000               	movlw	0
  3416  045F  00F3               	movwf	___fladd@b+1
  3417  0460  3000               	movlw	0
  3418  0461  00F2               	movwf	___fladd@b
  3419  0462  0829               	movf	___fladd@aexp,w
  3420  0463  00A0               	movwf	??___fladd
  3421  0464  0820               	movf	??___fladd,w
  3422  0465  00AA               	movwf	___fladd@bexp
  3423  0466  2C90               	goto	l569
  3424  0467                     l571:
  3425  0467  1C2B               	btfss	___fladd@grs,0
  3426  0468  2C6A               	goto	u1721
  3427  0469  2C6B               	goto	u1720
  3428  046A                     u1721:
  3429  046A  2C74               	goto	l1718
  3430  046B                     u1720:
  3431  046B                     l1716:
  3432  046B  082B               	movf	___fladd@grs,w
  3433  046C  00A0               	movwf	??___fladd
  3434  046D  1003               	clrc
  3435  046E  0C20               	rrf	??___fladd,w
  3436  046F  3801               	iorlw	1
  3437  0470  00A1               	movwf	??___fladd+1
  3438  0471  0821               	movf	??___fladd+1,w
  3439  0472  00AB               	movwf	___fladd@grs
  3440  0473  2C76               	goto	l1720
  3441  0474                     l1718:
  3442  0474  1003               	clrc
  3443  0475  0CAB               	rrf	___fladd@grs,f
  3444  0476                     l1720:
  3445  0476  1C72               	btfss	___fladd@b,0
  3446  0477  2C79               	goto	u1731
  3447  0478  2C7A               	goto	u1730
  3448  0479                     u1731:
  3449  0479  2C7B               	goto	l1724
  3450  047A                     u1730:
  3451  047A                     l1722:
  3452  047A  17AB               	bsf	___fladd@grs,7
  3453  047B                     l1724:
  3454  047B  3001               	movlw	1
  3455  047C  00A0               	movwf	??___fladd
  3456  047D                     u1745:
  3457  047D  0D75               	rlf	___fladd@b+3,w
  3458  047E  0CF5               	rrf	___fladd@b+3,f
  3459  047F  0CF4               	rrf	___fladd@b+2,f
  3460  0480  0CF3               	rrf	___fladd@b+1,f
  3461  0481  0CF2               	rrf	___fladd@b,f
  3462  0482  0BA0               	decfsz	??___fladd& (0+127),f
  3463  0483  2C7D               	goto	u1745
  3464  0484                     l1726:
  3465  0484  3001               	movlw	1
  3466  0485  00A0               	movwf	??___fladd
  3467  0486  0820               	movf	??___fladd,w
  3468  0487  07AA               	addwf	___fladd@bexp,f
  3469  0488                     l1728:
  3470  0488  1283               	bcf	3,5	;RP0=0, select bank0
  3471  0489  1303               	bcf	3,6	;RP1=0, select bank0
  3472  048A  0829               	movf	___fladd@aexp,w
  3473  048B  022A               	subwf	___fladd@bexp,w
  3474  048C  1C03               	skipc
  3475  048D  2C8F               	goto	u1751
  3476  048E  2C90               	goto	u1750
  3477  048F                     u1751:
  3478  048F  2C67               	goto	l571
  3479  0490                     u1750:
  3480  0490                     l569:
  3481  0490  1B28               	btfsc	___fladd@signs,6
  3482  0491  2C93               	goto	u1761
  3483  0492  2C94               	goto	u1760
  3484  0493                     u1761:
  3485  0493  2CDF               	goto	l1754
  3486  0494                     u1760:
  3487  0494                     l1730:
  3488  0494  082A               	movf	___fladd@bexp,w
  3489  0495  1D03               	btfss	3,2
  3490  0496  2C98               	goto	u1771
  3491  0497  2C99               	goto	u1770
  3492  0498                     u1771:
  3493  0498  2CA2               	goto	l1736
  3494  0499                     u1770:
  3495  0499                     l1732:
  3496  0499  3000               	movlw	0
  3497  049A  00F5               	movwf	?___fladd+3
  3498  049B  3000               	movlw	0
  3499  049C  00F4               	movwf	?___fladd+2
  3500  049D  3000               	movlw	0
  3501  049E  00F3               	movwf	?___fladd+1
  3502  049F  3000               	movlw	0
  3503  04A0  00F2               	movwf	?___fladd
  3504  04A1  2E0D               	goto	l578
  3505  04A2                     l1736:
  3506  04A2  0876               	movf	___fladd@a,w
  3507  04A3  07F2               	addwf	___fladd@b,f
  3508  04A4  0877               	movf	___fladd@a+1,w
  3509  04A5  1103               	clrz
  3510  04A6  1803               	skipnc
  3511  04A7  3E01               	addlw	1
  3512  04A8  1903               	skipnz
  3513  04A9  2CAB               	goto	u1781
  3514  04AA  07F3               	addwf	___fladd@b+1,f
  3515  04AB                     u1781:
  3516  04AB  0878               	movf	___fladd@a+2,w
  3517  04AC  1103               	clrz
  3518  04AD  1803               	skipnc
  3519  04AE  3E01               	addlw	1
  3520  04AF  1903               	skipnz
  3521  04B0  2CB2               	goto	u1782
  3522  04B1  07F4               	addwf	___fladd@b+2,f
  3523  04B2                     u1782:
  3524  04B2  0879               	movf	___fladd@a+3,w
  3525  04B3  1103               	clrz
  3526  04B4  1803               	skipnc
  3527  04B5  3E01               	addlw	1
  3528  04B6  1903               	skipnz
  3529  04B7  2CB9               	goto	u1783
  3530  04B8  07F5               	addwf	___fladd@b+3,f
  3531  04B9                     u1783:
  3532  04B9                     l1738:
  3533  04B9  1C75               	btfss	___fladd@b+3,0
  3534  04BA  2CBC               	goto	u1791
  3535  04BB  2CBD               	goto	u1790
  3536  04BC                     u1791:
  3537  04BC  2D93               	goto	l1788
  3538  04BD                     u1790:
  3539  04BD                     l1740:
  3540  04BD  1C2B               	btfss	___fladd@grs,0
  3541  04BE  2CC0               	goto	u1801
  3542  04BF  2CC1               	goto	u1800
  3543  04C0                     u1801:
  3544  04C0  2CCA               	goto	l1744
  3545  04C1                     u1800:
  3546  04C1                     l1742:
  3547  04C1  082B               	movf	___fladd@grs,w
  3548  04C2  00A0               	movwf	??___fladd
  3549  04C3  1003               	clrc
  3550  04C4  0C20               	rrf	??___fladd,w
  3551  04C5  3801               	iorlw	1
  3552  04C6  00A1               	movwf	??___fladd+1
  3553  04C7  0821               	movf	??___fladd+1,w
  3554  04C8  00AB               	movwf	___fladd@grs
  3555  04C9  2CCC               	goto	l1746
  3556  04CA                     l1744:
  3557  04CA  1003               	clrc
  3558  04CB  0CAB               	rrf	___fladd@grs,f
  3559  04CC                     l1746:
  3560  04CC  1C72               	btfss	___fladd@b,0
  3561  04CD  2CCF               	goto	u1811
  3562  04CE  2CD0               	goto	u1810
  3563  04CF                     u1811:
  3564  04CF  2CD1               	goto	l1750
  3565  04D0                     u1810:
  3566  04D0                     l1748:
  3567  04D0  17AB               	bsf	___fladd@grs,7
  3568  04D1                     l1750:
  3569  04D1  3001               	movlw	1
  3570  04D2  00A0               	movwf	??___fladd
  3571  04D3                     u1825:
  3572  04D3  0D75               	rlf	___fladd@b+3,w
  3573  04D4  0CF5               	rrf	___fladd@b+3,f
  3574  04D5  0CF4               	rrf	___fladd@b+2,f
  3575  04D6  0CF3               	rrf	___fladd@b+1,f
  3576  04D7  0CF2               	rrf	___fladd@b,f
  3577  04D8  0BA0               	decfsz	??___fladd& (0+127),f
  3578  04D9  2CD3               	goto	u1825
  3579  04DA                     l1752:
  3580  04DA  3001               	movlw	1
  3581  04DB  00A0               	movwf	??___fladd
  3582  04DC  0820               	movf	??___fladd,w
  3583  04DD  07AA               	addwf	___fladd@bexp,f
  3584  04DE  2D93               	goto	l1788
  3585  04DF                     l1754:
  3586  04DF  0875               	movf	___fladd@b+3,w
  3587  04E0  3A80               	xorlw	128
  3588  04E1  00FF               	movwf	btemp+1
  3589  04E2  0879               	movf	___fladd@a+3,w
  3590  04E3  3A80               	xorlw	128
  3591  04E4  027F               	subwf	btemp+1,w
  3592  04E5  1D03               	skipz
  3593  04E6  2CF1               	goto	u1833
  3594  04E7  0878               	movf	___fladd@a+2,w
  3595  04E8  0274               	subwf	___fladd@b+2,w
  3596  04E9  1D03               	skipz
  3597  04EA  2CF1               	goto	u1833
  3598  04EB  0877               	movf	___fladd@a+1,w
  3599  04EC  0273               	subwf	___fladd@b+1,w
  3600  04ED  1D03               	skipz
  3601  04EE  2CF1               	goto	u1833
  3602  04EF  0876               	movf	___fladd@a,w
  3603  04F0  0272               	subwf	___fladd@b,w
  3604  04F1                     u1833:
  3605  04F1  1803               	skipnc
  3606  04F2  2CF4               	goto	u1831
  3607  04F3  2CF5               	goto	u1830
  3608  04F4                     u1831:
  3609  04F4  2D4D               	goto	l1764
  3610  04F5                     u1830:
  3611  04F5                     l1756:
  3612  04F5  30FF               	movlw	255
  3613  04F6  00A0               	movwf	??___fladd
  3614  04F7  30FF               	movlw	255
  3615  04F8  00A1               	movwf	??___fladd+1
  3616  04F9  30FF               	movlw	255
  3617  04FA  00A2               	movwf	??___fladd+2
  3618  04FB  30FF               	movlw	255
  3619  04FC  00A3               	movwf	??___fladd+3
  3620  04FD  0876               	movf	___fladd@a,w
  3621  04FE  00A4               	movwf	??___fladd+4
  3622  04FF  0877               	movf	___fladd@a+1,w
  3623  0500  00A5               	movwf	??___fladd+5
  3624  0501  0878               	movf	___fladd@a+2,w
  3625  0502  00A6               	movwf	??___fladd+6
  3626  0503  0879               	movf	___fladd@a+3,w
  3627  0504  00A7               	movwf	??___fladd+7
  3628  0505  0872               	movf	___fladd@b,w
  3629  0506  02A4               	subwf	??___fladd+4,f
  3630  0507  0873               	movf	___fladd@b+1,w
  3631  0508  1C03               	skipc
  3632  0509  0F73               	incfsz	___fladd@b+1,w
  3633  050A  2D0C               	goto	u1841
  3634  050B  2D0D               	goto	u1842
  3635  050C                     u1841:
  3636  050C  02A5               	subwf	??___fladd+5,f
  3637  050D                     u1842:
  3638  050D  0874               	movf	___fladd@b+2,w
  3639  050E  1C03               	skipc
  3640  050F  0F74               	incfsz	___fladd@b+2,w
  3641  0510  2D12               	goto	u1843
  3642  0511  2D13               	goto	u1844
  3643  0512                     u1843:
  3644  0512  02A6               	subwf	??___fladd+6,f
  3645  0513                     u1844:
  3646  0513  0875               	movf	___fladd@b+3,w
  3647  0514  1C03               	skipc
  3648  0515  0F75               	incfsz	___fladd@b+3,w
  3649  0516  2D18               	goto	u1845
  3650  0517  2D19               	goto	u1846
  3651  0518                     u1845:
  3652  0518  02A7               	subwf	??___fladd+7,f
  3653  0519                     u1846:
  3654  0519  0824               	movf	??___fladd+4,w
  3655  051A  07A0               	addwf	??___fladd,f
  3656  051B  0825               	movf	??___fladd+5,w
  3657  051C  1803               	skipnc
  3658  051D  0F25               	incfsz	??___fladd+5,w
  3659  051E  2D20               	goto	u1850
  3660  051F  2D21               	goto	u1851
  3661  0520                     u1850:
  3662  0520  07A1               	addwf	??___fladd+1,f
  3663  0521                     u1851:
  3664  0521  0826               	movf	??___fladd+6,w
  3665  0522  1803               	skipnc
  3666  0523  0F26               	incfsz	??___fladd+6,w
  3667  0524  2D26               	goto	u1852
  3668  0525  2D27               	goto	u1853
  3669  0526                     u1852:
  3670  0526  07A2               	addwf	??___fladd+2,f
  3671  0527                     u1853:
  3672  0527  0827               	movf	??___fladd+7,w
  3673  0528  1803               	skipnc
  3674  0529  0A27               	incf	??___fladd+7,w
  3675  052A  07A3               	addwf	??___fladd+3,f
  3676  052B  0823               	movf	??___fladd+3,w
  3677  052C  00F5               	movwf	___fladd@b+3
  3678  052D  0822               	movf	??___fladd+2,w
  3679  052E  00F4               	movwf	___fladd@b+2
  3680  052F  0821               	movf	??___fladd+1,w
  3681  0530  00F3               	movwf	___fladd@b+1
  3682  0531  0820               	movf	??___fladd,w
  3683  0532  00F2               	movwf	___fladd@b
  3684  0533                     l1758:
  3685  0533  3080               	movlw	128
  3686  0534  00A0               	movwf	??___fladd
  3687  0535  0820               	movf	??___fladd,w
  3688  0536  06A8               	xorwf	___fladd@signs,f
  3689  0537  09AB               	comf	___fladd@grs,f
  3690  0538  0AAB               	incf	___fladd@grs,f
  3691  0539                     l1760:
  3692  0539  082B               	movf	___fladd@grs,w
  3693  053A  1D03               	btfss	3,2
  3694  053B  2D3D               	goto	u1861
  3695  053C  2D3E               	goto	u1860
  3696  053D                     u1861:
  3697  053D  2D5B               	goto	l586
  3698  053E                     u1860:
  3699  053E                     l1762:
  3700  053E  3001               	movlw	1
  3701  053F  07F2               	addwf	___fladd@b,f
  3702  0540  3000               	movlw	0
  3703  0541  1803               	skipnc
  3704  0542  3001               	movlw	1
  3705  0543  07F3               	addwf	___fladd@b+1,f
  3706  0544  3000               	movlw	0
  3707  0545  1803               	skipnc
  3708  0546  3001               	movlw	1
  3709  0547  07F4               	addwf	___fladd@b+2,f
  3710  0548  3000               	movlw	0
  3711  0549  1803               	skipnc
  3712  054A  3001               	movlw	1
  3713  054B  07F5               	addwf	___fladd@b+3,f
  3714  054C  2D5B               	goto	l586
  3715  054D                     l1764:
  3716  054D  0876               	movf	___fladd@a,w
  3717  054E  02F2               	subwf	___fladd@b,f
  3718  054F  0877               	movf	___fladd@a+1,w
  3719  0550  1C03               	skipc
  3720  0551  0F77               	incfsz	___fladd@a+1,w
  3721  0552  02F3               	subwf	___fladd@b+1,f
  3722  0553  0878               	movf	___fladd@a+2,w
  3723  0554  1C03               	skipc
  3724  0555  0F78               	incfsz	___fladd@a+2,w
  3725  0556  02F4               	subwf	___fladd@b+2,f
  3726  0557  0879               	movf	___fladd@a+3,w
  3727  0558  1C03               	skipc
  3728  0559  0F79               	incfsz	___fladd@a+3,w
  3729  055A  02F5               	subwf	___fladd@b+3,f
  3730  055B                     l586:
  3731  055B  0875               	movf	___fladd@b+3,w
  3732  055C  0474               	iorwf	___fladd@b+2,w
  3733  055D  0473               	iorwf	___fladd@b+1,w
  3734  055E  0472               	iorwf	___fladd@b,w
  3735  055F  1D03               	skipz
  3736  0560  2D62               	goto	u1871
  3737  0561  2D63               	goto	u1870
  3738  0562                     u1871:
  3739  0562  2D8F               	goto	l1786
  3740  0563                     u1870:
  3741  0563                     l1766:
  3742  0563  082B               	movf	___fladd@grs,w
  3743  0564  1D03               	btfss	3,2
  3744  0565  2D67               	goto	u1881
  3745  0566  2D68               	goto	u1880
  3746  0567                     u1881:
  3747  0567  2D8F               	goto	l1786
  3748  0568                     u1880:
  3749  0568                     l1768:
  3750  0568  3000               	movlw	0
  3751  0569  00F5               	movwf	?___fladd+3
  3752  056A  3000               	movlw	0
  3753  056B  00F4               	movwf	?___fladd+2
  3754  056C  3000               	movlw	0
  3755  056D  00F3               	movwf	?___fladd+1
  3756  056E  3000               	movlw	0
  3757  056F  00F2               	movwf	?___fladd
  3758  0570  2E0D               	goto	l578
  3759  0571                     l1772:
  3760  0571  3001               	movlw	1
  3761  0572  00A0               	movwf	??___fladd
  3762  0573                     u1895:
  3763  0573  1003               	clrc
  3764  0574  0DF2               	rlf	___fladd@b,f
  3765  0575  0DF3               	rlf	___fladd@b+1,f
  3766  0576  0DF4               	rlf	___fladd@b+2,f
  3767  0577  0DF5               	rlf	___fladd@b+3,f
  3768  0578  0BA0               	decfsz	??___fladd,f
  3769  0579  2D73               	goto	u1895
  3770  057A                     l1774:
  3771  057A  1FAB               	btfss	___fladd@grs,7
  3772  057B  2D7D               	goto	u1901
  3773  057C  2D7E               	goto	u1900
  3774  057D                     u1901:
  3775  057D  2D7F               	goto	l590
  3776  057E                     u1900:
  3777  057E                     l1776:
  3778  057E  1472               	bsf	___fladd@b,0
  3779  057F                     l590:
  3780  057F  1C2B               	btfss	___fladd@grs,0
  3781  0580  2D82               	goto	u1911
  3782  0581  2D83               	goto	u1910
  3783  0582                     u1911:
  3784  0582  2D86               	goto	l1780
  3785  0583                     u1910:
  3786  0583                     l1778:
  3787  0583  1403               	setc
  3788  0584  0DAB               	rlf	___fladd@grs,f
  3789  0585  2D88               	goto	l1782
  3790  0586                     l1780:
  3791  0586  1003               	clrc
  3792  0587  0DAB               	rlf	___fladd@grs,f
  3793  0588                     l1782:
  3794  0588  082A               	movf	___fladd@bexp,w
  3795  0589  1903               	btfsc	3,2
  3796  058A  2D8C               	goto	u1921
  3797  058B  2D8D               	goto	u1920
  3798  058C                     u1921:
  3799  058C  2D8F               	goto	l1786
  3800  058D                     u1920:
  3801  058D                     l1784:
  3802  058D  3001               	movlw	1
  3803  058E  02AA               	subwf	___fladd@bexp,f
  3804  058F                     l1786:
  3805  058F  1FF4               	btfss	___fladd@b+2,7
  3806  0590  2D92               	goto	u1931
  3807  0591  2D93               	goto	u1930
  3808  0592                     u1931:
  3809  0592  2D71               	goto	l1772
  3810  0593                     u1930:
  3811  0593                     l1788:
  3812  0593  01A9               	clrf	___fladd@aexp
  3813  0594                     l1790:
  3814  0594  1FAB               	btfss	___fladd@grs,7
  3815  0595  2D97               	goto	u1941
  3816  0596  2D98               	goto	u1940
  3817  0597                     u1941:
  3818  0597  2DA6               	goto	l1798
  3819  0598                     u1940:
  3820  0598                     l1792:
  3821  0598  082B               	movf	___fladd@grs,w
  3822  0599  397F               	andlw	127
  3823  059A  1903               	btfsc	3,2
  3824  059B  2D9D               	goto	u1951
  3825  059C  2D9E               	goto	u1950
  3826  059D                     u1951:
  3827  059D  2DA1               	goto	l596
  3828  059E                     u1950:
  3829  059E                     l1794:
  3830  059E  01A9               	clrf	___fladd@aexp
  3831  059F  0AA9               	incf	___fladd@aexp,f
  3832  05A0  2DA6               	goto	l1798
  3833  05A1                     l596:
  3834  05A1  1C72               	btfss	___fladd@b,0
  3835  05A2  2DA4               	goto	u1961
  3836  05A3  2DA5               	goto	u1960
  3837  05A4                     u1961:
  3838  05A4  2DA6               	goto	l1798
  3839  05A5                     u1960:
  3840  05A5  2D9E               	goto	l1794
  3841  05A6                     l1798:
  3842  05A6  0829               	movf	___fladd@aexp,w
  3843  05A7  1903               	btfsc	3,2
  3844  05A8  2DAA               	goto	u1971
  3845  05A9  2DAB               	goto	u1970
  3846  05AA                     u1971:
  3847  05AA  2DDF               	goto	l599
  3848  05AB                     u1970:
  3849  05AB                     l1800:
  3850  05AB  3001               	movlw	1
  3851  05AC  07F2               	addwf	___fladd@b,f
  3852  05AD  3000               	movlw	0
  3853  05AE  1803               	skipnc
  3854  05AF  3001               	movlw	1
  3855  05B0  07F3               	addwf	___fladd@b+1,f
  3856  05B1  3000               	movlw	0
  3857  05B2  1803               	skipnc
  3858  05B3  3001               	movlw	1
  3859  05B4  07F4               	addwf	___fladd@b+2,f
  3860  05B5  3000               	movlw	0
  3861  05B6  1803               	skipnc
  3862  05B7  3001               	movlw	1
  3863  05B8  07F5               	addwf	___fladd@b+3,f
  3864  05B9                     l1802:
  3865  05B9  1C75               	btfss	___fladd@b+3,0
  3866  05BA  2DBC               	goto	u1981
  3867  05BB  2DBD               	goto	u1980
  3868  05BC                     u1981:
  3869  05BC  2DDF               	goto	l599
  3870  05BD                     u1980:
  3871  05BD                     l1804:
  3872  05BD  0872               	movf	___fladd@b,w
  3873  05BE  00A0               	movwf	??___fladd
  3874  05BF  0873               	movf	___fladd@b+1,w
  3875  05C0  00A1               	movwf	??___fladd+1
  3876  05C1  0874               	movf	___fladd@b+2,w
  3877  05C2  00A2               	movwf	??___fladd+2
  3878  05C3  0875               	movf	___fladd@b+3,w
  3879  05C4  00A3               	movwf	??___fladd+3
  3880  05C5  3001               	movlw	1
  3881  05C6  00A4               	movwf	??___fladd+4
  3882  05C7                     u1995:
  3883  05C7  0D23               	rlf	??___fladd+3,w
  3884  05C8  0CA3               	rrf	??___fladd+3,f
  3885  05C9  0CA2               	rrf	??___fladd+2,f
  3886  05CA  0CA1               	rrf	??___fladd+1,f
  3887  05CB  0CA0               	rrf	??___fladd,f
  3888  05CC                     u1990:
  3889  05CC  0BA4               	decfsz	??___fladd+4,f
  3890  05CD  2DC7               	goto	u1995
  3891  05CE  0823               	movf	??___fladd+3,w
  3892  05CF  00F5               	movwf	___fladd@b+3
  3893  05D0  0822               	movf	??___fladd+2,w
  3894  05D1  00F4               	movwf	___fladd@b+2
  3895  05D2  0821               	movf	??___fladd+1,w
  3896  05D3  00F3               	movwf	___fladd@b+1
  3897  05D4  0820               	movf	??___fladd,w
  3898  05D5  00F2               	movwf	___fladd@b
  3899  05D6  0A2A               	incf	___fladd@bexp,w
  3900  05D7  1903               	btfsc	3,2
  3901  05D8  2DDA               	goto	u2001
  3902  05D9  2DDB               	goto	u2000
  3903  05DA                     u2001:
  3904  05DA  2DDF               	goto	l599
  3905  05DB                     u2000:
  3906  05DB                     l1806:
  3907  05DB  3001               	movlw	1
  3908  05DC  00A0               	movwf	??___fladd
  3909  05DD  0820               	movf	??___fladd,w
  3910  05DE  07AA               	addwf	___fladd@bexp,f
  3911  05DF                     l599:
  3912  05DF  0A2A               	incf	___fladd@bexp,w
  3913  05E0  1903               	btfsc	3,2
  3914  05E1  2DE3               	goto	u2011
  3915  05E2  2DE4               	goto	u2010
  3916  05E3                     u2011:
  3917  05E3  2DE9               	goto	l1810
  3918  05E4                     u2010:
  3919  05E4                     l1808:
  3920  05E4  082A               	movf	___fladd@bexp,w
  3921  05E5  1D03               	btfss	3,2
  3922  05E6  2DE8               	goto	u2021
  3923  05E7  2DE9               	goto	u2020
  3924  05E8                     u2021:
  3925  05E8  2DF7               	goto	l1816
  3926  05E9                     u2020:
  3927  05E9                     l1810:
  3928  05E9  3000               	movlw	0
  3929  05EA  00F5               	movwf	___fladd@b+3
  3930  05EB  3000               	movlw	0
  3931  05EC  00F4               	movwf	___fladd@b+2
  3932  05ED  3000               	movlw	0
  3933  05EE  00F3               	movwf	___fladd@b+1
  3934  05EF  3000               	movlw	0
  3935  05F0  00F2               	movwf	___fladd@b
  3936  05F1                     l1812:
  3937  05F1  082A               	movf	___fladd@bexp,w
  3938  05F2  1D03               	btfss	3,2
  3939  05F3  2DF5               	goto	u2031
  3940  05F4  2DF6               	goto	u2030
  3941  05F5                     u2031:
  3942  05F5  2DF7               	goto	l1816
  3943  05F6                     u2030:
  3944  05F6                     l1814:
  3945  05F6  01A8               	clrf	___fladd@signs
  3946  05F7                     l1816:
  3947  05F7  1C2A               	btfss	___fladd@bexp,0
  3948  05F8  2DFA               	goto	u2041
  3949  05F9  2DFB               	goto	u2040
  3950  05FA                     u2041:
  3951  05FA  2DFD               	goto	l1820
  3952  05FB                     u2040:
  3953  05FB                     l1818:
  3954  05FB  17F4               	bsf	___fladd@b+2,7
  3955  05FC  2E01               	goto	l607
  3956  05FD                     l1820:
  3957  05FD  307F               	movlw	127
  3958  05FE  00A0               	movwf	??___fladd
  3959  05FF  0820               	movf	??___fladd,w
  3960  0600  05F4               	andwf	___fladd@b+2,f
  3961  0601                     l607:
  3962  0601  082A               	movf	___fladd@bexp,w
  3963  0602  00A0               	movwf	??___fladd
  3964  0603  1003               	clrc
  3965  0604  0C20               	rrf	??___fladd,w
  3966  0605  00A1               	movwf	??___fladd+1
  3967  0606  0821               	movf	??___fladd+1,w
  3968  0607  00F5               	movwf	___fladd@b+3
  3969  0608                     l1822:
  3970  0608  1FA8               	btfss	___fladd@signs,7
  3971  0609  2E0B               	goto	u2051
  3972  060A  2E0C               	goto	u2050
  3973  060B                     u2051:
  3974  060B  2E0D               	goto	l608
  3975  060C                     u2050:
  3976  060C                     l1824:
  3977  060C  17F5               	bsf	___fladd@b+3,7
  3978  060D                     l608:
  3979  060D                     l578:
  3980  060D  0008               	return
  3981  060E                     __end_of___fladd:
  3982                           
  3983                           	psect	text13
  3984  0025                     __ptext13:	
  3985 ;; *************** function ___flmul *****************
  3986 ;; Defined at:
  3987 ;;		line 8 in file "C:\Program Files\Microchip\xc8\v2.31\pic\sources\c90\common\sprcmul.c"
  3988 ;; Parameters:    Size  Location     Type
  3989 ;;  b               4    6[BANK0 ] unsigned char 
  3990 ;;  a               4   10[BANK0 ] unsigned char 
  3991 ;; Auto vars:     Size  Location     Type
  3992 ;;  prod            4   26[BANK0 ] struct .
  3993 ;;  grs             4   21[BANK0 ] unsigned long 
  3994 ;;  temp            2   30[BANK0 ] struct .
  3995 ;;  bexp            1   25[BANK0 ] unsigned char 
  3996 ;;  aexp            1   20[BANK0 ] unsigned char 
  3997 ;;  sign            1   19[BANK0 ] unsigned char 
  3998 ;; Return value:  Size  Location     Type
  3999 ;;                  4    6[BANK0 ] unsigned char 
  4000 ;; Registers used:
  4001 ;;		wreg, status,2, status,0, btemp+1, pclath, cstack
  4002 ;; Tracked objects:
  4003 ;;		On entry : 0/0
  4004 ;;		On exit  : 0/0
  4005 ;;		Unchanged: 0/0
  4006 ;; Data sizes:     COMMON   BANK0   BANK1   BANK3   BANK2
  4007 ;;      Params:         0       8       0       0       0
  4008 ;;      Locals:         0      13       0       0       0
  4009 ;;      Temps:          0       5       0       0       0
  4010 ;;      Totals:         0      26       0       0       0
  4011 ;;Total ram usage:       26 bytes
  4012 ;; Hardware stack levels used:    1
  4013 ;; Hardware stack levels required when called:    2
  4014 ;; This function calls:
  4015 ;;		__Umul8_16
  4016 ;; This function is called by:
  4017 ;;		_main
  4018 ;;		_floTochar
  4019 ;; This function uses a non-reentrant model
  4020 ;;
  4021                           
  4022                           
  4023                           ;psect for function ___flmul
  4024  0025                     ___flmul:
  4025  0025                     l2436:	
  4026                           ;incstack = 0
  4027                           ; Regs used in ___flmul: [wreg+status,2+status,0+btemp+1+pclath+cstack]
  4028                           
  4029  0025  1283               	bcf	3,5	;RP0=0, select bank0
  4030  0026  1303               	bcf	3,6	;RP1=0, select bank0
  4031  0027  0829               	movf	___flmul@b+3,w
  4032  0028  3980               	andlw	128
  4033  0029  00AE               	movwf	??___flmul
  4034  002A  082E               	movf	??___flmul,w
  4035  002B  00B3               	movwf	___flmul@sign
  4036  002C                     l2438:
  4037  002C  0829               	movf	___flmul@b+3,w
  4038  002D  00AE               	movwf	??___flmul
  4039  002E  072E               	addwf	??___flmul,w
  4040  002F  00AF               	movwf	??___flmul+1
  4041  0030  082F               	movf	??___flmul+1,w
  4042  0031  00B9               	movwf	___flmul@bexp
  4043  0032                     l2440:
  4044  0032  1FA8               	btfss	___flmul@b+2,7
  4045  0033  2835               	goto	u3051
  4046  0034  2836               	goto	u3050
  4047  0035                     u3051:
  4048  0035  2837               	goto	l2444
  4049  0036                     u3050:
  4050  0036                     l2442:
  4051  0036  1439               	bsf	___flmul@bexp,0
  4052  0037                     l2444:
  4053  0037  0839               	movf	___flmul@bexp,w
  4054  0038  1903               	btfsc	3,2
  4055  0039  283B               	goto	u3061
  4056  003A  283C               	goto	u3060
  4057  003B                     u3061:
  4058  003B  284B               	goto	l2452
  4059  003C                     u3060:
  4060  003C                     l2446:
  4061  003C  0A39               	incf	___flmul@bexp,w
  4062  003D  1D03               	btfss	3,2
  4063  003E  2840               	goto	u3071
  4064  003F  2841               	goto	u3070
  4065  0040                     u3071:
  4066  0040  2849               	goto	l2450
  4067  0041                     u3070:
  4068  0041                     l2448:
  4069  0041  3000               	movlw	0
  4070  0042  00A9               	movwf	___flmul@b+3
  4071  0043  3000               	movlw	0
  4072  0044  00A8               	movwf	___flmul@b+2
  4073  0045  3000               	movlw	0
  4074  0046  00A7               	movwf	___flmul@b+1
  4075  0047  3000               	movlw	0
  4076  0048  00A6               	movwf	___flmul@b
  4077  0049                     l2450:
  4078  0049  17A8               	bsf	___flmul@b+2,7
  4079  004A  2853               	goto	l2454
  4080  004B                     l2452:
  4081  004B  3000               	movlw	0
  4082  004C  00A9               	movwf	___flmul@b+3
  4083  004D  3000               	movlw	0
  4084  004E  00A8               	movwf	___flmul@b+2
  4085  004F  3000               	movlw	0
  4086  0050  00A7               	movwf	___flmul@b+1
  4087  0051  3000               	movlw	0
  4088  0052  00A6               	movwf	___flmul@b
  4089  0053                     l2454:
  4090  0053  082D               	movf	___flmul@a+3,w
  4091  0054  3980               	andlw	128
  4092  0055  00AE               	movwf	??___flmul
  4093  0056  082E               	movf	??___flmul,w
  4094  0057  06B3               	xorwf	___flmul@sign,f
  4095  0058                     l2456:
  4096  0058  082D               	movf	___flmul@a+3,w
  4097  0059  00AE               	movwf	??___flmul
  4098  005A  072E               	addwf	??___flmul,w
  4099  005B  00AF               	movwf	??___flmul+1
  4100  005C  082F               	movf	??___flmul+1,w
  4101  005D  00B4               	movwf	___flmul@aexp
  4102  005E                     l2458:
  4103  005E  1FAC               	btfss	___flmul@a+2,7
  4104  005F  2861               	goto	u3081
  4105  0060  2862               	goto	u3080
  4106  0061                     u3081:
  4107  0061  2863               	goto	l2462
  4108  0062                     u3080:
  4109  0062                     l2460:
  4110  0062  1434               	bsf	___flmul@aexp,0
  4111  0063                     l2462:
  4112  0063  0834               	movf	___flmul@aexp,w
  4113  0064  1903               	btfsc	3,2
  4114  0065  2867               	goto	u3091
  4115  0066  2868               	goto	u3090
  4116  0067                     u3091:
  4117  0067  2877               	goto	l2470
  4118  0068                     u3090:
  4119  0068                     l2464:
  4120  0068  0A34               	incf	___flmul@aexp,w
  4121  0069  1D03               	btfss	3,2
  4122  006A  286C               	goto	u3101
  4123  006B  286D               	goto	u3100
  4124  006C                     u3101:
  4125  006C  2875               	goto	l2468
  4126  006D                     u3100:
  4127  006D                     l2466:
  4128  006D  3000               	movlw	0
  4129  006E  00AD               	movwf	___flmul@a+3
  4130  006F  3000               	movlw	0
  4131  0070  00AC               	movwf	___flmul@a+2
  4132  0071  3000               	movlw	0
  4133  0072  00AB               	movwf	___flmul@a+1
  4134  0073  3000               	movlw	0
  4135  0074  00AA               	movwf	___flmul@a
  4136  0075                     l2468:
  4137  0075  17AC               	bsf	___flmul@a+2,7
  4138  0076  287F               	goto	l2472
  4139  0077                     l2470:
  4140  0077  3000               	movlw	0
  4141  0078  00AD               	movwf	___flmul@a+3
  4142  0079  3000               	movlw	0
  4143  007A  00AC               	movwf	___flmul@a+2
  4144  007B  3000               	movlw	0
  4145  007C  00AB               	movwf	___flmul@a+1
  4146  007D  3000               	movlw	0
  4147  007E  00AA               	movwf	___flmul@a
  4148  007F                     l2472:
  4149  007F  0834               	movf	___flmul@aexp,w
  4150  0080  1903               	btfsc	3,2
  4151  0081  2883               	goto	u3111
  4152  0082  2884               	goto	u3110
  4153  0083                     u3111:
  4154  0083  2889               	goto	l2476
  4155  0084                     u3110:
  4156  0084                     l2474:
  4157  0084  0839               	movf	___flmul@bexp,w
  4158  0085  1D03               	btfss	3,2
  4159  0086  2888               	goto	u3121
  4160  0087  2889               	goto	u3120
  4161  0088                     u3121:
  4162  0088  2892               	goto	l2480
  4163  0089                     u3120:
  4164  0089                     l2476:
  4165  0089  3000               	movlw	0
  4166  008A  00A9               	movwf	?___flmul+3
  4167  008B  3000               	movlw	0
  4168  008C  00A8               	movwf	?___flmul+2
  4169  008D  3000               	movlw	0
  4170  008E  00A7               	movwf	?___flmul+1
  4171  008F  3000               	movlw	0
  4172  0090  00A6               	movwf	?___flmul
  4173  0091  2B85               	goto	l661
  4174  0092                     l2480:
  4175  0092  0826               	movf	___flmul@b,w
  4176  0093  00AE               	movwf	??___flmul
  4177  0094  082E               	movf	??___flmul,w
  4178  0095  00F2               	movwf	__Umul8_16@multiplicand
  4179  0096  082C               	movf	___flmul@a+2,w
  4180  0097  120A  158A  23A8  120A  118A  	fcall	__Umul8_16
  4181  009C  0873               	movf	?__Umul8_16+1,w
  4182  009D  1283               	bcf	3,5	;RP0=0, select bank0
  4183  009E  1303               	bcf	3,6	;RP1=0, select bank0
  4184  009F  00BF               	movwf	___flmul@temp+1
  4185  00A0  0872               	movf	?__Umul8_16,w
  4186  00A1  00BE               	movwf	___flmul@temp
  4187  00A2                     l2482:
  4188  00A2  083E               	movf	___flmul@temp,w
  4189  00A3  00AE               	movwf	??___flmul
  4190  00A4  01AF               	clrf	??___flmul+1
  4191  00A5  01B0               	clrf	??___flmul+2
  4192  00A6  01B1               	clrf	??___flmul+3
  4193  00A7  0831               	movf	??___flmul+3,w
  4194  00A8  00B8               	movwf	___flmul@grs+3
  4195  00A9  0830               	movf	??___flmul+2,w
  4196  00AA  00B7               	movwf	___flmul@grs+2
  4197  00AB  082F               	movf	??___flmul+1,w
  4198  00AC  00B6               	movwf	___flmul@grs+1
  4199  00AD  082E               	movf	??___flmul,w
  4200  00AE  00B5               	movwf	___flmul@grs
  4201  00AF                     l2484:
  4202  00AF  083F               	movf	___flmul@temp+1,w
  4203  00B0  00AE               	movwf	??___flmul
  4204  00B1  01AF               	clrf	??___flmul+1
  4205  00B2  01B0               	clrf	??___flmul+2
  4206  00B3  01B1               	clrf	??___flmul+3
  4207  00B4  0831               	movf	??___flmul+3,w
  4208  00B5  00BD               	movwf	___flmul@prod+3
  4209  00B6  0830               	movf	??___flmul+2,w
  4210  00B7  00BC               	movwf	___flmul@prod+2
  4211  00B8  082F               	movf	??___flmul+1,w
  4212  00B9  00BB               	movwf	___flmul@prod+1
  4213  00BA  082E               	movf	??___flmul,w
  4214  00BB  00BA               	movwf	___flmul@prod
  4215  00BC  0827               	movf	___flmul@b+1,w
  4216  00BD  00AE               	movwf	??___flmul
  4217  00BE  082E               	movf	??___flmul,w
  4218  00BF  00F2               	movwf	__Umul8_16@multiplicand
  4219  00C0  082B               	movf	___flmul@a+1,w
  4220  00C1  120A  158A  23A8  120A  118A  	fcall	__Umul8_16
  4221  00C6  0873               	movf	?__Umul8_16+1,w
  4222  00C7  1283               	bcf	3,5	;RP0=0, select bank0
  4223  00C8  1303               	bcf	3,6	;RP1=0, select bank0
  4224  00C9  00BF               	movwf	___flmul@temp+1
  4225  00CA  0872               	movf	?__Umul8_16,w
  4226  00CB  00BE               	movwf	___flmul@temp
  4227  00CC                     l2486:
  4228  00CC  083E               	movf	___flmul@temp,w
  4229  00CD  00AE               	movwf	??___flmul
  4230  00CE  01AF               	clrf	??___flmul+1
  4231  00CF  01B0               	clrf	??___flmul+2
  4232  00D0  01B1               	clrf	??___flmul+3
  4233  00D1  082E               	movf	??___flmul,w
  4234  00D2  07B5               	addwf	___flmul@grs,f
  4235  00D3  082F               	movf	??___flmul+1,w
  4236  00D4  1103               	clrz
  4237  00D5  1803               	skipnc
  4238  00D6  3E01               	addlw	1
  4239  00D7  1903               	skipnz
  4240  00D8  28DA               	goto	u3131
  4241  00D9  07B6               	addwf	___flmul@grs+1,f
  4242  00DA                     u3131:
  4243  00DA  0830               	movf	??___flmul+2,w
  4244  00DB  1103               	clrz
  4245  00DC  1803               	skipnc
  4246  00DD  3E01               	addlw	1
  4247  00DE  1903               	skipnz
  4248  00DF  28E1               	goto	u3132
  4249  00E0  07B7               	addwf	___flmul@grs+2,f
  4250  00E1                     u3132:
  4251  00E1  0831               	movf	??___flmul+3,w
  4252  00E2  1103               	clrz
  4253  00E3  1803               	skipnc
  4254  00E4  3E01               	addlw	1
  4255  00E5  1903               	skipnz
  4256  00E6  28E8               	goto	u3133
  4257  00E7  07B8               	addwf	___flmul@grs+3,f
  4258  00E8                     u3133:
  4259  00E8                     l2488:
  4260  00E8  083F               	movf	___flmul@temp+1,w
  4261  00E9  00AE               	movwf	??___flmul
  4262  00EA  01AF               	clrf	??___flmul+1
  4263  00EB  01B0               	clrf	??___flmul+2
  4264  00EC  01B1               	clrf	??___flmul+3
  4265  00ED  082E               	movf	??___flmul,w
  4266  00EE  07BA               	addwf	___flmul@prod,f
  4267  00EF  082F               	movf	??___flmul+1,w
  4268  00F0  1103               	clrz
  4269  00F1  1803               	skipnc
  4270  00F2  3E01               	addlw	1
  4271  00F3  1903               	skipnz
  4272  00F4  28F6               	goto	u3141
  4273  00F5  07BB               	addwf	___flmul@prod+1,f
  4274  00F6                     u3141:
  4275  00F6  0830               	movf	??___flmul+2,w
  4276  00F7  1103               	clrz
  4277  00F8  1803               	skipnc
  4278  00F9  3E01               	addlw	1
  4279  00FA  1903               	skipnz
  4280  00FB  28FD               	goto	u3142
  4281  00FC  07BC               	addwf	___flmul@prod+2,f
  4282  00FD                     u3142:
  4283  00FD  0831               	movf	??___flmul+3,w
  4284  00FE  1103               	clrz
  4285  00FF  1803               	skipnc
  4286  0100  3E01               	addlw	1
  4287  0101  1903               	skipnz
  4288  0102  2904               	goto	u3143
  4289  0103  07BD               	addwf	___flmul@prod+3,f
  4290  0104                     u3143:
  4291  0104  0828               	movf	___flmul@b+2,w
  4292  0105  00AE               	movwf	??___flmul
  4293  0106  082E               	movf	??___flmul,w
  4294  0107  00F2               	movwf	__Umul8_16@multiplicand
  4295  0108  082A               	movf	___flmul@a,w
  4296  0109  120A  158A  23A8  120A  118A  	fcall	__Umul8_16
  4297  010E  0873               	movf	?__Umul8_16+1,w
  4298  010F  1283               	bcf	3,5	;RP0=0, select bank0
  4299  0110  1303               	bcf	3,6	;RP1=0, select bank0
  4300  0111  00BF               	movwf	___flmul@temp+1
  4301  0112  0872               	movf	?__Umul8_16,w
  4302  0113  00BE               	movwf	___flmul@temp
  4303  0114                     l2490:
  4304  0114  083E               	movf	___flmul@temp,w
  4305  0115  00AE               	movwf	??___flmul
  4306  0116  01AF               	clrf	??___flmul+1
  4307  0117  01B0               	clrf	??___flmul+2
  4308  0118  01B1               	clrf	??___flmul+3
  4309  0119  082E               	movf	??___flmul,w
  4310  011A  07B5               	addwf	___flmul@grs,f
  4311  011B  082F               	movf	??___flmul+1,w
  4312  011C  1103               	clrz
  4313  011D  1803               	skipnc
  4314  011E  3E01               	addlw	1
  4315  011F  1903               	skipnz
  4316  0120  2922               	goto	u3151
  4317  0121  07B6               	addwf	___flmul@grs+1,f
  4318  0122                     u3151:
  4319  0122  0830               	movf	??___flmul+2,w
  4320  0123  1103               	clrz
  4321  0124  1803               	skipnc
  4322  0125  3E01               	addlw	1
  4323  0126  1903               	skipnz
  4324  0127  2929               	goto	u3152
  4325  0128  07B7               	addwf	___flmul@grs+2,f
  4326  0129                     u3152:
  4327  0129  0831               	movf	??___flmul+3,w
  4328  012A  1103               	clrz
  4329  012B  1803               	skipnc
  4330  012C  3E01               	addlw	1
  4331  012D  1903               	skipnz
  4332  012E  2930               	goto	u3153
  4333  012F  07B8               	addwf	___flmul@grs+3,f
  4334  0130                     u3153:
  4335  0130                     l2492:
  4336  0130  083F               	movf	___flmul@temp+1,w
  4337  0131  00AE               	movwf	??___flmul
  4338  0132  01AF               	clrf	??___flmul+1
  4339  0133  01B0               	clrf	??___flmul+2
  4340  0134  01B1               	clrf	??___flmul+3
  4341  0135  082E               	movf	??___flmul,w
  4342  0136  07BA               	addwf	___flmul@prod,f
  4343  0137  082F               	movf	??___flmul+1,w
  4344  0138  1103               	clrz
  4345  0139  1803               	skipnc
  4346  013A  3E01               	addlw	1
  4347  013B  1903               	skipnz
  4348  013C  293E               	goto	u3161
  4349  013D  07BB               	addwf	___flmul@prod+1,f
  4350  013E                     u3161:
  4351  013E  0830               	movf	??___flmul+2,w
  4352  013F  1103               	clrz
  4353  0140  1803               	skipnc
  4354  0141  3E01               	addlw	1
  4355  0142  1903               	skipnz
  4356  0143  2945               	goto	u3162
  4357  0144  07BC               	addwf	___flmul@prod+2,f
  4358  0145                     u3162:
  4359  0145  0831               	movf	??___flmul+3,w
  4360  0146  1103               	clrz
  4361  0147  1803               	skipnc
  4362  0148  3E01               	addlw	1
  4363  0149  1903               	skipnz
  4364  014A  294C               	goto	u3163
  4365  014B  07BD               	addwf	___flmul@prod+3,f
  4366  014C                     u3163:
  4367  014C                     l2494:
  4368  014C  3008               	movlw	8
  4369  014D  00AE               	movwf	??___flmul
  4370  014E                     u3175:
  4371  014E  1003               	clrc
  4372  014F  0DB5               	rlf	___flmul@grs,f
  4373  0150  0DB6               	rlf	___flmul@grs+1,f
  4374  0151  0DB7               	rlf	___flmul@grs+2,f
  4375  0152  0DB8               	rlf	___flmul@grs+3,f
  4376  0153  0BAE               	decfsz	??___flmul,f
  4377  0154  294E               	goto	u3175
  4378  0155                     l2496:
  4379  0155  0827               	movf	___flmul@b+1,w
  4380  0156  00AE               	movwf	??___flmul
  4381  0157  082E               	movf	??___flmul,w
  4382  0158  00F2               	movwf	__Umul8_16@multiplicand
  4383  0159  082A               	movf	___flmul@a,w
  4384  015A  120A  158A  23A8  120A  118A  	fcall	__Umul8_16
  4385  015F  0873               	movf	?__Umul8_16+1,w
  4386  0160  1283               	bcf	3,5	;RP0=0, select bank0
  4387  0161  1303               	bcf	3,6	;RP1=0, select bank0
  4388  0162  00BF               	movwf	___flmul@temp+1
  4389  0163  0872               	movf	?__Umul8_16,w
  4390  0164  00BE               	movwf	___flmul@temp
  4391  0165                     l2498:
  4392  0165  083E               	movf	___flmul@temp,w
  4393  0166  00AE               	movwf	??___flmul
  4394  0167  083F               	movf	___flmul@temp+1,w
  4395  0168  00AF               	movwf	??___flmul+1
  4396  0169  01B0               	clrf	??___flmul+2
  4397  016A  01B1               	clrf	??___flmul+3
  4398  016B  082E               	movf	??___flmul,w
  4399  016C  07B5               	addwf	___flmul@grs,f
  4400  016D  082F               	movf	??___flmul+1,w
  4401  016E  1103               	clrz
  4402  016F  1803               	skipnc
  4403  0170  3E01               	addlw	1
  4404  0171  1903               	skipnz
  4405  0172  2974               	goto	u3181
  4406  0173  07B6               	addwf	___flmul@grs+1,f
  4407  0174                     u3181:
  4408  0174  0830               	movf	??___flmul+2,w
  4409  0175  1103               	clrz
  4410  0176  1803               	skipnc
  4411  0177  3E01               	addlw	1
  4412  0178  1903               	skipnz
  4413  0179  297B               	goto	u3182
  4414  017A  07B7               	addwf	___flmul@grs+2,f
  4415  017B                     u3182:
  4416  017B  0831               	movf	??___flmul+3,w
  4417  017C  1103               	clrz
  4418  017D  1803               	skipnc
  4419  017E  3E01               	addlw	1
  4420  017F  1903               	skipnz
  4421  0180  2982               	goto	u3183
  4422  0181  07B8               	addwf	___flmul@grs+3,f
  4423  0182                     u3183:
  4424  0182                     l2500:
  4425  0182  0826               	movf	___flmul@b,w
  4426  0183  00AE               	movwf	??___flmul
  4427  0184  082E               	movf	??___flmul,w
  4428  0185  00F2               	movwf	__Umul8_16@multiplicand
  4429  0186  082B               	movf	___flmul@a+1,w
  4430  0187  120A  158A  23A8  120A  118A  	fcall	__Umul8_16
  4431  018C  0873               	movf	?__Umul8_16+1,w
  4432  018D  1283               	bcf	3,5	;RP0=0, select bank0
  4433  018E  1303               	bcf	3,6	;RP1=0, select bank0
  4434  018F  00BF               	movwf	___flmul@temp+1
  4435  0190  0872               	movf	?__Umul8_16,w
  4436  0191  00BE               	movwf	___flmul@temp
  4437  0192                     l2502:
  4438  0192  083E               	movf	___flmul@temp,w
  4439  0193  00AE               	movwf	??___flmul
  4440  0194  083F               	movf	___flmul@temp+1,w
  4441  0195  00AF               	movwf	??___flmul+1
  4442  0196  01B0               	clrf	??___flmul+2
  4443  0197  01B1               	clrf	??___flmul+3
  4444  0198  082E               	movf	??___flmul,w
  4445  0199  07B5               	addwf	___flmul@grs,f
  4446  019A  082F               	movf	??___flmul+1,w
  4447  019B  1103               	clrz
  4448  019C  1803               	skipnc
  4449  019D  3E01               	addlw	1
  4450  019E  1903               	skipnz
  4451  019F  29A1               	goto	u3191
  4452  01A0  07B6               	addwf	___flmul@grs+1,f
  4453  01A1                     u3191:
  4454  01A1  0830               	movf	??___flmul+2,w
  4455  01A2  1103               	clrz
  4456  01A3  1803               	skipnc
  4457  01A4  3E01               	addlw	1
  4458  01A5  1903               	skipnz
  4459  01A6  29A8               	goto	u3192
  4460  01A7  07B7               	addwf	___flmul@grs+2,f
  4461  01A8                     u3192:
  4462  01A8  0831               	movf	??___flmul+3,w
  4463  01A9  1103               	clrz
  4464  01AA  1803               	skipnc
  4465  01AB  3E01               	addlw	1
  4466  01AC  1903               	skipnz
  4467  01AD  29AF               	goto	u3193
  4468  01AE  07B8               	addwf	___flmul@grs+3,f
  4469  01AF                     u3193:
  4470  01AF                     l2504:
  4471  01AF  3008               	movlw	8
  4472  01B0  00AE               	movwf	??___flmul
  4473  01B1                     u3205:
  4474  01B1  1003               	clrc
  4475  01B2  0DB5               	rlf	___flmul@grs,f
  4476  01B3  0DB6               	rlf	___flmul@grs+1,f
  4477  01B4  0DB7               	rlf	___flmul@grs+2,f
  4478  01B5  0DB8               	rlf	___flmul@grs+3,f
  4479  01B6  0BAE               	decfsz	??___flmul,f
  4480  01B7  29B1               	goto	u3205
  4481  01B8  0826               	movf	___flmul@b,w
  4482  01B9  00AE               	movwf	??___flmul
  4483  01BA  082E               	movf	??___flmul,w
  4484  01BB  00F2               	movwf	__Umul8_16@multiplicand
  4485  01BC  082A               	movf	___flmul@a,w
  4486  01BD  120A  158A  23A8  120A  118A  	fcall	__Umul8_16
  4487  01C2  0873               	movf	?__Umul8_16+1,w
  4488  01C3  1283               	bcf	3,5	;RP0=0, select bank0
  4489  01C4  1303               	bcf	3,6	;RP1=0, select bank0
  4490  01C5  00BF               	movwf	___flmul@temp+1
  4491  01C6  0872               	movf	?__Umul8_16,w
  4492  01C7  00BE               	movwf	___flmul@temp
  4493  01C8                     l2506:
  4494  01C8  083E               	movf	___flmul@temp,w
  4495  01C9  00AE               	movwf	??___flmul
  4496  01CA  083F               	movf	___flmul@temp+1,w
  4497  01CB  00AF               	movwf	??___flmul+1
  4498  01CC  01B0               	clrf	??___flmul+2
  4499  01CD  01B1               	clrf	??___flmul+3
  4500  01CE  082E               	movf	??___flmul,w
  4501  01CF  07B5               	addwf	___flmul@grs,f
  4502  01D0  082F               	movf	??___flmul+1,w
  4503  01D1  1103               	clrz
  4504  01D2  1803               	skipnc
  4505  01D3  3E01               	addlw	1
  4506  01D4  1903               	skipnz
  4507  01D5  29D7               	goto	u3211
  4508  01D6  07B6               	addwf	___flmul@grs+1,f
  4509  01D7                     u3211:
  4510  01D7  0830               	movf	??___flmul+2,w
  4511  01D8  1103               	clrz
  4512  01D9  1803               	skipnc
  4513  01DA  3E01               	addlw	1
  4514  01DB  1903               	skipnz
  4515  01DC  29DE               	goto	u3212
  4516  01DD  07B7               	addwf	___flmul@grs+2,f
  4517  01DE                     u3212:
  4518  01DE  0831               	movf	??___flmul+3,w
  4519  01DF  1103               	clrz
  4520  01E0  1803               	skipnc
  4521  01E1  3E01               	addlw	1
  4522  01E2  1903               	skipnz
  4523  01E3  29E5               	goto	u3213
  4524  01E4  07B8               	addwf	___flmul@grs+3,f
  4525  01E5                     u3213:
  4526  01E5                     l2508:
  4527  01E5  0827               	movf	___flmul@b+1,w
  4528  01E6  00AE               	movwf	??___flmul
  4529  01E7  082E               	movf	??___flmul,w
  4530  01E8  00F2               	movwf	__Umul8_16@multiplicand
  4531  01E9  082C               	movf	___flmul@a+2,w
  4532  01EA  120A  158A  23A8  120A  118A  	fcall	__Umul8_16
  4533  01EF  0873               	movf	?__Umul8_16+1,w
  4534  01F0  1283               	bcf	3,5	;RP0=0, select bank0
  4535  01F1  1303               	bcf	3,6	;RP1=0, select bank0
  4536  01F2  00BF               	movwf	___flmul@temp+1
  4537  01F3  0872               	movf	?__Umul8_16,w
  4538  01F4  00BE               	movwf	___flmul@temp
  4539  01F5  083E               	movf	___flmul@temp,w
  4540  01F6  00AE               	movwf	??___flmul
  4541  01F7  083F               	movf	___flmul@temp+1,w
  4542  01F8  00AF               	movwf	??___flmul+1
  4543  01F9  01B0               	clrf	??___flmul+2
  4544  01FA  01B1               	clrf	??___flmul+3
  4545  01FB  082E               	movf	??___flmul,w
  4546  01FC  07BA               	addwf	___flmul@prod,f
  4547  01FD  082F               	movf	??___flmul+1,w
  4548  01FE  1103               	clrz
  4549  01FF  1803               	skipnc
  4550  0200  3E01               	addlw	1
  4551  0201  1903               	skipnz
  4552  0202  2A04               	goto	u3221
  4553  0203  07BB               	addwf	___flmul@prod+1,f
  4554  0204                     u3221:
  4555  0204  0830               	movf	??___flmul+2,w
  4556  0205  1103               	clrz
  4557  0206  1803               	skipnc
  4558  0207  3E01               	addlw	1
  4559  0208  1903               	skipnz
  4560  0209  2A0B               	goto	u3222
  4561  020A  07BC               	addwf	___flmul@prod+2,f
  4562  020B                     u3222:
  4563  020B  0831               	movf	??___flmul+3,w
  4564  020C  1103               	clrz
  4565  020D  1803               	skipnc
  4566  020E  3E01               	addlw	1
  4567  020F  1903               	skipnz
  4568  0210  2A12               	goto	u3223
  4569  0211  07BD               	addwf	___flmul@prod+3,f
  4570  0212                     u3223:
  4571  0212                     l2510:
  4572  0212  0828               	movf	___flmul@b+2,w
  4573  0213  00AE               	movwf	??___flmul
  4574  0214  082E               	movf	??___flmul,w
  4575  0215  00F2               	movwf	__Umul8_16@multiplicand
  4576  0216  082B               	movf	___flmul@a+1,w
  4577  0217  120A  158A  23A8  120A  118A  	fcall	__Umul8_16
  4578  021C  0873               	movf	?__Umul8_16+1,w
  4579  021D  1283               	bcf	3,5	;RP0=0, select bank0
  4580  021E  1303               	bcf	3,6	;RP1=0, select bank0
  4581  021F  00BF               	movwf	___flmul@temp+1
  4582  0220  0872               	movf	?__Umul8_16,w
  4583  0221  00BE               	movwf	___flmul@temp
  4584  0222                     l2512:
  4585  0222  083E               	movf	___flmul@temp,w
  4586  0223  00AE               	movwf	??___flmul
  4587  0224  083F               	movf	___flmul@temp+1,w
  4588  0225  00AF               	movwf	??___flmul+1
  4589  0226  01B0               	clrf	??___flmul+2
  4590  0227  01B1               	clrf	??___flmul+3
  4591  0228  082E               	movf	??___flmul,w
  4592  0229  07BA               	addwf	___flmul@prod,f
  4593  022A  082F               	movf	??___flmul+1,w
  4594  022B  1103               	clrz
  4595  022C  1803               	skipnc
  4596  022D  3E01               	addlw	1
  4597  022E  1903               	skipnz
  4598  022F  2A31               	goto	u3231
  4599  0230  07BB               	addwf	___flmul@prod+1,f
  4600  0231                     u3231:
  4601  0231  0830               	movf	??___flmul+2,w
  4602  0232  1103               	clrz
  4603  0233  1803               	skipnc
  4604  0234  3E01               	addlw	1
  4605  0235  1903               	skipnz
  4606  0236  2A38               	goto	u3232
  4607  0237  07BC               	addwf	___flmul@prod+2,f
  4608  0238                     u3232:
  4609  0238  0831               	movf	??___flmul+3,w
  4610  0239  1103               	clrz
  4611  023A  1803               	skipnc
  4612  023B  3E01               	addlw	1
  4613  023C  1903               	skipnz
  4614  023D  2A3F               	goto	u3233
  4615  023E  07BD               	addwf	___flmul@prod+3,f
  4616  023F                     u3233:
  4617  023F  0828               	movf	___flmul@b+2,w
  4618  0240  00AE               	movwf	??___flmul
  4619  0241  082E               	movf	??___flmul,w
  4620  0242  00F2               	movwf	__Umul8_16@multiplicand
  4621  0243  082C               	movf	___flmul@a+2,w
  4622  0244  120A  158A  23A8  120A  118A  	fcall	__Umul8_16
  4623  0249  0873               	movf	?__Umul8_16+1,w
  4624  024A  1283               	bcf	3,5	;RP0=0, select bank0
  4625  024B  1303               	bcf	3,6	;RP1=0, select bank0
  4626  024C  00BF               	movwf	___flmul@temp+1
  4627  024D  0872               	movf	?__Umul8_16,w
  4628  024E  00BE               	movwf	___flmul@temp
  4629  024F                     l2514:
  4630  024F  083E               	movf	___flmul@temp,w
  4631  0250  00AE               	movwf	??___flmul
  4632  0251  083F               	movf	___flmul@temp+1,w
  4633  0252  00AF               	movwf	??___flmul+1
  4634  0253  01B0               	clrf	??___flmul+2
  4635  0254  01B1               	clrf	??___flmul+3
  4636  0255  3008               	movlw	8
  4637  0256                     u3245:
  4638  0256  1003               	clrc
  4639  0257  0DAE               	rlf	??___flmul,f
  4640  0258  0DAF               	rlf	??___flmul+1,f
  4641  0259  0DB0               	rlf	??___flmul+2,f
  4642  025A  0DB1               	rlf	??___flmul+3,f
  4643  025B                     u3240:
  4644  025B  3EFF               	addlw	-1
  4645  025C  1D03               	skipz
  4646  025D  2A56               	goto	u3245
  4647  025E  082E               	movf	??___flmul,w
  4648  025F  07BA               	addwf	___flmul@prod,f
  4649  0260  082F               	movf	??___flmul+1,w
  4650  0261  1103               	clrz
  4651  0262  1803               	skipnc
  4652  0263  3E01               	addlw	1
  4653  0264  1903               	skipnz
  4654  0265  2A67               	goto	u3251
  4655  0266  07BB               	addwf	___flmul@prod+1,f
  4656  0267                     u3251:
  4657  0267  0830               	movf	??___flmul+2,w
  4658  0268  1103               	clrz
  4659  0269  1803               	skipnc
  4660  026A  3E01               	addlw	1
  4661  026B  1903               	skipnz
  4662  026C  2A6E               	goto	u3252
  4663  026D  07BC               	addwf	___flmul@prod+2,f
  4664  026E                     u3252:
  4665  026E  0831               	movf	??___flmul+3,w
  4666  026F  1103               	clrz
  4667  0270  1803               	skipnc
  4668  0271  3E01               	addlw	1
  4669  0272  1903               	skipnz
  4670  0273  2A75               	goto	u3253
  4671  0274  07BD               	addwf	___flmul@prod+3,f
  4672  0275                     u3253:
  4673  0275                     l2516:
  4674  0275  0835               	movf	___flmul@grs,w
  4675  0276  00AE               	movwf	??___flmul
  4676  0277  0836               	movf	___flmul@grs+1,w
  4677  0278  00AF               	movwf	??___flmul+1
  4678  0279  0837               	movf	___flmul@grs+2,w
  4679  027A  00B0               	movwf	??___flmul+2
  4680  027B  0838               	movf	___flmul@grs+3,w
  4681  027C  00B1               	movwf	??___flmul+3
  4682  027D  3018               	movlw	24
  4683  027E                     u3265:
  4684  027E  1003               	clrc
  4685  027F  0CB1               	rrf	??___flmul+3,f
  4686  0280  0CB0               	rrf	??___flmul+2,f
  4687  0281  0CAF               	rrf	??___flmul+1,f
  4688  0282  0CAE               	rrf	??___flmul,f
  4689  0283                     u3260:
  4690  0283  3EFF               	addlw	-1
  4691  0284  1D03               	skipz
  4692  0285  2A7E               	goto	u3265
  4693  0286  082E               	movf	??___flmul,w
  4694  0287  07BA               	addwf	___flmul@prod,f
  4695  0288  082F               	movf	??___flmul+1,w
  4696  0289  1103               	clrz
  4697  028A  1803               	skipnc
  4698  028B  3E01               	addlw	1
  4699  028C  1903               	skipnz
  4700  028D  2A8F               	goto	u3271
  4701  028E  07BB               	addwf	___flmul@prod+1,f
  4702  028F                     u3271:
  4703  028F  0830               	movf	??___flmul+2,w
  4704  0290  1103               	clrz
  4705  0291  1803               	skipnc
  4706  0292  3E01               	addlw	1
  4707  0293  1903               	skipnz
  4708  0294  2A96               	goto	u3272
  4709  0295  07BC               	addwf	___flmul@prod+2,f
  4710  0296                     u3272:
  4711  0296  0831               	movf	??___flmul+3,w
  4712  0297  1103               	clrz
  4713  0298  1803               	skipnc
  4714  0299  3E01               	addlw	1
  4715  029A  1903               	skipnz
  4716  029B  2A9D               	goto	u3273
  4717  029C  07BD               	addwf	___flmul@prod+3,f
  4718  029D                     u3273:
  4719  029D                     l2518:
  4720  029D  3008               	movlw	8
  4721  029E  00AE               	movwf	??___flmul
  4722  029F                     u3285:
  4723  029F  1003               	clrc
  4724  02A0  0DB5               	rlf	___flmul@grs,f
  4725  02A1  0DB6               	rlf	___flmul@grs+1,f
  4726  02A2  0DB7               	rlf	___flmul@grs+2,f
  4727  02A3  0DB8               	rlf	___flmul@grs+3,f
  4728  02A4  0BAE               	decfsz	??___flmul,f
  4729  02A5  2A9F               	goto	u3285
  4730  02A6                     l2520:
  4731  02A6  0839               	movf	___flmul@bexp,w
  4732  02A7  0734               	addwf	___flmul@aexp,w
  4733  02A8  00AE               	movwf	??___flmul
  4734  02A9  01AF               	clrf	??___flmul+1
  4735  02AA  0DAF               	rlf	??___flmul+1,f
  4736  02AB  082E               	movf	??___flmul,w
  4737  02AC  3E82               	addlw	130
  4738  02AD  00BE               	movwf	___flmul@temp
  4739  02AE  082F               	movf	??___flmul+1,w
  4740  02AF  1803               	skipnc
  4741  02B0  3E01               	addlw	1
  4742  02B1  3EFF               	addlw	255
  4743  02B2  00BF               	movwf	___flmul@temp+1
  4744  02B3  2AD1               	goto	l2532
  4745  02B4                     l2522:
  4746  02B4  3001               	movlw	1
  4747  02B5  00AE               	movwf	??___flmul
  4748  02B6                     u3295:
  4749  02B6  1003               	clrc
  4750  02B7  0DBA               	rlf	___flmul@prod,f
  4751  02B8  0DBB               	rlf	___flmul@prod+1,f
  4752  02B9  0DBC               	rlf	___flmul@prod+2,f
  4753  02BA  0DBD               	rlf	___flmul@prod+3,f
  4754  02BB  0BAE               	decfsz	??___flmul,f
  4755  02BC  2AB6               	goto	u3295
  4756  02BD                     l2524:
  4757  02BD  1FB8               	btfss	___flmul@grs+3,7
  4758  02BE  2AC0               	goto	u3301
  4759  02BF  2AC1               	goto	u3300
  4760  02C0                     u3301:
  4761  02C0  2AC2               	goto	l2528
  4762  02C1                     u3300:
  4763  02C1                     l2526:
  4764  02C1  143A               	bsf	___flmul@prod,0
  4765  02C2                     l2528:
  4766  02C2  3001               	movlw	1
  4767  02C3  00AE               	movwf	??___flmul
  4768  02C4                     u3315:
  4769  02C4  1003               	clrc
  4770  02C5  0DB5               	rlf	___flmul@grs,f
  4771  02C6  0DB6               	rlf	___flmul@grs+1,f
  4772  02C7  0DB7               	rlf	___flmul@grs+2,f
  4773  02C8  0DB8               	rlf	___flmul@grs+3,f
  4774  02C9  0BAE               	decfsz	??___flmul,f
  4775  02CA  2AC4               	goto	u3315
  4776  02CB                     l2530:
  4777  02CB  30FF               	movlw	255
  4778  02CC  07BE               	addwf	___flmul@temp,f
  4779  02CD  1803               	skipnc
  4780  02CE  0ABF               	incf	___flmul@temp+1,f
  4781  02CF  30FF               	movlw	255
  4782  02D0  07BF               	addwf	___flmul@temp+1,f
  4783  02D1                     l2532:
  4784  02D1  1FBC               	btfss	___flmul@prod+2,7
  4785  02D2  2AD4               	goto	u3321
  4786  02D3  2AD5               	goto	u3320
  4787  02D4                     u3321:
  4788  02D4  2AB4               	goto	l2522
  4789  02D5                     u3320:
  4790  02D5                     l2534:
  4791  02D5  01B4               	clrf	___flmul@aexp
  4792  02D6                     l2536:
  4793  02D6  1FB8               	btfss	___flmul@grs+3,7
  4794  02D7  2AD9               	goto	u3331
  4795  02D8  2ADA               	goto	u3330
  4796  02D9                     u3331:
  4797  02D9  2AF6               	goto	l2544
  4798  02DA                     u3330:
  4799  02DA                     l2538:
  4800  02DA  30FF               	movlw	255
  4801  02DB  0535               	andwf	___flmul@grs,w
  4802  02DC  00AE               	movwf	??___flmul
  4803  02DD  30FF               	movlw	255
  4804  02DE  0536               	andwf	___flmul@grs+1,w
  4805  02DF  00AF               	movwf	??___flmul+1
  4806  02E0  30FF               	movlw	255
  4807  02E1  0537               	andwf	___flmul@grs+2,w
  4808  02E2  00B0               	movwf	??___flmul+2
  4809  02E3  307F               	movlw	127
  4810  02E4  0538               	andwf	___flmul@grs+3,w
  4811  02E5  00B1               	movwf	??___flmul+3
  4812  02E6  0831               	movf	??___flmul+3,w
  4813  02E7  0430               	iorwf	??___flmul+2,w
  4814  02E8  042F               	iorwf	??___flmul+1,w
  4815  02E9  042E               	iorwf	??___flmul,w
  4816  02EA  1903               	skipnz
  4817  02EB  2AED               	goto	u3341
  4818  02EC  2AEE               	goto	u3340
  4819  02ED                     u3341:
  4820  02ED  2AF1               	goto	l667
  4821  02EE                     u3340:
  4822  02EE                     l2540:
  4823  02EE  01B4               	clrf	___flmul@aexp
  4824  02EF  0AB4               	incf	___flmul@aexp,f
  4825  02F0  2AF6               	goto	l2544
  4826  02F1                     l667:
  4827  02F1  1C3A               	btfss	___flmul@prod,0
  4828  02F2  2AF4               	goto	u3351
  4829  02F3  2AF5               	goto	u3350
  4830  02F4                     u3351:
  4831  02F4  2AF6               	goto	l2544
  4832  02F5                     u3350:
  4833  02F5  2AEE               	goto	l2540
  4834  02F6                     l2544:
  4835  02F6  0834               	movf	___flmul@aexp,w
  4836  02F7  1903               	btfsc	3,2
  4837  02F8  2AFA               	goto	u3361
  4838  02F9  2AFB               	goto	u3360
  4839  02FA                     u3361:
  4840  02FA  2B2C               	goto	l2554
  4841  02FB                     u3360:
  4842  02FB                     l2546:
  4843  02FB  3001               	movlw	1
  4844  02FC  07BA               	addwf	___flmul@prod,f
  4845  02FD  3000               	movlw	0
  4846  02FE  1803               	skipnc
  4847  02FF  3001               	movlw	1
  4848  0300  07BB               	addwf	___flmul@prod+1,f
  4849  0301  3000               	movlw	0
  4850  0302  1803               	skipnc
  4851  0303  3001               	movlw	1
  4852  0304  07BC               	addwf	___flmul@prod+2,f
  4853  0305  3000               	movlw	0
  4854  0306  1803               	skipnc
  4855  0307  3001               	movlw	1
  4856  0308  07BD               	addwf	___flmul@prod+3,f
  4857  0309                     l2548:
  4858  0309  1C3D               	btfss	___flmul@prod+3,0
  4859  030A  2B0C               	goto	u3371
  4860  030B  2B0D               	goto	u3370
  4861  030C                     u3371:
  4862  030C  2B2C               	goto	l2554
  4863  030D                     u3370:
  4864  030D                     l2550:
  4865  030D  083A               	movf	___flmul@prod,w
  4866  030E  00AE               	movwf	??___flmul
  4867  030F  083B               	movf	___flmul@prod+1,w
  4868  0310  00AF               	movwf	??___flmul+1
  4869  0311  083C               	movf	___flmul@prod+2,w
  4870  0312  00B0               	movwf	??___flmul+2
  4871  0313  083D               	movf	___flmul@prod+3,w
  4872  0314  00B1               	movwf	??___flmul+3
  4873  0315  3001               	movlw	1
  4874  0316  00B2               	movwf	??___flmul+4
  4875  0317                     u3385:
  4876  0317  0D31               	rlf	??___flmul+3,w
  4877  0318  0CB1               	rrf	??___flmul+3,f
  4878  0319  0CB0               	rrf	??___flmul+2,f
  4879  031A  0CAF               	rrf	??___flmul+1,f
  4880  031B  0CAE               	rrf	??___flmul,f
  4881  031C                     u3380:
  4882  031C  0BB2               	decfsz	??___flmul+4,f
  4883  031D  2B17               	goto	u3385
  4884  031E  0831               	movf	??___flmul+3,w
  4885  031F  00BD               	movwf	___flmul@prod+3
  4886  0320  0830               	movf	??___flmul+2,w
  4887  0321  00BC               	movwf	___flmul@prod+2
  4888  0322  082F               	movf	??___flmul+1,w
  4889  0323  00BB               	movwf	___flmul@prod+1
  4890  0324  082E               	movf	??___flmul,w
  4891  0325  00BA               	movwf	___flmul@prod
  4892  0326                     l2552:
  4893  0326  3001               	movlw	1
  4894  0327  07BE               	addwf	___flmul@temp,f
  4895  0328  1803               	skipnc
  4896  0329  0ABF               	incf	___flmul@temp+1,f
  4897  032A  3000               	movlw	0
  4898  032B  07BF               	addwf	___flmul@temp+1,f
  4899  032C                     l2554:
  4900  032C  083F               	movf	___flmul@temp+1,w
  4901  032D  3A80               	xorlw	128
  4902  032E  00FF               	movwf	btemp+1
  4903  032F  3080               	movlw	128
  4904  0330  027F               	subwf	btemp+1,w
  4905  0331  1D03               	skipz
  4906  0332  2B35               	goto	u3395
  4907  0333  30FF               	movlw	255
  4908  0334  023E               	subwf	___flmul@temp,w
  4909  0335                     u3395:
  4910  0335  1C03               	skipc
  4911  0336  2B38               	goto	u3391
  4912  0337  2B39               	goto	u3390
  4913  0338                     u3391:
  4914  0338  2B44               	goto	l2558
  4915  0339                     u3390:
  4916  0339                     l2556:
  4917  0339  307F               	movlw	127
  4918  033A  1283               	bcf	3,5	;RP0=0, select bank0
  4919  033B  1303               	bcf	3,6	;RP1=0, select bank0
  4920  033C  00BD               	movwf	___flmul@prod+3
  4921  033D  3080               	movlw	128
  4922  033E  00BC               	movwf	___flmul@prod+2
  4923  033F  3000               	movlw	0
  4924  0340  00BB               	movwf	___flmul@prod+1
  4925  0341  3000               	movlw	0
  4926  0342  00BA               	movwf	___flmul@prod
  4927  0343  2B79               	goto	l673
  4928  0344                     l2558:
  4929  0344  1283               	bcf	3,5	;RP0=0, select bank0
  4930  0345  1303               	bcf	3,6	;RP1=0, select bank0
  4931  0346  083F               	movf	___flmul@temp+1,w
  4932  0347  3A80               	xorlw	128
  4933  0348  00FF               	movwf	btemp+1
  4934  0349  3080               	movlw	128
  4935  034A  027F               	subwf	btemp+1,w
  4936  034B  1D03               	skipz
  4937  034C  2B4F               	goto	u3405
  4938  034D  3001               	movlw	1
  4939  034E  023E               	subwf	___flmul@temp,w
  4940  034F                     u3405:
  4941  034F  1803               	skipnc
  4942  0350  2B52               	goto	u3401
  4943  0351  2B53               	goto	u3400
  4944  0352                     u3401:
  4945  0352  2B5F               	goto	l2564
  4946  0353                     u3400:
  4947  0353                     l2560:
  4948  0353  3000               	movlw	0
  4949  0354  1283               	bcf	3,5	;RP0=0, select bank0
  4950  0355  1303               	bcf	3,6	;RP1=0, select bank0
  4951  0356  00BD               	movwf	___flmul@prod+3
  4952  0357  3000               	movlw	0
  4953  0358  00BC               	movwf	___flmul@prod+2
  4954  0359  3000               	movlw	0
  4955  035A  00BB               	movwf	___flmul@prod+1
  4956  035B  3000               	movlw	0
  4957  035C  00BA               	movwf	___flmul@prod
  4958  035D                     l2562:
  4959  035D  01B3               	clrf	___flmul@sign
  4960  035E  2B79               	goto	l673
  4961  035F                     l2564:
  4962  035F  1283               	bcf	3,5	;RP0=0, select bank0
  4963  0360  1303               	bcf	3,6	;RP1=0, select bank0
  4964  0361  083E               	movf	___flmul@temp,w
  4965  0362  00AE               	movwf	??___flmul
  4966  0363  082E               	movf	??___flmul,w
  4967  0364  00B9               	movwf	___flmul@bexp
  4968  0365  30FF               	movlw	255
  4969  0366  05BA               	andwf	___flmul@prod,f
  4970  0367  30FF               	movlw	255
  4971  0368  05BB               	andwf	___flmul@prod+1,f
  4972  0369  307F               	movlw	127
  4973  036A  05BC               	andwf	___flmul@prod+2,f
  4974  036B  3000               	movlw	0
  4975  036C  05BD               	andwf	___flmul@prod+3,f
  4976  036D                     l2566:
  4977  036D  1C39               	btfss	___flmul@bexp,0
  4978  036E  2B70               	goto	u3411
  4979  036F  2B71               	goto	u3410
  4980  0370                     u3411:
  4981  0370  2B72               	goto	l2570
  4982  0371                     u3410:
  4983  0371                     l2568:
  4984  0371  17BC               	bsf	___flmul@prod+2,7
  4985  0372                     l2570:
  4986  0372  0839               	movf	___flmul@bexp,w
  4987  0373  00AE               	movwf	??___flmul
  4988  0374  1003               	clrc
  4989  0375  0C2E               	rrf	??___flmul,w
  4990  0376  00AF               	movwf	??___flmul+1
  4991  0377  082F               	movf	??___flmul+1,w
  4992  0378  00BD               	movwf	___flmul@prod+3
  4993  0379                     l673:
  4994  0379  0833               	movf	___flmul@sign,w
  4995  037A  00AE               	movwf	??___flmul
  4996  037B  082E               	movf	??___flmul,w
  4997  037C  04BD               	iorwf	___flmul@prod+3,f
  4998  037D                     l2572:
  4999  037D  083D               	movf	___flmul@prod+3,w
  5000  037E  00A9               	movwf	?___flmul+3
  5001  037F  083C               	movf	___flmul@prod+2,w
  5002  0380  00A8               	movwf	?___flmul+2
  5003  0381  083B               	movf	___flmul@prod+1,w
  5004  0382  00A7               	movwf	?___flmul+1
  5005  0383  083A               	movf	___flmul@prod,w
  5006  0384  00A6               	movwf	?___flmul
  5007  0385                     l661:
  5008  0385  0008               	return
  5009  0386                     __end_of___flmul:
  5010                           
  5011                           	psect	text14
  5012  0BA8                     __ptext14:	
  5013 ;; *************** function __Umul8_16 *****************
  5014 ;; Defined at:
  5015 ;;		line 4 in file "C:\Program Files\Microchip\xc8\v2.31\pic\sources\c90\common\Umul8_16.c"
  5016 ;; Parameters:    Size  Location     Type
  5017 ;;  multiplier      1    wreg     unsigned char 
  5018 ;;  multiplicand    1    2[COMMON] unsigned char 
  5019 ;; Auto vars:     Size  Location     Type
  5020 ;;  multiplier      1    4[BANK0 ] unsigned char 
  5021 ;;  word_mpld       2    2[BANK0 ] unsigned int 
  5022 ;;  product         2    0[BANK0 ] unsigned int 
  5023 ;; Return value:  Size  Location     Type
  5024 ;;                  2    2[COMMON] unsigned int 
  5025 ;; Registers used:
  5026 ;;		wreg, status,2, status,0
  5027 ;; Tracked objects:
  5028 ;;		On entry : 0/0
  5029 ;;		On exit  : 0/0
  5030 ;;		Unchanged: 0/0
  5031 ;; Data sizes:     COMMON   BANK0   BANK1   BANK3   BANK2
  5032 ;;      Params:         2       0       0       0       0
  5033 ;;      Locals:         0       5       0       0       0
  5034 ;;      Temps:          2       0       0       0       0
  5035 ;;      Totals:         4       5       0       0       0
  5036 ;;Total ram usage:        9 bytes
  5037 ;; Hardware stack levels used:    1
  5038 ;; Hardware stack levels required when called:    1
  5039 ;; This function calls:
  5040 ;;		Nothing
  5041 ;; This function is called by:
  5042 ;;		___flmul
  5043 ;; This function uses a non-reentrant model
  5044 ;;
  5045                           
  5046                           
  5047                           ;psect for function __Umul8_16
  5048  0BA8                     __Umul8_16:
  5049                           
  5050                           ;incstack = 0
  5051                           ; Regs used in __Umul8_16: [wreg+status,2+status,0]
  5052                           ;__Umul8_16@multiplier stored from wreg
  5053  0BA8  1283               	bcf	3,5	;RP0=0, select bank0
  5054  0BA9  1303               	bcf	3,6	;RP1=0, select bank0
  5055  0BAA  00A4               	movwf	__Umul8_16@multiplier
  5056  0BAB                     l2380:
  5057  0BAB  01A0               	clrf	__Umul8_16@product
  5058  0BAC  01A1               	clrf	__Umul8_16@product+1
  5059  0BAD                     l2382:
  5060  0BAD  0872               	movf	__Umul8_16@multiplicand,w
  5061  0BAE  00F4               	movwf	??__Umul8_16
  5062  0BAF  01F5               	clrf	??__Umul8_16+1
  5063  0BB0  0874               	movf	??__Umul8_16,w
  5064  0BB1  00A2               	movwf	__Umul8_16@word_mpld
  5065  0BB2  0875               	movf	??__Umul8_16+1,w
  5066  0BB3  00A3               	movwf	__Umul8_16@word_mpld+1
  5067  0BB4                     l2384:
  5068  0BB4  1C24               	btfss	__Umul8_16@multiplier,0
  5069  0BB5  2BB7               	goto	u2981
  5070  0BB6  2BB8               	goto	u2980
  5071  0BB7                     u2981:
  5072  0BB7  2BBE               	goto	l680
  5073  0BB8                     u2980:
  5074  0BB8                     l2386:
  5075  0BB8  0822               	movf	__Umul8_16@word_mpld,w
  5076  0BB9  07A0               	addwf	__Umul8_16@product,f
  5077  0BBA  1803               	skipnc
  5078  0BBB  0AA1               	incf	__Umul8_16@product+1,f
  5079  0BBC  0823               	movf	__Umul8_16@word_mpld+1,w
  5080  0BBD  07A1               	addwf	__Umul8_16@product+1,f
  5081  0BBE                     l680:
  5082  0BBE  3001               	movlw	1
  5083  0BBF                     u2995:
  5084  0BBF  1003               	clrc
  5085  0BC0  0DA2               	rlf	__Umul8_16@word_mpld,f
  5086  0BC1  0DA3               	rlf	__Umul8_16@word_mpld+1,f
  5087  0BC2  3EFF               	addlw	-1
  5088  0BC3  1D03               	skipz
  5089  0BC4  2BBF               	goto	u2995
  5090  0BC5  1003               	clrc
  5091  0BC6  0CA4               	rrf	__Umul8_16@multiplier,f
  5092  0BC7                     l2388:
  5093  0BC7  0824               	movf	__Umul8_16@multiplier,w
  5094  0BC8  1D03               	btfss	3,2
  5095  0BC9  2BCB               	goto	u3001
  5096  0BCA  2BCC               	goto	u3000
  5097  0BCB                     u3001:
  5098  0BCB  2BB4               	goto	l2384
  5099  0BCC                     u3000:
  5100  0BCC                     l2390:
  5101  0BCC  0821               	movf	__Umul8_16@product+1,w
  5102  0BCD  00F3               	movwf	?__Umul8_16+1
  5103  0BCE  0820               	movf	__Umul8_16@product,w
  5104  0BCF  00F2               	movwf	?__Umul8_16
  5105  0BD0                     l682:
  5106  0BD0  0008               	return
  5107  0BD1                     __end_of__Umul8_16:
  5108                           
  5109                           	psect	text15
  5110  0B3C                     __ptext15:	
  5111 ;; *************** function _cursorLCD *****************
  5112 ;; Defined at:
  5113 ;;		line 50 in file "LCDD2.c"
  5114 ;; Parameters:    Size  Location     Type
  5115 ;;  fila            1    wreg     unsigned char 
  5116 ;;  columna         1    5[COMMON] unsigned char 
  5117 ;; Auto vars:     Size  Location     Type
  5118 ;;  fila            1    7[COMMON] unsigned char 
  5119 ;;  temp            1    8[COMMON] unsigned char 
  5120 ;; Return value:  Size  Location     Type
  5121 ;;                  1    wreg      void 
  5122 ;; Registers used:
  5123 ;;		wreg, status,2, status,0, pclath, cstack
  5124 ;; Tracked objects:
  5125 ;;		On entry : 0/0
  5126 ;;		On exit  : 0/0
  5127 ;;		Unchanged: 0/0
  5128 ;; Data sizes:     COMMON   BANK0   BANK1   BANK3   BANK2
  5129 ;;      Params:         1       0       0       0       0
  5130 ;;      Locals:         2       0       0       0       0
  5131 ;;      Temps:          1       0       0       0       0
  5132 ;;      Totals:         4       0       0       0       0
  5133 ;;Total ram usage:        4 bytes
  5134 ;; Hardware stack levels used:    1
  5135 ;; Hardware stack levels required when called:    2
  5136 ;; This function calls:
  5137 ;;		_comandoLCD
  5138 ;; This function is called by:
  5139 ;;		_main
  5140 ;; This function uses a non-reentrant model
  5141 ;;
  5142                           
  5143                           
  5144                           ;psect for function _cursorLCD
  5145  0B3C                     _cursorLCD:
  5146                           
  5147                           ;incstack = 0
  5148                           ; Regs used in _cursorLCD: [wreg+status,2+status,0+pclath+cstack]
  5149                           ;cursorLCD@fila stored from wreg
  5150  0B3C  00F7               	movwf	cursorLCD@fila
  5151  0B3D                     l2228:
  5152                           
  5153                           ;LCDD2.c: 51:     uint8_t temp;;LCDD2.c: 52:     if(fila == 1){
  5154  0B3D  0377               	decf	cursorLCD@fila,w
  5155  0B3E  1D03               	btfss	3,2
  5156  0B3F  2B41               	goto	u2771
  5157  0B40  2B42               	goto	u2770
  5158  0B41                     u2771:
  5159  0B41  2B4D               	goto	l2234
  5160  0B42                     u2770:
  5161  0B42                     l2230:
  5162                           
  5163                           ;LCDD2.c: 53:         temp = 0X80 + columna - 1;
  5164  0B42  0875               	movf	cursorLCD@columna,w
  5165  0B43  3E7F               	addlw	127
  5166  0B44  00F6               	movwf	??_cursorLCD
  5167  0B45  0876               	movf	??_cursorLCD,w
  5168  0B46  00F8               	movwf	cursorLCD@temp
  5169  0B47                     l2232:
  5170                           
  5171                           ;LCDD2.c: 54:         comandoLCD(temp);
  5172  0B47  0878               	movf	cursorLCD@temp,w
  5173  0B48  120A  158A  22E8  120A  158A  	fcall	_comandoLCD
  5174  0B4D                     l2234:
  5175                           
  5176                           ;LCDD2.c: 57:     if(fila == 2){
  5177  0B4D  3002               	movlw	2
  5178  0B4E  0677               	xorwf	cursorLCD@fila,w
  5179  0B4F  1D03               	btfss	3,2
  5180  0B50  2B52               	goto	u2781
  5181  0B51  2B53               	goto	u2780
  5182  0B52                     u2781:
  5183  0B52  2B5E               	goto	l174
  5184  0B53                     u2780:
  5185  0B53                     l2236:
  5186                           
  5187                           ;LCDD2.c: 58:         temp = 0XC0 + columna -1;
  5188  0B53  0875               	movf	cursorLCD@columna,w
  5189  0B54  3EBF               	addlw	191
  5190  0B55  00F6               	movwf	??_cursorLCD
  5191  0B56  0876               	movf	??_cursorLCD,w
  5192  0B57  00F8               	movwf	cursorLCD@temp
  5193  0B58                     l2238:
  5194                           
  5195                           ;LCDD2.c: 59:         comandoLCD(temp);
  5196  0B58  0878               	movf	cursorLCD@temp,w
  5197  0B59  120A  158A  22E8  120A  158A  	fcall	_comandoLCD
  5198  0B5E                     l174:
  5199  0B5E  0008               	return
  5200  0B5F                     __end_of_cursorLCD:
  5201                           
  5202                           	psect	text16
  5203  0AE8                     __ptext16:	
  5204 ;; *************** function _comandoLCD *****************
  5205 ;; Defined at:
  5206 ;;		line 63 in file "LCDD2.c"
  5207 ;; Parameters:    Size  Location     Type
  5208 ;;  cmd             1    wreg     unsigned char 
  5209 ;; Auto vars:     Size  Location     Type
  5210 ;;  cmd             1    4[COMMON] unsigned char 
  5211 ;; Return value:  Size  Location     Type
  5212 ;;                  1    wreg      void 
  5213 ;; Registers used:
  5214 ;;		wreg
  5215 ;; Tracked objects:
  5216 ;;		On entry : 0/0
  5217 ;;		On exit  : 0/0
  5218 ;;		Unchanged: 0/0
  5219 ;; Data sizes:     COMMON   BANK0   BANK1   BANK3   BANK2
  5220 ;;      Params:         0       0       0       0       0
  5221 ;;      Locals:         1       0       0       0       0
  5222 ;;      Temps:          2       0       0       0       0
  5223 ;;      Totals:         3       0       0       0       0
  5224 ;;Total ram usage:        3 bytes
  5225 ;; Hardware stack levels used:    1
  5226 ;; Hardware stack levels required when called:    1
  5227 ;; This function calls:
  5228 ;;		Nothing
  5229 ;; This function is called by:
  5230 ;;		_initLCD
  5231 ;;		_cursorLCD
  5232 ;;		_ClearLCD
  5233 ;; This function uses a non-reentrant model
  5234 ;;
  5235                           
  5236                           
  5237                           ;psect for function _comandoLCD
  5238  0AE8                     _comandoLCD:
  5239                           
  5240                           ;incstack = 0
  5241                           ; Regs used in _comandoLCD: [wreg]
  5242                           ;comandoLCD@cmd stored from wreg
  5243  0AE8  00F4               	movwf	comandoLCD@cmd
  5244  0AE9                     l1894:
  5245                           
  5246                           ;LCDD2.c: 64:     RE0 = 0;
  5247  0AE9  1283               	bcf	3,5	;RP0=0, select bank0
  5248  0AEA  1303               	bcf	3,6	;RP1=0, select bank0
  5249  0AEB  1009               	bcf	9,0	;volatile
  5250  0AEC                     l1896:
  5251                           
  5252                           ;LCDD2.c: 65:     PORTD = cmd;
  5253  0AEC  0874               	movf	comandoLCD@cmd,w
  5254  0AED  0088               	movwf	8	;volatile
  5255  0AEE                     l1898:
  5256                           
  5257                           ;LCDD2.c: 66:     RE1 = 1;
  5258  0AEE  1489               	bsf	9,1	;volatile
  5259                           
  5260                           ;LCDD2.c: 67:     _delay((unsigned long)((4)*(8000000/4000.0)));
  5261  0AEF  300B               	movlw	11
  5262  0AF0  00F3               	movwf	??_comandoLCD+1
  5263  0AF1  3062               	movlw	98
  5264  0AF2  00F2               	movwf	??_comandoLCD
  5265  0AF3                     u3477:
  5266  0AF3  0BF2               	decfsz	??_comandoLCD,f
  5267  0AF4  2AF3               	goto	u3477
  5268  0AF5  0BF3               	decfsz	??_comandoLCD+1,f
  5269  0AF6  2AF3               	goto	u3477
  5270  0AF7  0000               	nop
  5271  0AF8                     l1900:
  5272                           
  5273                           ;LCDD2.c: 68:     RE1 = 0;
  5274  0AF8  1283               	bcf	3,5	;RP0=0, select bank0
  5275  0AF9  1303               	bcf	3,6	;RP1=0, select bank0
  5276  0AFA  1089               	bcf	9,1	;volatile
  5277  0AFB                     l177:
  5278  0AFB  0008               	return
  5279  0AFC                     __end_of_comandoLCD:
  5280                           
  5281                           	psect	text17
  5282  0B83                     __ptext17:	
  5283 ;; *************** function _config *****************
  5284 ;; Defined at:
  5285 ;;		line 129 in file "main.c"
  5286 ;; Parameters:    Size  Location     Type
  5287 ;;		None
  5288 ;; Auto vars:     Size  Location     Type
  5289 ;;		None
  5290 ;; Return value:  Size  Location     Type
  5291 ;;                  1    wreg      void 
  5292 ;; Registers used:
  5293 ;;		wreg, status,2, status,0, pclath, cstack
  5294 ;; Tracked objects:
  5295 ;;		On entry : 0/0
  5296 ;;		On exit  : 0/0
  5297 ;;		Unchanged: 0/0
  5298 ;; Data sizes:     COMMON   BANK0   BANK1   BANK3   BANK2
  5299 ;;      Params:         0       0       0       0       0
  5300 ;;      Locals:         0       0       0       0       0
  5301 ;;      Temps:          0       0       0       0       0
  5302 ;;      Totals:         0       0       0       0       0
  5303 ;;Total ram usage:        0 bytes
  5304 ;; Hardware stack levels used:    1
  5305 ;; Hardware stack levels required when called:    3
  5306 ;; This function calls:
  5307 ;;		_MasterInit_I2C
  5308 ;; This function is called by:
  5309 ;;		_main
  5310 ;; This function uses a non-reentrant model
  5311 ;;
  5312                           
  5313                           
  5314                           ;psect for function _config
  5315  0B83                     _config:
  5316  0B83                     l2576:	
  5317                           ;incstack = 0
  5318                           ; Regs used in _config: [wreg+status,2+status,0+pclath+cstack]
  5319                           
  5320                           
  5321                           ;main.c: 130:     ANSEL = 0X00;
  5322  0B83  1683               	bsf	3,5	;RP0=1, select bank3
  5323  0B84  1703               	bsf	3,6	;RP1=1, select bank3
  5324  0B85  0188               	clrf	8	;volatile
  5325                           
  5326                           ;main.c: 131:     ANSELH = 0X00;
  5327  0B86  0189               	clrf	9	;volatile
  5328                           
  5329                           ;main.c: 132:     TRISA = 0X00;
  5330  0B87  1683               	bsf	3,5	;RP0=1, select bank1
  5331  0B88  1303               	bcf	3,6	;RP1=0, select bank1
  5332  0B89  0185               	clrf	5	;volatile
  5333                           
  5334                           ;main.c: 133:     TRISB = 0X00;
  5335  0B8A  0186               	clrf	6	;volatile
  5336                           
  5337                           ;main.c: 134:     TRISD = 0X00;
  5338  0B8B  0188               	clrf	8	;volatile
  5339                           
  5340                           ;main.c: 135:     TRISE = 0X00;
  5341  0B8C  0189               	clrf	9	;volatile
  5342                           
  5343                           ;main.c: 136:     PORTA = 0X00;
  5344  0B8D  1283               	bcf	3,5	;RP0=0, select bank0
  5345  0B8E  1303               	bcf	3,6	;RP1=0, select bank0
  5346  0B8F  0185               	clrf	5	;volatile
  5347                           
  5348                           ;main.c: 137:     PORTB = 0X00;
  5349  0B90  0186               	clrf	6	;volatile
  5350                           
  5351                           ;main.c: 138:     PORTD = 0X00;
  5352  0B91  0188               	clrf	8	;volatile
  5353                           
  5354                           ;main.c: 139:     PORTE = 0X00;
  5355  0B92  0189               	clrf	9	;volatile
  5356  0B93                     l2578:
  5357                           
  5358                           ;main.c: 142:     OSCCONbits.IRCF = 0b111;
  5359  0B93  3070               	movlw	112
  5360  0B94  1683               	bsf	3,5	;RP0=1, select bank1
  5361  0B95  1303               	bcf	3,6	;RP1=0, select bank1
  5362  0B96  048F               	iorwf	15,f	;volatile
  5363  0B97                     l2580:
  5364                           
  5365                           ;main.c: 143:     OSCCONbits.SCS = 0b1;
  5366  0B97  140F               	bsf	15,0	;volatile
  5367  0B98                     l2582:
  5368                           
  5369                           ;main.c: 145:     MasterInit_I2C(100000);
  5370  0B98  3000               	movlw	0
  5371  0B99  1283               	bcf	3,5	;RP0=0, select bank0
  5372  0B9A  1303               	bcf	3,6	;RP1=0, select bank0
  5373  0B9B  00A9               	movwf	MasterInit_I2C@frec+3
  5374  0B9C  3001               	movlw	1
  5375  0B9D  00A8               	movwf	MasterInit_I2C@frec+2
  5376  0B9E  3086               	movlw	134
  5377  0B9F  00A7               	movwf	MasterInit_I2C@frec+1
  5378  0BA0  30A0               	movlw	160
  5379  0BA1  00A6               	movwf	MasterInit_I2C@frec
  5380  0BA2  120A  158A  23FD  120A  158A  	fcall	_MasterInit_I2C
  5381  0BA7                     l86:
  5382  0BA7  0008               	return
  5383  0BA8                     __end_of_config:
  5384                           
  5385                           	psect	text18
  5386  0BFD                     __ptext18:	
  5387 ;; *************** function _MasterInit_I2C *****************
  5388 ;; Defined at:
  5389 ;;		line 13 in file "I2C.c"
  5390 ;; Parameters:    Size  Location     Type
  5391 ;;  frec            4    6[BANK0 ] unsigned long 
  5392 ;; Auto vars:     Size  Location     Type
  5393 ;;		None
  5394 ;; Return value:  Size  Location     Type
  5395 ;;                  1    wreg      void 
  5396 ;; Registers used:
  5397 ;;		wreg, status,2, status,0, pclath, cstack
  5398 ;; Tracked objects:
  5399 ;;		On entry : 0/0
  5400 ;;		On exit  : 0/0
  5401 ;;		Unchanged: 0/0
  5402 ;; Data sizes:     COMMON   BANK0   BANK1   BANK3   BANK2
  5403 ;;      Params:         0       4       0       0       0
  5404 ;;      Locals:         0       0       0       0       0
  5405 ;;      Temps:          0       4       0       0       0
  5406 ;;      Totals:         0       8       0       0       0
  5407 ;;Total ram usage:        8 bytes
  5408 ;; Hardware stack levels used:    1
  5409 ;; Hardware stack levels required when called:    2
  5410 ;; This function calls:
  5411 ;;		___lldiv
  5412 ;; This function is called by:
  5413 ;;		_config
  5414 ;; This function uses a non-reentrant model
  5415 ;;
  5416                           
  5417                           
  5418                           ;psect for function _MasterInit_I2C
  5419  0BFD                     _MasterInit_I2C:
  5420  0BFD                     l2394:	
  5421                           ;incstack = 0
  5422                           ; Regs used in _MasterInit_I2C: [wreg+status,2+status,0+pclath+cstack]
  5423                           
  5424                           
  5425                           ;I2C.c: 14:     SSPCON = 0X28;
  5426  0BFD  3028               	movlw	40
  5427  0BFE  1283               	bcf	3,5	;RP0=0, select bank0
  5428  0BFF  1303               	bcf	3,6	;RP1=0, select bank0
  5429  0C00  0094               	movwf	20	;volatile
  5430  0C01                     l2396:
  5431                           
  5432                           ;I2C.c: 15:     SSPCON2 = 0X00;
  5433  0C01  1683               	bsf	3,5	;RP0=1, select bank1
  5434  0C02  1303               	bcf	3,6	;RP1=0, select bank1
  5435  0C03  0191               	clrf	17	;volatile
  5436  0C04                     l2398:
  5437                           
  5438                           ;I2C.c: 16:     SSPSTAT = 0X80;
  5439  0C04  3080               	movlw	128
  5440  0C05  0094               	movwf	20	;volatile
  5441  0C06                     l2400:
  5442                           
  5443                           ;I2C.c: 17:     SSPADD = (8000000/(4*frec))-1;
  5444  0C06  1283               	bcf	3,5	;RP0=0, select bank0
  5445  0C07  1303               	bcf	3,6	;RP1=0, select bank0
  5446  0C08  0826               	movf	MasterInit_I2C@frec,w
  5447  0C09  00AA               	movwf	??_MasterInit_I2C
  5448  0C0A  0827               	movf	MasterInit_I2C@frec+1,w
  5449  0C0B  00AB               	movwf	??_MasterInit_I2C+1
  5450  0C0C  0828               	movf	MasterInit_I2C@frec+2,w
  5451  0C0D  00AC               	movwf	??_MasterInit_I2C+2
  5452  0C0E  0829               	movf	MasterInit_I2C@frec+3,w
  5453  0C0F  00AD               	movwf	??_MasterInit_I2C+3
  5454  0C10  3002               	movlw	2
  5455  0C11                     u3015:
  5456  0C11  1003               	clrc
  5457  0C12  0DAA               	rlf	??_MasterInit_I2C,f
  5458  0C13  0DAB               	rlf	??_MasterInit_I2C+1,f
  5459  0C14  0DAC               	rlf	??_MasterInit_I2C+2,f
  5460  0C15  0DAD               	rlf	??_MasterInit_I2C+3,f
  5461  0C16                     u3010:
  5462  0C16  3EFF               	addlw	-1
  5463  0C17  1D03               	skipz
  5464  0C18  2C11               	goto	u3015
  5465  0C19  082D               	movf	??_MasterInit_I2C+3,w
  5466  0C1A  00F5               	movwf	___lldiv@divisor+3
  5467  0C1B  082C               	movf	??_MasterInit_I2C+2,w
  5468  0C1C  00F4               	movwf	___lldiv@divisor+2
  5469  0C1D  082B               	movf	??_MasterInit_I2C+1,w
  5470  0C1E  00F3               	movwf	___lldiv@divisor+1
  5471  0C1F  082A               	movf	??_MasterInit_I2C,w
  5472  0C20  00F2               	movwf	___lldiv@divisor
  5473  0C21  3000               	movlw	0
  5474  0C22  00F9               	movwf	___lldiv@dividend+3
  5475  0C23  307A               	movlw	122
  5476  0C24  00F8               	movwf	___lldiv@dividend+2
  5477  0C25  3012               	movlw	18
  5478  0C26  00F7               	movwf	___lldiv@dividend+1
  5479  0C27  3000               	movlw	0
  5480  0C28  00F6               	movwf	___lldiv@dividend
  5481  0C29  120A  158A  24DE  120A  158A  	fcall	___lldiv
  5482  0C2E  0872               	movf	?___lldiv,w
  5483  0C2F  3EFF               	addlw	255
  5484  0C30  1683               	bsf	3,5	;RP0=1, select bank1
  5485  0C31  1303               	bcf	3,6	;RP1=0, select bank1
  5486  0C32  0093               	movwf	19	;volatile
  5487  0C33                     l2402:
  5488                           
  5489                           ;I2C.c: 19:     TRISCbits.TRISC3 = 1;
  5490  0C33  1587               	bsf	7,3	;volatile
  5491  0C34                     l2404:
  5492                           
  5493                           ;I2C.c: 20:     TRISCbits.TRISC4 = 1;
  5494  0C34  1607               	bsf	7,4	;volatile
  5495  0C35                     l129:
  5496  0C35  0008               	return
  5497  0C36                     __end_of_MasterInit_I2C:
  5498                           
  5499                           	psect	text19
  5500  0CDE                     __ptext19:	
  5501 ;; *************** function ___lldiv *****************
  5502 ;; Defined at:
  5503 ;;		line 5 in file "C:\Program Files\Microchip\xc8\v2.31\pic\sources\c90\common\__lldiv.c"
  5504 ;; Parameters:    Size  Location     Type
  5505 ;;  divisor         4    2[COMMON] unsigned long 
  5506 ;;  dividend        4    6[COMMON] unsigned long 
  5507 ;; Auto vars:     Size  Location     Type
  5508 ;;  quotient        4    1[BANK0 ] unsigned long 
  5509 ;;  counter         1    5[BANK0 ] unsigned char 
  5510 ;; Return value:  Size  Location     Type
  5511 ;;                  4    2[COMMON] unsigned long 
  5512 ;; Registers used:
  5513 ;;		wreg, status,2, status,0
  5514 ;; Tracked objects:
  5515 ;;		On entry : 0/0
  5516 ;;		On exit  : 0/0
  5517 ;;		Unchanged: 0/0
  5518 ;; Data sizes:     COMMON   BANK0   BANK1   BANK3   BANK2
  5519 ;;      Params:         8       0       0       0       0
  5520 ;;      Locals:         0       5       0       0       0
  5521 ;;      Temps:          0       1       0       0       0
  5522 ;;      Totals:         8       6       0       0       0
  5523 ;;Total ram usage:       14 bytes
  5524 ;; Hardware stack levels used:    1
  5525 ;; Hardware stack levels required when called:    1
  5526 ;; This function calls:
  5527 ;;		Nothing
  5528 ;; This function is called by:
  5529 ;;		_MasterInit_I2C
  5530 ;; This function uses a non-reentrant model
  5531 ;;
  5532                           
  5533                           
  5534                           ;psect for function ___lldiv
  5535  0CDE                     ___lldiv:
  5536  0CDE                     l2312:	
  5537                           ;incstack = 0
  5538                           ; Regs used in ___lldiv: [wreg+status,2+status,0]
  5539                           
  5540  0CDE  3000               	movlw	0
  5541  0CDF  1283               	bcf	3,5	;RP0=0, select bank0
  5542  0CE0  1303               	bcf	3,6	;RP1=0, select bank0
  5543  0CE1  00A4               	movwf	___lldiv@quotient+3
  5544  0CE2  3000               	movlw	0
  5545  0CE3  00A3               	movwf	___lldiv@quotient+2
  5546  0CE4  3000               	movlw	0
  5547  0CE5  00A2               	movwf	___lldiv@quotient+1
  5548  0CE6  3000               	movlw	0
  5549  0CE7  00A1               	movwf	___lldiv@quotient
  5550  0CE8  0875               	movf	___lldiv@divisor+3,w
  5551  0CE9  0474               	iorwf	___lldiv@divisor+2,w
  5552  0CEA  0473               	iorwf	___lldiv@divisor+1,w
  5553  0CEB  0472               	iorwf	___lldiv@divisor,w
  5554  0CEC  1903               	skipnz
  5555  0CED  2CEF               	goto	u2811
  5556  0CEE  2CF0               	goto	u2810
  5557  0CEF                     u2811:
  5558  0CEF  2D3D               	goto	l2332
  5559  0CF0                     u2810:
  5560  0CF0                     l2314:
  5561  0CF0  01A5               	clrf	___lldiv@counter
  5562  0CF1  0AA5               	incf	___lldiv@counter,f
  5563  0CF2  2D00               	goto	l2318
  5564  0CF3                     l2316:
  5565  0CF3  3001               	movlw	1
  5566  0CF4  00A0               	movwf	??___lldiv
  5567  0CF5                     u2825:
  5568  0CF5  1003               	clrc
  5569  0CF6  0DF2               	rlf	___lldiv@divisor,f
  5570  0CF7  0DF3               	rlf	___lldiv@divisor+1,f
  5571  0CF8  0DF4               	rlf	___lldiv@divisor+2,f
  5572  0CF9  0DF5               	rlf	___lldiv@divisor+3,f
  5573  0CFA  0BA0               	decfsz	??___lldiv,f
  5574  0CFB  2CF5               	goto	u2825
  5575  0CFC  3001               	movlw	1
  5576  0CFD  00A0               	movwf	??___lldiv
  5577  0CFE  0820               	movf	??___lldiv,w
  5578  0CFF  07A5               	addwf	___lldiv@counter,f
  5579  0D00                     l2318:
  5580  0D00  1FF5               	btfss	___lldiv@divisor+3,7
  5581  0D01  2D03               	goto	u2831
  5582  0D02  2D04               	goto	u2830
  5583  0D03                     u2831:
  5584  0D03  2CF3               	goto	l2316
  5585  0D04                     u2830:
  5586  0D04                     l2320:
  5587  0D04  3001               	movlw	1
  5588  0D05  00A0               	movwf	??___lldiv
  5589  0D06                     u2845:
  5590  0D06  1003               	clrc
  5591  0D07  0DA1               	rlf	___lldiv@quotient,f
  5592  0D08  0DA2               	rlf	___lldiv@quotient+1,f
  5593  0D09  0DA3               	rlf	___lldiv@quotient+2,f
  5594  0D0A  0DA4               	rlf	___lldiv@quotient+3,f
  5595  0D0B  0BA0               	decfsz	??___lldiv,f
  5596  0D0C  2D06               	goto	u2845
  5597  0D0D                     l2322:
  5598  0D0D  0875               	movf	___lldiv@divisor+3,w
  5599  0D0E  0279               	subwf	___lldiv@dividend+3,w
  5600  0D0F  1D03               	skipz
  5601  0D10  2D1B               	goto	u2855
  5602  0D11  0874               	movf	___lldiv@divisor+2,w
  5603  0D12  0278               	subwf	___lldiv@dividend+2,w
  5604  0D13  1D03               	skipz
  5605  0D14  2D1B               	goto	u2855
  5606  0D15  0873               	movf	___lldiv@divisor+1,w
  5607  0D16  0277               	subwf	___lldiv@dividend+1,w
  5608  0D17  1D03               	skipz
  5609  0D18  2D1B               	goto	u2855
  5610  0D19  0872               	movf	___lldiv@divisor,w
  5611  0D1A  0276               	subwf	___lldiv@dividend,w
  5612  0D1B                     u2855:
  5613  0D1B  1C03               	skipc
  5614  0D1C  2D1E               	goto	u2851
  5615  0D1D  2D1F               	goto	u2850
  5616  0D1E                     u2851:
  5617  0D1E  2D2E               	goto	l2328
  5618  0D1F                     u2850:
  5619  0D1F                     l2324:
  5620  0D1F  0872               	movf	___lldiv@divisor,w
  5621  0D20  02F6               	subwf	___lldiv@dividend,f
  5622  0D21  0873               	movf	___lldiv@divisor+1,w
  5623  0D22  1C03               	skipc
  5624  0D23  0F73               	incfsz	___lldiv@divisor+1,w
  5625  0D24  02F7               	subwf	___lldiv@dividend+1,f
  5626  0D25  0874               	movf	___lldiv@divisor+2,w
  5627  0D26  1C03               	skipc
  5628  0D27  0F74               	incfsz	___lldiv@divisor+2,w
  5629  0D28  02F8               	subwf	___lldiv@dividend+2,f
  5630  0D29  0875               	movf	___lldiv@divisor+3,w
  5631  0D2A  1C03               	skipc
  5632  0D2B  0F75               	incfsz	___lldiv@divisor+3,w
  5633  0D2C  02F9               	subwf	___lldiv@dividend+3,f
  5634  0D2D                     l2326:
  5635  0D2D  1421               	bsf	___lldiv@quotient,0
  5636  0D2E                     l2328:
  5637  0D2E  3001               	movlw	1
  5638  0D2F                     u2865:
  5639  0D2F  1003               	clrc
  5640  0D30  0CF5               	rrf	___lldiv@divisor+3,f
  5641  0D31  0CF4               	rrf	___lldiv@divisor+2,f
  5642  0D32  0CF3               	rrf	___lldiv@divisor+1,f
  5643  0D33  0CF2               	rrf	___lldiv@divisor,f
  5644  0D34  3EFF               	addlw	-1
  5645  0D35  1D03               	skipz
  5646  0D36  2D2F               	goto	u2865
  5647  0D37                     l2330:
  5648  0D37  3001               	movlw	1
  5649  0D38  02A5               	subwf	___lldiv@counter,f
  5650  0D39  1D03               	btfss	3,2
  5651  0D3A  2D3C               	goto	u2871
  5652  0D3B  2D3D               	goto	u2870
  5653  0D3C                     u2871:
  5654  0D3C  2D04               	goto	l2320
  5655  0D3D                     u2870:
  5656  0D3D                     l2332:
  5657  0D3D  0824               	movf	___lldiv@quotient+3,w
  5658  0D3E  00F5               	movwf	?___lldiv+3
  5659  0D3F  0823               	movf	___lldiv@quotient+2,w
  5660  0D40  00F4               	movwf	?___lldiv+2
  5661  0D41  0822               	movf	___lldiv@quotient+1,w
  5662  0D42  00F3               	movwf	?___lldiv+1
  5663  0D43  0821               	movf	___lldiv@quotient,w
  5664  0D44  00F2               	movwf	?___lldiv
  5665  0D45                     l308:
  5666  0D45  0008               	return
  5667  0D46                     __end_of___lldiv:
  5668                           
  5669                           	psect	text20
  5670  0AB7                     __ptext20:	
  5671 ;; *************** function _MasterStop_I2C *****************
  5672 ;; Defined at:
  5673 ;;		line 34 in file "I2C.c"
  5674 ;; Parameters:    Size  Location     Type
  5675 ;;		None
  5676 ;; Auto vars:     Size  Location     Type
  5677 ;;		None
  5678 ;; Return value:  Size  Location     Type
  5679 ;;                  1    wreg      void 
  5680 ;; Registers used:
  5681 ;;		wreg, status,2, status,0, pclath, cstack
  5682 ;; Tracked objects:
  5683 ;;		On entry : 0/0
  5684 ;;		On exit  : 0/0
  5685 ;;		Unchanged: 0/0
  5686 ;; Data sizes:     COMMON   BANK0   BANK1   BANK3   BANK2
  5687 ;;      Params:         0       0       0       0       0
  5688 ;;      Locals:         0       0       0       0       0
  5689 ;;      Temps:          0       0       0       0       0
  5690 ;;      Totals:         0       0       0       0       0
  5691 ;;Total ram usage:        0 bytes
  5692 ;; Hardware stack levels used:    1
  5693 ;; Hardware stack levels required when called:    2
  5694 ;; This function calls:
  5695 ;;		_waitCondition
  5696 ;; This function is called by:
  5697 ;;		_main
  5698 ;; This function uses a non-reentrant model
  5699 ;;
  5700                           
  5701                           
  5702                           ;psect for function _MasterStop_I2C
  5703  0AB7                     _MasterStop_I2C:
  5704  0AB7                     l2172:	
  5705                           ;incstack = 0
  5706                           ; Regs used in _MasterStop_I2C: [wreg+status,2+status,0+pclath+cstack]
  5707                           
  5708                           
  5709                           ;I2C.c: 35:     waitCondition();
  5710  0AB7  120A  158A  22CB  120A  158A  	fcall	_waitCondition
  5711  0ABC                     l2174:
  5712                           
  5713                           ;I2C.c: 36:     SSPCON2bits.PEN = 1;
  5714  0ABC  1683               	bsf	3,5	;RP0=1, select bank1
  5715  0ABD  1303               	bcf	3,6	;RP1=0, select bank1
  5716  0ABE  1511               	bsf	17,2	;volatile
  5717  0ABF                     l141:
  5718  0ABF  0008               	return
  5719  0AC0                     __end_of_MasterStop_I2C:
  5720                           
  5721                           	psect	text21
  5722  0AAE                     __ptext21:	
  5723 ;; *************** function _MasterStart_I2C *****************
  5724 ;; Defined at:
  5725 ;;		line 29 in file "I2C.c"
  5726 ;; Parameters:    Size  Location     Type
  5727 ;;		None
  5728 ;; Auto vars:     Size  Location     Type
  5729 ;;		None
  5730 ;; Return value:  Size  Location     Type
  5731 ;;                  1    wreg      void 
  5732 ;; Registers used:
  5733 ;;		wreg, status,2, status,0, pclath, cstack
  5734 ;; Tracked objects:
  5735 ;;		On entry : 0/0
  5736 ;;		On exit  : 0/0
  5737 ;;		Unchanged: 0/0
  5738 ;; Data sizes:     COMMON   BANK0   BANK1   BANK3   BANK2
  5739 ;;      Params:         0       0       0       0       0
  5740 ;;      Locals:         0       0       0       0       0
  5741 ;;      Temps:          0       0       0       0       0
  5742 ;;      Totals:         0       0       0       0       0
  5743 ;;Total ram usage:        0 bytes
  5744 ;; Hardware stack levels used:    1
  5745 ;; Hardware stack levels required when called:    2
  5746 ;; This function calls:
  5747 ;;		_waitCondition
  5748 ;; This function is called by:
  5749 ;;		_main
  5750 ;; This function uses a non-reentrant model
  5751 ;;
  5752                           
  5753                           
  5754                           ;psect for function _MasterStart_I2C
  5755  0AAE                     _MasterStart_I2C:
  5756  0AAE                     l2160:	
  5757                           ;incstack = 0
  5758                           ; Regs used in _MasterStart_I2C: [wreg+status,2+status,0+pclath+cstack]
  5759                           
  5760                           
  5761                           ;I2C.c: 30:     waitCondition();
  5762  0AAE  120A  158A  22CB  120A  158A  	fcall	_waitCondition
  5763  0AB3                     l2162:
  5764                           
  5765                           ;I2C.c: 31:     SSPCON2bits.SEN = 1;
  5766  0AB3  1683               	bsf	3,5	;RP0=1, select bank1
  5767  0AB4  1303               	bcf	3,6	;RP1=0, select bank1
  5768  0AB5  1411               	bsf	17,0	;volatile
  5769  0AB6                     l138:
  5770  0AB6  0008               	return
  5771  0AB7                     __end_of_MasterStart_I2C:
  5772                           
  5773                           	psect	text22
  5774  0AC0                     __ptext22:	
  5775 ;; *************** function _MasterSend_I2C *****************
  5776 ;; Defined at:
  5777 ;;		line 44 in file "I2C.c"
  5778 ;; Parameters:    Size  Location     Type
  5779 ;;  dato            1    wreg     unsigned char 
  5780 ;; Auto vars:     Size  Location     Type
  5781 ;;  dato            1    2[COMMON] unsigned char 
  5782 ;; Return value:  Size  Location     Type
  5783 ;;                  1    wreg      void 
  5784 ;; Registers used:
  5785 ;;		wreg, status,2, status,0, pclath, cstack
  5786 ;; Tracked objects:
  5787 ;;		On entry : 0/0
  5788 ;;		On exit  : 0/0
  5789 ;;		Unchanged: 0/0
  5790 ;; Data sizes:     COMMON   BANK0   BANK1   BANK3   BANK2
  5791 ;;      Params:         0       0       0       0       0
  5792 ;;      Locals:         1       0       0       0       0
  5793 ;;      Temps:          0       0       0       0       0
  5794 ;;      Totals:         1       0       0       0       0
  5795 ;;Total ram usage:        1 bytes
  5796 ;; Hardware stack levels used:    1
  5797 ;; Hardware stack levels required when called:    2
  5798 ;; This function calls:
  5799 ;;		_waitCondition
  5800 ;; This function is called by:
  5801 ;;		_main
  5802 ;; This function uses a non-reentrant model
  5803 ;;
  5804                           
  5805                           
  5806                           ;psect for function _MasterSend_I2C
  5807  0AC0                     _MasterSend_I2C:
  5808                           
  5809                           ;incstack = 0
  5810                           ; Regs used in _MasterSend_I2C: [wreg+status,2+status,0+pclath+cstack]
  5811                           ;MasterSend_I2C@dato stored from wreg
  5812  0AC0  00F2               	movwf	MasterSend_I2C@dato
  5813  0AC1                     l2164:
  5814                           
  5815                           ;I2C.c: 45:     waitCondition();
  5816  0AC1  120A  158A  22CB  120A  158A  	fcall	_waitCondition
  5817  0AC6                     l2166:
  5818                           
  5819                           ;I2C.c: 46:     SSPBUF = dato;
  5820  0AC6  0872               	movf	MasterSend_I2C@dato,w
  5821  0AC7  1283               	bcf	3,5	;RP0=0, select bank0
  5822  0AC8  1303               	bcf	3,6	;RP1=0, select bank0
  5823  0AC9  0093               	movwf	19	;volatile
  5824  0ACA                     l147:
  5825  0ACA  0008               	return
  5826  0ACB                     __end_of_MasterSend_I2C:
  5827                           
  5828                           	psect	text23
  5829  0AA5                     __ptext23:	
  5830 ;; *************** function _MasterRepeatS_I2C *****************
  5831 ;; Defined at:
  5832 ;;		line 39 in file "I2C.c"
  5833 ;; Parameters:    Size  Location     Type
  5834 ;;		None
  5835 ;; Auto vars:     Size  Location     Type
  5836 ;;		None
  5837 ;; Return value:  Size  Location     Type
  5838 ;;                  1    wreg      void 
  5839 ;; Registers used:
  5840 ;;		wreg, status,2, status,0, pclath, cstack
  5841 ;; Tracked objects:
  5842 ;;		On entry : 0/0
  5843 ;;		On exit  : 0/0
  5844 ;;		Unchanged: 0/0
  5845 ;; Data sizes:     COMMON   BANK0   BANK1   BANK3   BANK2
  5846 ;;      Params:         0       0       0       0       0
  5847 ;;      Locals:         0       0       0       0       0
  5848 ;;      Temps:          0       0       0       0       0
  5849 ;;      Totals:         0       0       0       0       0
  5850 ;;Total ram usage:        0 bytes
  5851 ;; Hardware stack levels used:    1
  5852 ;; Hardware stack levels required when called:    2
  5853 ;; This function calls:
  5854 ;;		_waitCondition
  5855 ;; This function is called by:
  5856 ;;		_main
  5857 ;; This function uses a non-reentrant model
  5858 ;;
  5859                           
  5860                           
  5861                           ;psect for function _MasterRepeatS_I2C
  5862  0AA5                     _MasterRepeatS_I2C:
  5863  0AA5                     l2168:	
  5864                           ;incstack = 0
  5865                           ; Regs used in _MasterRepeatS_I2C: [wreg+status,2+status,0+pclath+cstack]
  5866                           
  5867                           
  5868                           ;I2C.c: 40:     waitCondition();
  5869  0AA5  120A  158A  22CB  120A  158A  	fcall	_waitCondition
  5870  0AAA                     l2170:
  5871                           
  5872                           ;I2C.c: 41:     SSPCON2bits.RSEN = 1;
  5873  0AAA  1683               	bsf	3,5	;RP0=1, select bank1
  5874  0AAB  1303               	bcf	3,6	;RP1=0, select bank1
  5875  0AAC  1491               	bsf	17,1	;volatile
  5876  0AAD                     l144:
  5877  0AAD  0008               	return
  5878  0AAE                     __end_of_MasterRepeatS_I2C:
  5879                           
  5880                           	psect	text24
  5881  0B1B                     __ptext24:	
  5882 ;; *************** function _MasterReceive_I2C *****************
  5883 ;; Defined at:
  5884 ;;		line 49 in file "I2C.c"
  5885 ;; Parameters:    Size  Location     Type
  5886 ;;  valor           1    wreg     PTR unsigned char 
  5887 ;;		 -> DatS3(1), DatS2(1), DatS1(1), 
  5888 ;; Auto vars:     Size  Location     Type
  5889 ;;  valor           1    3[COMMON] PTR unsigned char 
  5890 ;;		 -> DatS3(1), DatS2(1), DatS1(1), 
  5891 ;; Return value:  Size  Location     Type
  5892 ;;                  1    wreg      void 
  5893 ;; Registers used:
  5894 ;;		wreg, fsr0l, fsr0h, status,2, status,0, pclath, cstack
  5895 ;; Tracked objects:
  5896 ;;		On entry : 0/0
  5897 ;;		On exit  : 0/0
  5898 ;;		Unchanged: 0/0
  5899 ;; Data sizes:     COMMON   BANK0   BANK1   BANK3   BANK2
  5900 ;;      Params:         0       0       0       0       0
  5901 ;;      Locals:         1       0       0       0       0
  5902 ;;      Temps:          1       0       0       0       0
  5903 ;;      Totals:         2       0       0       0       0
  5904 ;;Total ram usage:        2 bytes
  5905 ;; Hardware stack levels used:    1
  5906 ;; Hardware stack levels required when called:    2
  5907 ;; This function calls:
  5908 ;;		_waitCondition
  5909 ;; This function is called by:
  5910 ;;		_main
  5911 ;; This function uses a non-reentrant model
  5912 ;;
  5913                           
  5914                           
  5915                           ;psect for function _MasterReceive_I2C
  5916  0B1B                     _MasterReceive_I2C:
  5917                           
  5918                           ;incstack = 0
  5919                           ; Regs used in _MasterReceive_I2C: [wreg-fsr0h+status,2+status,0+pclath+cstack]
  5920                           ;MasterReceive_I2C@valor stored from wreg
  5921  0B1B  00F3               	movwf	MasterReceive_I2C@valor
  5922  0B1C                     l2176:
  5923                           
  5924                           ;I2C.c: 50:     waitCondition();
  5925  0B1C  120A  158A  22CB  120A  158A  	fcall	_waitCondition
  5926  0B21                     l2178:
  5927                           
  5928                           ;I2C.c: 51:     SSPCON2bits.RCEN = 1;
  5929  0B21  1683               	bsf	3,5	;RP0=1, select bank1
  5930  0B22  1303               	bcf	3,6	;RP1=0, select bank1
  5931  0B23  1591               	bsf	17,3	;volatile
  5932                           
  5933                           ;I2C.c: 52:     waitCondition();
  5934  0B24  120A  158A  22CB  120A  158A  	fcall	_waitCondition
  5935  0B29                     l2180:
  5936                           
  5937                           ;I2C.c: 53:     *valor = SSPBUF;
  5938  0B29  1283               	bcf	3,5	;RP0=0, select bank0
  5939  0B2A  1303               	bcf	3,6	;RP1=0, select bank0
  5940  0B2B  0813               	movf	19,w	;volatile
  5941  0B2C  00F2               	movwf	??_MasterReceive_I2C
  5942  0B2D  0873               	movf	MasterReceive_I2C@valor,w
  5943  0B2E  0084               	movwf	4
  5944  0B2F  0872               	movf	??_MasterReceive_I2C,w
  5945  0B30  1383               	bcf	3,7	;select IRP bank0
  5946  0B31  0080               	movwf	0
  5947  0B32                     l2182:
  5948                           
  5949                           ;I2C.c: 54:     waitCondition();
  5950  0B32  120A  158A  22CB  120A  158A  	fcall	_waitCondition
  5951  0B37                     l2184:
  5952                           
  5953                           ;I2C.c: 55:     SSPCON2bits.ACKDT = 1;
  5954  0B37  1683               	bsf	3,5	;RP0=1, select bank1
  5955  0B38  1303               	bcf	3,6	;RP1=0, select bank1
  5956  0B39  1691               	bsf	17,5	;volatile
  5957  0B3A                     l2186:
  5958                           
  5959                           ;I2C.c: 56:     SSPCON2bits.ACKEN = 1;
  5960  0B3A  1611               	bsf	17,4	;volatile
  5961  0B3B                     l150:
  5962  0B3B  0008               	return
  5963  0B3C                     __end_of_MasterReceive_I2C:
  5964                           
  5965                           	psect	text25
  5966  0ACB                     __ptext25:	
  5967 ;; *************** function _waitCondition *****************
  5968 ;; Defined at:
  5969 ;;		line 23 in file "I2C.c"
  5970 ;; Parameters:    Size  Location     Type
  5971 ;;		None
  5972 ;; Auto vars:     Size  Location     Type
  5973 ;;		None
  5974 ;; Return value:  Size  Location     Type
  5975 ;;                  1    wreg      void 
  5976 ;; Registers used:
  5977 ;;		wreg, status,2
  5978 ;; Tracked objects:
  5979 ;;		On entry : 0/0
  5980 ;;		On exit  : 0/0
  5981 ;;		Unchanged: 0/0
  5982 ;; Data sizes:     COMMON   BANK0   BANK1   BANK3   BANK2
  5983 ;;      Params:         0       0       0       0       0
  5984 ;;      Locals:         0       0       0       0       0
  5985 ;;      Temps:          0       0       0       0       0
  5986 ;;      Totals:         0       0       0       0       0
  5987 ;;Total ram usage:        0 bytes
  5988 ;; Hardware stack levels used:    1
  5989 ;; Hardware stack levels required when called:    1
  5990 ;; This function calls:
  5991 ;;		Nothing
  5992 ;; This function is called by:
  5993 ;;		_MasterStart_I2C
  5994 ;;		_MasterStop_I2C
  5995 ;;		_MasterRepeatS_I2C
  5996 ;;		_MasterSend_I2C
  5997 ;;		_MasterReceive_I2C
  5998 ;; This function uses a non-reentrant model
  5999 ;;
  6000                           
  6001                           
  6002                           ;psect for function _waitCondition
  6003  0ACB                     _waitCondition:
  6004  0ACB                     l1890:	
  6005                           ;incstack = 0
  6006                           ; Regs used in _waitCondition: [wreg+status,2]
  6007                           
  6008  0ACB                     l132:	
  6009                           ;I2C.c: 24:     while ((SSPSTAT & 0x04) || (SSPCON2 & 0x1F));
  6010                           
  6011  0ACB  1683               	bsf	3,5	;RP0=1, select bank1
  6012  0ACC  1303               	bcf	3,6	;RP1=0, select bank1
  6013  0ACD  1914               	btfsc	20,2	;volatile
  6014  0ACE  2AD0               	goto	u2131
  6015  0ACF  2AD1               	goto	u2130
  6016  0AD0                     u2131:
  6017  0AD0  2ACB               	goto	l132
  6018  0AD1                     u2130:
  6019  0AD1                     l1892:
  6020  0AD1  0811               	movf	17,w	;volatile
  6021  0AD2  391F               	andlw	31
  6022  0AD3  1D03               	btfss	3,2
  6023  0AD4  2AD6               	goto	u2141
  6024  0AD5  2AD7               	goto	u2140
  6025  0AD6                     u2141:
  6026  0AD6  2ACB               	goto	l132
  6027  0AD7                     u2140:
  6028  0AD7                     l135:
  6029  0AD7  0008               	return
  6030  0AD8                     __end_of_waitCondition:
  6031                           
  6032                           	psect	text26
  6033  0AFC                     __ptext26:	
  6034 ;; *************** function _LCDstring *****************
  6035 ;; Defined at:
  6036 ;;		line 75 in file "LCDD2.c"
  6037 ;; Parameters:    Size  Location     Type
  6038 ;;  mensaje         1    wreg     PTR unsigned char 
  6039 ;;		 -> STR_1(16), 
  6040 ;; Auto vars:     Size  Location     Type
  6041 ;;  mensaje         1    5[COMMON] PTR unsigned char 
  6042 ;;		 -> STR_1(16), 
  6043 ;; Return value:  Size  Location     Type
  6044 ;;                  1    wreg      void 
  6045 ;; Registers used:
  6046 ;;		wreg, fsr0l, fsr0h, status,2, status,0, pclath, cstack
  6047 ;; Tracked objects:
  6048 ;;		On entry : 0/0
  6049 ;;		On exit  : 0/0
  6050 ;;		Unchanged: 0/0
  6051 ;; Data sizes:     COMMON   BANK0   BANK1   BANK3   BANK2
  6052 ;;      Params:         0       0       0       0       0
  6053 ;;      Locals:         1       0       0       0       0
  6054 ;;      Temps:          1       0       0       0       0
  6055 ;;      Totals:         2       0       0       0       0
  6056 ;;Total ram usage:        2 bytes
  6057 ;; Hardware stack levels used:    1
  6058 ;; Hardware stack levels required when called:    2
  6059 ;; This function calls:
  6060 ;;		_dispCHAR
  6061 ;; This function is called by:
  6062 ;;		_main
  6063 ;; This function uses a non-reentrant model
  6064 ;;
  6065                           
  6066                           
  6067                           ;psect for function _LCDstring
  6068  0AFC                     _LCDstring:
  6069                           
  6070                           ;incstack = 0
  6071                           ; Regs used in _LCDstring: [wreg-fsr0h+status,2+status,0+pclath+cstack]
  6072                           ;LCDstring@mensaje stored from wreg
  6073  0AFC  00F5               	movwf	LCDstring@mensaje
  6074  0AFD                     l2240:
  6075                           
  6076                           ;LCDD2.c: 76:     while(*mensaje != 0x00){
  6077  0AFD  2B0E               	goto	l2246
  6078  0AFE                     l2242:
  6079                           
  6080                           ;LCDD2.c: 77:         dispCHAR(*mensaje);
  6081  0AFE  0875               	movf	LCDstring@mensaje,w
  6082  0AFF  0084               	movwf	4
  6083  0B00  120A  158A  2000  120A  158A  	fcall	stringdir
  6084  0B05  120A  158A  22D8  120A  158A  	fcall	_dispCHAR
  6085  0B0A                     l2244:
  6086                           
  6087                           ;LCDD2.c: 78:         mensaje ++;
  6088  0B0A  3001               	movlw	1
  6089  0B0B  00F4               	movwf	??_LCDstring
  6090  0B0C  0874               	movf	??_LCDstring,w
  6091  0B0D  07F5               	addwf	LCDstring@mensaje,f
  6092  0B0E                     l2246:
  6093                           
  6094                           ;LCDD2.c: 76:     while(*mensaje != 0x00){
  6095  0B0E  0875               	movf	LCDstring@mensaje,w
  6096  0B0F  0084               	movwf	4
  6097  0B10  120A  158A  2000  120A  158A  	fcall	stringdir
  6098  0B15  3A00               	xorlw	0
  6099  0B16  1D03               	skipz
  6100  0B17  2B19               	goto	u2791
  6101  0B18  2B1A               	goto	u2790
  6102  0B19                     u2791:
  6103  0B19  2AFE               	goto	l2242
  6104  0B1A                     u2790:
  6105  0B1A                     l186:
  6106  0B1A  0008               	return
  6107  0B1B                     __end_of_LCDstring:
  6108                           
  6109                           	psect	text27
  6110  0AD8                     __ptext27:	
  6111 ;; *************** function _dispCHAR *****************
  6112 ;; Defined at:
  6113 ;;		line 40 in file "LCDD2.c"
  6114 ;; Parameters:    Size  Location     Type
  6115 ;;  b               1    wreg     unsigned char 
  6116 ;; Auto vars:     Size  Location     Type
  6117 ;;  b               1    3[COMMON] unsigned char 
  6118 ;; Return value:  Size  Location     Type
  6119 ;;                  1    wreg      void 
  6120 ;; Registers used:
  6121 ;;		wreg
  6122 ;; Tracked objects:
  6123 ;;		On entry : 0/0
  6124 ;;		On exit  : 0/0
  6125 ;;		Unchanged: 0/0
  6126 ;; Data sizes:     COMMON   BANK0   BANK1   BANK3   BANK2
  6127 ;;      Params:         0       0       0       0       0
  6128 ;;      Locals:         1       0       0       0       0
  6129 ;;      Temps:          1       0       0       0       0
  6130 ;;      Totals:         2       0       0       0       0
  6131 ;;Total ram usage:        2 bytes
  6132 ;; Hardware stack levels used:    1
  6133 ;; Hardware stack levels required when called:    1
  6134 ;; This function calls:
  6135 ;;		Nothing
  6136 ;; This function is called by:
  6137 ;;		_main
  6138 ;;		_LCDstring
  6139 ;; This function uses a non-reentrant model
  6140 ;;
  6141                           
  6142                           
  6143                           ;psect for function _dispCHAR
  6144  0AD8                     _dispCHAR:
  6145                           
  6146                           ;incstack = 0
  6147                           ; Regs used in _dispCHAR: [wreg]
  6148                           ;dispCHAR@b stored from wreg
  6149  0AD8  00F3               	movwf	dispCHAR@b
  6150  0AD9                     l1840:
  6151                           
  6152                           ;LCDD2.c: 42:     RE0 = 1;
  6153  0AD9  1283               	bcf	3,5	;RP0=0, select bank0
  6154  0ADA  1303               	bcf	3,6	;RP1=0, select bank0
  6155  0ADB  1409               	bsf	9,0	;volatile
  6156  0ADC                     l1842:
  6157                           
  6158                           ;LCDD2.c: 43:     PORTD = b;
  6159  0ADC  0873               	movf	dispCHAR@b,w
  6160  0ADD  0088               	movwf	8	;volatile
  6161  0ADE                     l1844:
  6162                           
  6163                           ;LCDD2.c: 44:     RE1 = 1;
  6164  0ADE  1489               	bsf	9,1	;volatile
  6165                           
  6166                           ;LCDD2.c: 45:     _delay((unsigned long)((40)*(8000000/4000000.0)));
  6167  0ADF  301A               	movlw	26
  6168  0AE0  00F2               	movwf	??_dispCHAR
  6169  0AE1                     u3487:
  6170  0AE1  0BF2               	decfsz	??_dispCHAR,f
  6171  0AE2  2AE1               	goto	u3487
  6172  0AE3  0000               	nop
  6173  0AE4                     l1846:
  6174                           
  6175                           ;LCDD2.c: 46:     RE1 = 0;
  6176  0AE4  1283               	bcf	3,5	;RP0=0, select bank0
  6177  0AE5  1303               	bcf	3,6	;RP1=0, select bank0
  6178  0AE6  1089               	bcf	9,1	;volatile
  6179  0AE7                     l169:
  6180  0AE7  0008               	return
  6181  0AE8                     __end_of_dispCHAR:
  6182                           
  6183                           	psect	text28
  6184  0A9E                     __ptext28:	
  6185 ;; *************** function _interrupcion *****************
  6186 ;; Defined at:
  6187 ;;		line 55 in file "main.c"
  6188 ;; Parameters:    Size  Location     Type
  6189 ;;		None
  6190 ;; Auto vars:     Size  Location     Type
  6191 ;;		None
  6192 ;; Return value:  Size  Location     Type
  6193 ;;                  1    wreg      void 
  6194 ;; Registers used:
  6195 ;;		None
  6196 ;; Tracked objects:
  6197 ;;		On entry : 0/0
  6198 ;;		On exit  : 0/0
  6199 ;;		Unchanged: 0/0
  6200 ;; Data sizes:     COMMON   BANK0   BANK1   BANK3   BANK2
  6201 ;;      Params:         0       0       0       0       0
  6202 ;;      Locals:         0       0       0       0       0
  6203 ;;      Temps:          2       0       0       0       0
  6204 ;;      Totals:         2       0       0       0       0
  6205 ;;Total ram usage:        2 bytes
  6206 ;; Hardware stack levels used:    1
  6207 ;; This function calls:
  6208 ;;		Nothing
  6209 ;; This function is called by:
  6210 ;;		Interrupt level 1
  6211 ;; This function uses a non-reentrant model
  6212 ;;
  6213                           
  6214                           
  6215                           ;psect for function _interrupcion
  6216  0A9E                     _interrupcion:
  6217  0A9E                     i1l73:
  6218  0A9E  0871               	movf	??_interrupcion+1,w
  6219  0A9F  008A               	movwf	10
  6220  0AA0  0E70               	swapf	??_interrupcion,w
  6221  0AA1  0083               	movwf	3
  6222  0AA2  0EFE               	swapf	btemp,f
  6223  0AA3  0E7E               	swapf	btemp,w
  6224  0AA4  0009               	retfie
  6225  0AA5                     __end_of_interrupcion:
  6226  007E                     btemp	set	126	;btemp
  6227  007E                     wtemp0	set	126
  6228                           
  6229                           	psect	intentry
  6230  0004                     __pintentry:	
  6231                           ;incstack = 0
  6232                           ; Regs used in _interrupcion: []
  6233                           
  6234  0004                     interrupt_function:
  6235  007E                     saved_w	set	btemp
  6236  0004  00FE               	movwf	btemp
  6237  0005  0E03               	swapf	3,w
  6238  0006  00F0               	movwf	??_interrupcion
  6239  0007  080A               	movf	10,w
  6240  0008  00F1               	movwf	??_interrupcion+1
  6241  0009  120A  158A  2A9E   	ljmp	_interrupcion
  6242                           
  6243                           	psect	config
  6244                           
  6245                           ;Config register CONFIG1 @ 0x2007
  6246                           ;	Oscillator Selection bits
  6247                           ;	FOSC = INTRC_NOCLKOUT, INTOSCIO oscillator: I/O function on RA6/OSC2/CLKOUT pin, I/O f
      +                          unction on RA7/OSC1/CLKIN
  6248                           ;	Watchdog Timer Enable bit
  6249                           ;	WDTE = OFF, WDT disabled and can be enabled by SWDTEN bit of the WDTCON register
  6250                           ;	Power-up Timer Enable bit
  6251                           ;	PWRTE = OFF, PWRT disabled
  6252                           ;	RE3/MCLR pin function select bit
  6253                           ;	MCLRE = ON, RE3/MCLR pin function is MCLR
  6254                           ;	Code Protection bit
  6255                           ;	CP = OFF, Program memory code protection is disabled
  6256                           ;	Data Code Protection bit
  6257                           ;	CPD = OFF, Data memory code protection is disabled
  6258                           ;	Brown Out Reset Selection bits
  6259                           ;	BOREN = OFF, BOR disabled
  6260                           ;	Internal External Switchover bit
  6261                           ;	IESO = OFF, Internal/External Switchover mode is disabled
  6262                           ;	Fail-Safe Clock Monitor Enabled bit
  6263                           ;	FCMEN = OFF, Fail-Safe Clock Monitor is disabled
  6264                           ;	Low Voltage Programming Enable bit
  6265                           ;	LVP = OFF, RB3 pin has digital I/O, HV on MCLR must be used for programming
  6266                           ;	In-Circuit Debugger Mode bit
  6267                           ;	DEBUG = 0x1, unprogrammed default
  6268  2007                     	org	8199
  6269  2007  20F4               	dw	8436
  6270                           
  6271                           ;Config register CONFIG2 @ 0x2008
  6272                           ;	Brown-out Reset Selection bit
  6273                           ;	BOR4V = BOR40V, Brown-out Reset set to 4.0V
  6274                           ;	Flash Program Memory Self Write Enable bits
  6275                           ;	WRT = OFF, Write protection off
  6276  2008                     	org	8200
  6277  2008  3FFF               	dw	16383

Data Sizes:
    Strings     16
    Constant    0
    Data        0
    BSS         16
    Persistent  0
    Stack       0

Auto Spaces:
    Space          Size  Autos    Used
    COMMON           14     10      12
    BANK0            80     64      78
    BANK1            80      0       0
    BANK3            96      0       0
    BANK2            96      0       0

Pointer List with Targets:

    LCDstring@mensaje	PTR unsigned char  size(1) Largest target is 16
		 -> STR_1(CODE[16]), 

    MasterReceive_I2C@valor	PTR unsigned char  size(1) Largest target is 1
		 -> DatS3(COMMON[1]), DatS2(BANK0[1]), DatS1(COMMON[1]), 

    divisiondecimal@cent	PTR unsigned char  size(1) Largest target is 1
		 -> hexTocharNEG@centena(BANK0[1]), hexTochar@centena(BANK0[1]), 

    divisiondecimal@dec	PTR unsigned char  size(1) Largest target is 1
		 -> hexTocharNEG@decena(BANK0[1]), hexTochar@decena(BANK0[1]), 

    divisiondecimal@un	PTR unsigned char  size(1) Largest target is 1
		 -> hexTocharNEG@unidad(BANK0[1]), hexTochar@unidad(BANK0[1]), 

    hexTocharNEG@conv	PTR unsigned char  size(1) Largest target is 3
		 -> disp3(BANK0[3]), 

    hexTochar@conv	PTR unsigned char  size(1) Largest target is 3
		 -> disp2(BANK0[3]), 

    division@dec	PTR unsigned char  size(1) Largest target is 2
		 -> floTochar@digdecimal(BANK0[2]), 

    division@un	PTR unsigned char  size(1) Largest target is 2
		 -> floTochar@digdecimal(BANK0[2]), 

    floTochar@conv	PTR unsigned char  size(1) Largest target is 3
		 -> disp1(BANK0[3]), 


Critical Paths under _main in COMMON

    _main->___xxtofl
    _initLCD->_comandoLCD
    _hexTocharNEG->_divisiondecimal
    _hexTochar->_divisiondecimal
    _divisiondecimal->___awdiv
    _floTochar->___xxtofl
    _floTochar->_division
    _division->___awdiv
    ___flsub->___fladd
    ___flsub->___xxtofl
    ___flmul->___xxtofl
    _cursorLCD->_comandoLCD
    _MasterInit_I2C->___lldiv
    _LCDstring->_dispCHAR

Critical Paths under _interrupcion in COMMON

    None.

Critical Paths under _main in BANK0

    _main->_floTochar
    _hexTocharNEG->_divisiondecimal
    _hexTochar->_divisiondecimal
    _divisiondecimal->___awdiv
    _floTochar->___fltol
    _division->___awdiv
    ___fltol->___flmul
    ___flsub->___fladd
    ___flmul->___xxtofl
    _config->_MasterInit_I2C
    _MasterInit_I2C->___lldiv

Critical Paths under _interrupcion in BANK0

    None.

Critical Paths under _main in BANK1

    None.

Critical Paths under _interrupcion in BANK1

    None.

Critical Paths under _main in BANK3

    None.

Critical Paths under _interrupcion in BANK3

    None.

Critical Paths under _main in BANK2

    None.

Critical Paths under _interrupcion in BANK2

    None.

Call Graph Tables:

 ---------------------------------------------------------------------------------
 (Depth) Function   	        Calls       Base Space   Used Autos Params    Refs
 ---------------------------------------------------------------------------------
 (0) _main                                                 4     4      0   20976
                                             60 BANK0      4     4      0
                          _LCDstring
                  _MasterReceive_I2C
                  _MasterRepeatS_I2C
                     _MasterSend_I2C
                    _MasterStart_I2C
                     _MasterStop_I2C
                            ___flmul
                           ___xxtofl
                             _config
                          _cursorLCD
                           _dispCHAR
                          _floTochar
                          _hexTochar
                       _hexTocharNEG
                            _initLCD
 ---------------------------------------------------------------------------------
 (1) _initLCD                                              2     2      0      22
                                              5 COMMON     2     2      0
                         _comandoLCD
 ---------------------------------------------------------------------------------
 (1) _hexTocharNEG                                         9     8      1    3406
                                              9 BANK0      9     8      1
                    _divisiondecimal
 ---------------------------------------------------------------------------------
 (1) _hexTochar                                            8     7      1    3062
                                              9 BANK0      8     7      1
                    _divisiondecimal
 ---------------------------------------------------------------------------------
 (2) _divisiondecimal                                      8     5      3    2620
                                              7 COMMON     3     3      0
                                              4 BANK0      5     2      3
                            ___awdiv
                             ___bmul
 ---------------------------------------------------------------------------------
 (1) _floTochar                                           17    12      5    9212
                                             43 BANK0     17    12      5
                            ___flmul
                            ___flsub
                            ___fltol
                           ___xxtofl
                           _division
 ---------------------------------------------------------------------------------
 (2) _division                                             7     5      2    1801
                                              7 COMMON     3     3      0
                                              4 BANK0      4     2      2
                            ___awdiv
                             ___bmul
 ---------------------------------------------------------------------------------
 (3) ___bmul                                               4     3      1     320
                                              2 COMMON     4     3      1
 ---------------------------------------------------------------------------------
 (3) ___awdiv                                              9     5      4     985
                                              2 COMMON     5     1      4
                                              0 BANK0      4     4      0
 ---------------------------------------------------------------------------------
 (2) ___xxtofl                                            14    10      4     474
                                              2 COMMON     8     4      4
                                              0 BANK0      6     6      0
 ---------------------------------------------------------------------------------
 (2) ___fltol                                             11     7      4     381
                                             32 BANK0     11     7      4
                            ___flmul (ARG)
 ---------------------------------------------------------------------------------
 (2) ___flsub                                              8     0      8    2333
                                             12 BANK0      8     0      8
                            ___fladd
                           ___xxtofl (ARG)
 ---------------------------------------------------------------------------------
 (3) ___fladd                                             20    12      8    2136
                                              2 COMMON     8     0      8
                                              0 BANK0     12    12      0
 ---------------------------------------------------------------------------------
 (2) ___flmul                                             26    18      8    3533
                                              6 BANK0     26    18      8
                          __Umul8_16
                           ___xxtofl (ARG)
 ---------------------------------------------------------------------------------
 (3) __Umul8_16                                            9     7      2     980
                                              2 COMMON     4     2      2
                                              0 BANK0      5     5      0
 ---------------------------------------------------------------------------------
 (1) _cursorLCD                                            4     3      1     460
                                              5 COMMON     4     3      1
                         _comandoLCD
 ---------------------------------------------------------------------------------
 (2) _comandoLCD                                           3     3      0      22
                                              2 COMMON     3     3      0
 ---------------------------------------------------------------------------------
 (1) _config                                               0     0      0     542
                     _MasterInit_I2C
 ---------------------------------------------------------------------------------
 (2) _MasterInit_I2C                                       8     4      4     542
                                              6 BANK0      8     4      4
                            ___lldiv
 ---------------------------------------------------------------------------------
 (3) ___lldiv                                             14     6      8     421
                                              2 COMMON     8     0      8
                                              0 BANK0      6     6      0
 ---------------------------------------------------------------------------------
 (1) _MasterStop_I2C                                       0     0      0       0
                      _waitCondition
 ---------------------------------------------------------------------------------
 (1) _MasterStart_I2C                                      0     0      0       0
                      _waitCondition
 ---------------------------------------------------------------------------------
 (1) _MasterSend_I2C                                       1     1      0      22
                                              2 COMMON     1     1      0
                      _waitCondition
 ---------------------------------------------------------------------------------
 (1) _MasterRepeatS_I2C                                    0     0      0       0
                      _waitCondition
 ---------------------------------------------------------------------------------
 (1) _MasterReceive_I2C                                    2     2      0     121
                                              2 COMMON     2     2      0
                      _waitCondition
 ---------------------------------------------------------------------------------
 (2) _waitCondition                                        0     0      0       0
 ---------------------------------------------------------------------------------
 (1) _LCDstring                                            2     2      0     100
                                              4 COMMON     2     2      0
                           _dispCHAR
 ---------------------------------------------------------------------------------
 (1) _dispCHAR                                             2     2      0      22
                                              2 COMMON     2     2      0
 ---------------------------------------------------------------------------------
 Estimated maximum stack depth 3
 ---------------------------------------------------------------------------------
 (Depth) Function   	        Calls       Base Space   Used Autos Params    Refs
 ---------------------------------------------------------------------------------
 (4) _interrupcion                                         2     2      0       0
                                              0 COMMON     2     2      0
 ---------------------------------------------------------------------------------
 Estimated maximum stack depth 4
 ---------------------------------------------------------------------------------

 Call Graph Graphs:

 _main (ROOT)
   _LCDstring
     _dispCHAR
   _MasterReceive_I2C
     _waitCondition
   _MasterRepeatS_I2C
     _waitCondition
   _MasterSend_I2C
     _waitCondition
   _MasterStart_I2C
     _waitCondition
   _MasterStop_I2C
     _waitCondition
   ___flmul
     __Umul8_16
     ___xxtofl (ARG)
   ___xxtofl
   _config
     _MasterInit_I2C
       ___lldiv
   _cursorLCD
     _comandoLCD
   _dispCHAR
   _floTochar
     ___flmul
       __Umul8_16
       ___xxtofl (ARG)
     ___flsub
       ___fladd
       ___xxtofl (ARG)
     ___fltol
       ___flmul (ARG)
         __Umul8_16
         ___xxtofl (ARG)
     ___xxtofl
     _division
       ___awdiv
       ___bmul
   _hexTochar
     _divisiondecimal
       ___awdiv
       ___bmul
   _hexTocharNEG
     _divisiondecimal
       ___awdiv
       ___bmul
   _initLCD
     _comandoLCD

 _interrupcion (ROOT)

 Address spaces:
Name               Size   Autos  Total    Cost      Usage
BITCOMMON            E      0       0       0        0.0%
EEDATA             100      0       0       0        0.0%
NULL                 0      0       0       0        0.0%
CODE                 0      0       0       0        0.0%
COMMON               E      A       C       1       85.7%
BITSFR0              0      0       0       1        0.0%
SFR0                 0      0       0       1        0.0%
BITSFR1              0      0       0       2        0.0%
SFR1                 0      0       0       2        0.0%
STACK                0      0       0       2        0.0%
ABS                  0      0      5A       3        0.0%
BITBANK0            50      0       0       4        0.0%
BITSFR3              0      0       0       4        0.0%
SFR3                 0      0       0       4        0.0%
BANK0               50     40      4E       5       97.5%
BITSFR2              0      0       0       5        0.0%
SFR2                 0      0       0       5        0.0%
BITBANK1            50      0       0       6        0.0%
BANK1               50      0       0       7        0.0%
BITBANK3            60      0       0       8        0.0%
BANK3               60      0       0       9        0.0%
BITBANK2            60      0       0      10        0.0%
BANK2               60      0       0      11        0.0%
DATA                 0      0      5A      12        0.0%


Microchip Technology PIC Macro Assembler V2.31 build 20201012212115 
Symbol Table                                                                                   Thu Aug 05 13:05:29 2021

                         pc 0002              ___bmul@product 0074               ?_hexTocharNEG 0029  
                        l80 077F                          l86 0BA7                          l78 0645  
                        l95 0C7D                          l89 0F43                          l98 0BFC  
              ___awdiv@sign 0021                          fsr 0004           hexTocharNEG@valor 002E  
       __Umul8_16@word_mpld 0022                         l103 0CDD                         l112 0EA7  
                       l132 0ACB                         l141 0ABF                         l150 0B3B  
                       l135 0AD7                         l144 0AAD                         l129 0C35  
                       l138 0AB6                         l147 0ACA                         l308 0D45  
                       l174 0B5E                         l166 07EA                         l169 0AE7  
                       l177 0AFB                         l425 0DAE                         l186 0B1A  
                       l611 0B82                         l607 0601                         l711 0FAD  
                       l608 060D                         l465 0E15                         l705 0F68  
                       l458 0E2A                         l298 07FF                         l571 0467  
                       l707 0FFF                         l468 0E2A                         l661 0385  
                       l565 03E9                         l590 057F                         l718 0FC9  
                       l719 0FD5                         l680 0BBE                         l673 0379  
                       l569 0490                         l682 0BD0                         l586 055B  
                       l578 060D                         l667 02F1                         l596 05A1  
                       l599 05DF                         _RE0 0048                         _RE1 0049  
        hexTocharNEG@decena 0031                         fsr0 0004                         indf 0000  
              ___flmul@aexp 0034                ___flmul@bexp 0039                ___flmul@sign 0033  
              ___flmul@temp 003E                ___flmul@prod 003A          hexTocharNEG@unidad 0030  
              ___fltol@exp1 004A                        l2100 0F8B                        l2110 0FBF  
                      l2102 0F92                        l2120 0FF2                        l2112 0FC3  
                      l2104 0F96                        l2122 0FF6                        l2114 0FCD  
                      l2106 0FA4                        l2124 0FF7                        l2116 0FD7  
                      l2108 0FB4                        l2140 07A5                        l2230 0B42  
                      l2118 0FED                        l2150 07CC                        l2142 07AE  
                      l2240 0AFD                        l2160 0AAE                        l2320 0D04  
                      l2312 0CDE                        l2400 0C06                        l2232 0B47  
                      l2152 07D2                        l2144 07B4                        l2136 07A1  
                      l2242 0AFE                        l2170 0AAA                        l2162 0AB3  
                      l2330 0D37                        l2322 0D0D                        l2314 0CF0  
                      l2402 0C33                        l2234 0B4D                        l2090 0F60  
                      l2410 0C41                        l2154 07D8                        l2146 07BD  
                      l2138 07A4                        l2244 0B0A                        l2180 0B29  
                      l2164 0AC1                        l2172 0AB7                        l2324 0D1F  
                      l2316 0CF3                        l2332 0D3D                        l2404 0C34  
                      l2236 0B53                        l2228 0B3D                        l2500 0182  
                      l1700 041F                        l2092 0F70                        l2084 0F47  
                      l2340 0D4D                        l2412 0C45                        l2420 0E32  
                      l2156 07DE                        l2148 07C3                        l2246 0B0E  
                      l2182 0B32                        l2166 0AC6                        l2174 0ABC  
                      l2326 0D2D                        l2318 0D00                        l2238 0B58  
                      l2510 0212                        l2502 0192                        l1702 0423  
                      l1710 0433                        l2086 0F4C                        l2350 0D61  
                      l2342 0D52                        l1550 07EC                        l2414 0C70  
                      l2406 0C39                        l2430 0E6F                        l2422 0E36  
                      l2158 07E4                        l2184 0B37                        l2176 0B1C  
                      l2168 0AA5                        l2328 0D2E                        l2520 02A6  
                      l2512 0222                        l2504 01AF                        l2440 0032  
                      l1800 05AB                        l1720 0476                        l1712 0434  
                      l1704 0427                        l1640 0398                        l1632 0386  
                      l2096 0F79                        l2088 0F50                        l2360 0D77  
                      l2352 0D63                        l2344 0D54                        l2336 0D46  
                      l1560 07FE                        l1552 07ED                        l2416 0C76  
                      l2408 0C3D                        l2432 0E9A                        l2424 0E39  
                      l2600 0BEF                        l2186 0B3A                        l2178 0B21  
                      l2530 02CB                        l2522 02B4                        l2514 024F  
                      l2506 01C8                        l2450 0049                        l2442 0036  
                      l1810 05E9                        l1802 05B9                        l1730 0494  
                      l1722 047A                        l1714 044B                        l1706 042B  
                      l1642 039D                        l1650 03AD                        l1634 038D  
                      l2098 0F7E                        l2370 0D9A                        l2362 0D7B  
                      l2354 0D69                        l2346 0D58                        l2338 0D49  
                      l1554 07F1                        l2434 0EA0                        l2426 0E3D  
                      l2418 0E2E                        l2602 0BF5                        l2610 0CA2  
                      l1900 0AF8                        l2380 0BAB                        l2540 02EE  
                      l2524 02BD                        l2532 02D1                        l2516 0275  
                      l2508 01E5                        l2460 0062                        l2452 004B  
                      l2444 0037                        l2436 0025                        l1820 05FD  
                      l1812 05F1                        l1804 05BD                        l1740 04BD  
                      l1732 0499                        l1724 047B                        l1716 046B  
                      l1708 042F                        l1660 03C7                        l1652 03B5  
                      l1644 03A2                        l1636 0393                        l2364 0D8C  
                      l2356 0D6C                        l2372 0DA0                        l2348 0D5D  
                      l1556 07F5                        l2428 0E68                        l2620 0CD0  
                      l2612 0CA8                        l2604 0C81                        l2390 0BCC  
                      l2382 0BAD                        l2550 030D                        l2534 02D5  
                      l2526 02C1                        l2518 029D                        l2470 0077  
                      l2462 0063                        l2454 0053                        l2446 003C  
                      l2438 002C                        l1822 0608                        l1814 05F6  
                      l1806 05DB                        l1750 04D1                        l1742 04C1  
                      l1726 0484                        l1718 0474                        l1670 03DE  
                      l1662 03CB                        l1654 03BA                        l1646 03AA  
                      l1638 0397                        l1910 0DDA                        l1902 0DAF  
                      l2374 0DA5                        l2366 0D92                        l2358 0D73  
                      l1558 07F7                        l2622 0CD6                        l2606 0C87  
                      l2614 0CB0                        l2630 065B                        l1840 0AD9  
                      l2384 0BB4                        l2560 0353                        l2552 0326  
                      l2544 02F6                        l2536 02D6                        l2528 02C2  
                      l2480 0092                        l2472 007F                        l2464 0068  
                      l2456 0058                        l2448 0041                        l1824 060C  
                      l1816 05F7                        l1808 05E4                        l1760 0539  
                      l1752 04DA                        l1744 04CA                        l1736 04A2  
                      l1728 0488                        l1680 03F7                        l1672 03DF  
                      l1664 03CC                        l1656 03C0                        l1648 03AB  
                      l1912 0DDB                        l1904 0DBC                        l2376 0DAA  
                      l2368 0D93                        l2616 0CB5                        l2608 0C99  
                      l2640 067C                        l2632 0660                        l2624 060E  
                      l1842 0ADC                        l2394 0BFD                        l2386 0BB8  
                      l2570 0372                        l2562 035D                        l2546 02FB  
                      l2554 032C                        l2538 02DA                        l2490 0114  
                      l2482 00A2                        l2474 0084                        l2466 006D  
                      l2458 005E                        l1818 05FB                        l1762 053E  
                      l1746 04CC                        l1738 04B9                        l1754 04DF  
                      l1690 040B                        l1682 03FB                        l1666 03D1  
                      l1674 03E1                        l1658 03C1                        l1914 0DE3  
                      l2618 0CC7                        l2650 06DF                        l2642 0682  
                      l2634 066C                        l2626 0650                        l1844 0ADE  
                      l2396 0C01                        l2580 0B97                        l2388 0BC7  
                      l2572 037D                        l2564 035F                        l2556 0339  
                      l2548 0309                        l2492 0130                        l2484 00AF  
                      l2476 0089                        l2468 0075                        l1780 0586  
                      l1772 0571                        l1756 04F5                        l1764 054D  
                      l1748 04D0                        l1692 040F                        l1684 03FF  
                      l1676 03EF                        l1668 03D6                        l1940 0B63  
                      l1932 0E0A                        l1924 0DF1                        l1916 0DE5  
                      l1908 0DC5                        l2660 070D                        l2652 06EB  
                      l2644 0687                        l2636 0671                        l2628 0656  
                      l1846 0AE4                        l2398 0C04                        l2582 0B98  
                      l2566 036D                        l2558 0344                        l2494 014C  
                      l2486 00CC                        l1790 0594                        l1782 0588  
                      l1774 057A                        l1766 0563                        l1758 0533  
                      l1694 0413                        l1686 0403                        l1678 03F3  
                      l1934 0E1A                        l1918 0DE9                        l1926 0E03  
                      l2590 0EF5                        l2670 0734                        l2662 0716  
                      l2654 06F7                        l2646 0693                        l2638 0676  
                      l2576 0B83                        l2568 0371                        l2496 0155  
                      l2488 00E8                        l1792 0598                        l1784 058D  
                      l1776 057E                        l1768 0568                        l1696 0417  
                      l1688 0407                        l1936 0E1F                        l2592 0F1F  
                      l2584 0EA8                        l2680 0767                        l2672 0740  
                      l2664 071C                        l2656 06FF                        l2648 0698  
                      l1890 0ACB                        l2578 0B93                        l2498 0165  
                      l1794 059E                        l1778 0583                        l1786 058F  
                      l1698 041B                        l1938 0B5F                        l2594 0F3C  
                      l2586 0EBD                        l2682 076D                        l2674 0749  
                      l2666 0725                        l2658 0705                        l1892 0AD1  
                      l1788 0593                        l2588 0EC1                        l2596 0BD4  
                      l2684 0777                        l2676 0752                        l2668 072E  
                      l1894 0AE9                        l1798 05A6                        l2598 0BE6  
                      l2678 075B                        l1896 0AEC                        l1898 0AEE  
                      STR_1 0806                        u2000 05DB                        u2001 05DA  
                      u2010 05E4                        u2011 05E3                        u2020 05E9  
                      u2021 05E8                        u2030 05F6                        u2031 05F5  
                      u3000 0BCC                        u2040 05FB                        u2200 0E02  
                      u3001 0BCB                        u2041 05FA                        u2201 0E01  
                      u2130 0AD1                        u3010 0C16                        u2050 060C  
                      u2210 0E09                        u1410 07F1                        u2131 0AD0  
                      u2051 060B                        u2211 0E08                        u1411 07F0  
                      u2140 0AD7                        u3100 006D                        u1420 07FE  
                      u3020 0C76                        u2141 0AD6                        u3101 006C  
                      u1421 07FD                        u3021 0C75                        u3110 0084  
                      u2230 0E1A                        u2150 0DBC                        u3030 0E6E  
                      u3015 0C11                        u3111 0083                        u2231 0E19  
                      u2151 0DBB                        u3031 0E6D                        u3120 0089  
                      u1600 0397                        u2240 0E1F                        u2160 0DD3  
                      u3040 0EA0                        u3121 0088                        u1601 0396  
                      u2241 0E1E                        u2225 0E0C                        u3041 0E9F  
                      u3050 0036                        u1610 039D                        u2170 0DE9  
                      u3211 01D7                        u3131 00DA                        u3051 0035  
                      u1611 039C                        u2171 0DE8                        u3300 02C1  
                      u3212 01DE                        u3132 00E1                        u3060 003C  
                      u1700 0454                        u1620 03A2                        u2180 0DF0  
                      u3301 02C0                        u3221 0204                        u3213 01E5  
                      u3205 01B1                        u3141 00F6                        u3133 00E8  
                      u3061 003B                        u1701 0452                        u1621 03A1  
                      u2181 0DEF                        u2165 0DCE                        u3222 020B  
                      u3142 00FD                        u3070 0041                        u1710 0455  
                      u1630 03C0                        u3231 0231                        u3223 0212  
                      u3151 0122                        u3143 0104                        u3071 0040  
                      u1631 03BF                        u3400 0353                        u3320 02D5  
                      u3240 025B                        u3232 0238                        u3152 0129  
                      u3080 0062                        u1800 04C1                        u1720 046B  
                      u1640 03CB                        u3401 0352                        u3321 02D4  
                      u3233 023F                        u3161 013E                        u3153 0130  
                      u3081 0061                        u1801 04C0                        u1721 046A  
                      u1641 03CA                        u3410 0371                        u3330 02DA  
                      u3162 0145                        u3090 0068                        u1810 04D0  
                      u1730 047A                        u1650 03D1                        u3411 0370  
                      u3331 02D9                        u3315 02C4                        u3251 0267  
                      u3163 014C                        u3091 0067                        u1811 04CF  
                      u1731 0479                        u1651 03D0                        u2195 0DF2  
                      u3340 02EE                        u3260 0283                        u3252 026E  
                      u1900 057E                        u1660 03D6                        u2700 0FC3  
                      u2620 0F4C                        u3420 0C87                        u3405 034F  
                      u3341 02ED                        u3253 0275                        u3245 0256  
                      u3181 0174                        u1901 057D                        u1661 03D5  
                      u2701 0FC2                        u2621 0F4B                        u3421 0C86  
                      u3350 02F5                        u3182 017B                        u1910 0583  
                      u1830 04F5                        u1750 0490                        u1670 03EF  
                      u2710 0FC9                        u2630 0F50                        u3430 076D  
                      u3351 02F4                        u3271 028F                        u3191 01A1  
                      u3183 0182                        u3175 014E                        u1911 0582  
                      u1831 04F4                        u1751 048F                        u1671 03EE  
                      u2711 0FC8                        u2631 0F4F                        u3431 076C  
                      u3360 02FB                        u3272 0296                        u3192 01A8  
                      u1920 058D                        u1760 0494                        u1680 03F3  
                      u2720 0FCD                        u2640 0F70                        u3361 02FA  
                      u3273 029D                        u3265 027E                        u3193 01AF  
                      u1921 058C                        u1841 050C                        u1833 04F1  
                      u1825 04D3                        u1761 0493                        u1745 047D  
                      u1681 03F2                        u2721 0FCC                        u2641 0F6F  
                      u2810 0CF0                        u3370 030D                        u1930 0593  
                      u1850 0520                        u1842 050D                        u1770 0499  
                      u1690 044B                        u2730 0FE2                        u2811 0CEF  
                      u3371 030C                        u1931 0592                        u1851 0521  
                      u1843 0512                        u1771 0498                        u1691 044A  
                      u3380 031C                        u1940 0598                        u1860 053E  
                      u1852 0526                        u1844 0513                        u2740 0FF2  
                      u2660 0F91                        u2900 0D69                        u3285 029F  
                      u1941 0597                        u1861 053D                        u1853 0527  
                      u1845 0518                        u1781 04AB                        u2741 0FF1  
                      u2661 0F90                        u2901 0D68                        u2830 0D04  
                      u3390 0339                        u1950 059E                        u1870 0563  
                      u1846 0519                        u1790 04BD                        u1782 04B2  
                      u2750 0FF6                        u2831 0D03                        u3391 0338  
                      u3295 02B6                        u1951 059D                        u1871 0562  
                      u1791 04BC                        u1783 04B9                        u1695 0447  
                      u2751 0FF5                        u2735 0FDD                        u2655 0F83  
                      u3447 07A9                        u1960 05A5                        u1880 0568  
                      u2680 0FB3                        u2920 0D7B                        u2825 0CF5  
                      u3385 0317                        u1961 05A4                        u1881 0567  
                      u2681 0FB2                        u2921 0D7A                        u3457 07B8  
                      u2850 0D1F                        u2770 0B42                        u1970 05AB  
                      u2851 0D1E                        u2771 0B41                        u3395 0335  
                      u1971 05AA                        u2675 0FA5                        u2915 0D6D  
                      u3467 07C7                        u2780 0B53                        u1980 05BD  
                      u2940 0D8C                        u2845 0D06                        u3477 0AF3  
                      u2781 0B52                        u1981 05BC                        u2941 0D8B  
                      u2790 0B1A                        u2870 0D3D                        u1990 05CC  
                      u3487 0AE1                        u2791 0B19                        u2871 0D3C  
                      u2855 0D1B                        u1895 0573                        u2695 0FB8  
                      u2935 0D7C                        u2960 0DA0                        u2880 0D4D  
                      u2865 0D2F                        u2961 0D9F                        u2945 0D88  
                      u2881 0D4C                        u2970 0DA5                        u2890 0D58  
                      u1995 05C7                        u2971 0DA4                        u2955 0D94  
                      u2891 0D57                        u2980 0BB8                        u2981 0BB7  
                      i1l73 0A9E                        u2995 0BBF                        _main 060E  
                      btemp 007E         hexTocharNEG@centena 002F             _divisiondecimal 0E2B  
                      start 000C           ___bmul@multiplier 0075                 division@dec 0025  
               division@div 0027              ??_hexTocharNEG 002A          __size_of_LCDstring 001F  
             ___fltol@sign1 0049             __end_of___fladd 060E                       ?_main 0070  
           __end_of___awdiv 0DAF             __end_of___flmul 0386             __end_of___flsub 0B83  
           __end_of___fltol 0E2B                       _ANSEL 0188             __end_of___lldiv 0D46  
           ___awdiv@divisor 0072             ___awdiv@counter 0020               floTochar@conv 004F  
                     _PORTA 0005                       _PORTB 0006                       _PORTD 0008  
                     _PORTE 0009               floTochar@temp 0054                       _TRISA 0085  
                     _TRISB 0086                       _TRISD 0088                       _TRISE 0089  
                     _DatS1 007B                       _DatS2 006D                       _DatS3 007A  
   __size_of_MasterInit_I2C 0039             __end_of_initLCD 07EB                       _disp1 006A  
                     _disp2 0067                       _disp3 0064                       _lect1 0060  
   __size_of_MasterSend_I2C 000B                       pclath 000A                       status 0003  
                     wtemp0 007E     __size_of_MasterStop_I2C 0009             __initialization 000F  
              __end_of_main 07A1        hexTocharNEG@temporal 002D                      ??_main 005C  
       divisiondecimal@cent 0026            ___awdiv@dividend 0074     __end_of_divisiondecimal 0EA8  
                    _ANSELH 0189          MasterInit_I2C@frec 0026           __end_of_LCDstring 0B1B  
            floTochar@valor 004B                      _SSPADD 0093                      _SSPCON 0014  
                    _SSPBUF 0013            __end_of___xxtofl 1000               hexTochar@conv 0029  
          __end_of_dispCHAR 0AE8                      ___bmul 07EB            __end_of_division 0C7E  
                 ??___fladd 0020                   ??___awdiv 0076                   ??___flmul 002E  
                 ??___flsub 007A                   ??___fltol 0044                   ??___lldiv 0020  
                    _config 0B83            ___awdiv@quotient 0022                   ??_initLCD 0075  
        __size_of__Umul8_16 0029                      saved_w 007E       __end_of_waitCondition 0AD8  
      __end_of_hexTocharNEG 0CDE                ___xxtofl@arg 0022                ___xxtofl@exp 0021  
              ___xxtofl@val 0072     __end_of__initialization 0021    __size_of_MasterStart_I2C 0009  
                ___fltol@f1 0040      MasterReceive_I2C@valor 0073         ___bmul@multiplicand 0072  
            __pcstackCOMMON 0070               ?_interrupcion 0070              _MasterInit_I2C 0BFD  
        __size_of_floTochar 009C          __size_of_hexTochar 002C              _MasterSend_I2C 0AC0  
          ?_divisiondecimal 0024                  __pbssBANK0 0060          __size_of_cursorLCD 0023  
            _MasterStop_I2C 0AB7           __end_of__Umul8_16 0BD1              ??_interrupcion 0070  
                __pmaintext 060E                     ?___bmul 0072                  __pintentry 0004  
                   ?_config 0070      __end_of_MasterInit_I2C 0C36                  _comandoLCD 0AE8  
                 ?___xxtofl 0072      __end_of_MasterSend_I2C 0ACB             floTochar@entero 0059  
                 ?_dispCHAR 0070                     _SSPCON2 0091                     _SSPSTAT 0094  
                __stringtab 0800                   ?_division 0024      __end_of_MasterStop_I2C 0AC0  
            hexTochar@valor 002D           __end_of_floTochar 0F44             __size_of___bmul 0015  
         __end_of_hexTochar 0BFD                     ___fladd 0386                     ___awdiv 0D46  
         ??_MasterStart_I2C 0072                     ___flmul 0025                     ___flsub 0B5F  
                   ___fltol 0DAF                     ___lldiv 0CDE             __size_of_config 0025  
                   __ptext1 07A1                     __ptext2 0C7E                     __ptext3 0BD1  
                   __ptext4 0E2B                     __ptext5 0EA8                     __ptext6 0C36  
                   __ptext7 07EB                     __ptext8 0D46                     __ptext9 0F44  
                   _initLCD 07A1             ?_MasterInit_I2C 0026           __end_of_cursorLCD 0B5F  
                ??___xxtofl 0076       __size_of_hexTocharNEG 0060                  ??_dispCHAR 0072  
           ?_MasterSend_I2C 0070        end_of_initialization 0021                  ??_division 0077  
         _MasterReceive_I2C 0B1B             ?_MasterStop_I2C 0070                   _LCDstring 0AFC  
        ?_MasterReceive_I2C 0070             ___lldiv@divisor 0072             ___lldiv@counter 0025  
       ??_MasterReceive_I2C 0072                _hexTocharNEG 0C7E                 ?_comandoLCD 0070  
               ___fladd@grs 002B           _MasterRepeatS_I2C 0AA5               ___xxtofl@sign 0020  
                 _TRISCbits 0087          MasterSend_I2C@dato 0072          ?_MasterRepeatS_I2C 0070  
      __end_of_interrupcion 0AA5            hexTocharNEG@conv 0029   __end_of_MasterReceive_I2C 0B3C  
               ___flmul@grs 0035         ??_MasterRepeatS_I2C 0072                  ?_LCDstring 0070  
                division@un 0024            hexTochar@centena 002F              __end_of___bmul 0800  
            __end_of_config 0BA8   __end_of_MasterRepeatS_I2C 0AAE         start_initialization 000F  
            division@conteo 0026          divisiondecimal@dec 0025          divisiondecimal@div 0028  
       __size_of_comandoLCD 0014                    ??___bmul 0073                   __Umul8_16 0BA8  
                  ??_config 007A      __size_of_waitCondition 000D                   ___fladd@a 0076  
                 ___fladd@b 0072       divisiondecimal@conteo 0027                   ___flmul@a 002A  
                 ___flmul@b 0026                 __pbssCOMMON 007A                   ___flsub@a 002C  
                 ___flsub@b 0030                   ___latbits 0002               __pcstackBANK0 0020  
         __size_of___xxtofl 00BC           __size_of_dispCHAR 0010  __size_of_MasterReceive_I2C 0021  
           _MasterStart_I2C 0AAE           __size_of_division 0048                 ??_LCDstring 0074  
  __size_of_divisiondecimal 007D                    ?___fladd 0072                    ?___awdiv 0072  
                  ?___flmul 0026                    ?___flsub 002C                    ?___fltol 0040  
                  ?___lldiv 0072                  ?__Umul8_16 0072            ??_MasterInit_I2C 002A  
                 _floTochar 0EA8                   __pstrings 0800                   _hexTochar 0BD1  
__size_of_MasterRepeatS_I2C 0009            ??_MasterSend_I2C 0072       __size_of_interrupcion 0007  
                  ?_initLCD 0070            ??_MasterStop_I2C 0072                   _cursorLCD 0B3C  
             _waitCondition 0ACB           interrupt_function 0004            floTochar@decimal 0058  
                 dispCHAR@b 0073                _interrupcion 0A9E                  ?_floTochar 004B  
                ?_hexTochar 0029                 __stringbase 0805                ??_comandoLCD 0072  
           hexTochar@decena 0030     __end_of_MasterStart_I2C 0AB7                  ?_cursorLCD 0075  
            ?_waitCondition 0070             hexTochar@unidad 002E           divisiondecimal@un 0024  
        __end_of_comandoLCD 0AFC         floTochar@digdecimal 005A                 ??__Umul8_16 0074  
          __size_of___fladd 0288            __size_of___awdiv 0069            __size_of___flmul 0361  
          __size_of___flsub 0024            __size_of___fltol 007C            __size_of___lldiv 0068  
         ??_divisiondecimal 0077          __end_of__stringtab 0806            __size_of_initLCD 004A  
                  ___xxtofl 0F44                    _dispCHAR 0AD8                    __ptext10 0DAF  
                  __ptext11 0B5F                    __ptext20 0AB7                    __ptext12 0386  
                  __ptext21 0AAE                    __ptext13 0025                    __ptext22 0AC0  
                  __ptext14 0BA8                    __ptext23 0AA5                    __ptext15 0B3C  
                  __ptext24 0B1B                    __ptext16 0AE8                    __ptext25 0ACB  
                  __ptext17 0B83                    __ptext26 0AFC                    __ptext18 0BFD  
                  __ptext27 0AD8                    __ptext19 0CDE                    __ptext28 0A9E  
          LCDstring@mensaje 0075                    _division 0C36               __size_of_main 0193  
             cursorLCD@fila 0077               cursorLCD@temp 0078                 ??_floTochar 0050  
               ??_hexTochar 002A             ??_waitCondition 0072            ?_MasterStart_I2C 0070  
               ??_cursorLCD 0076                    intlevel1 0000            ___lldiv@dividend 0076  
                 stringcode 0800                  _OSCCONbits 008F            cursorLCD@columna 0075  
    __Umul8_16@multiplicand 0072            ___lldiv@quotient 0021                    stringdir 0800  
                  stringtab 0800                 _SSPCON2bits 0091               ___fladd@signs 0028  
              ___fladd@aexp 0029                ___fladd@bexp 002A        __Umul8_16@multiplier 0024  
         __Umul8_16@product 0020               comandoLCD@cmd 0074  
