

Microchip MPLAB XC8 Assembler V2.31 build 20201012212115 
                                                                                               Fri Jul 23 11:44:22 2021

Microchip MPLAB XC8 C Compiler v2.31 (Free license) build 20201012212115 Og1 
     1                           	processor	16F887
     2                           	pagewidth 120
     3                           	opt	flic
     4                           	psect	strings,global,class=STRING,delta=2,noexec
     5                           	psect	cinit,global,class=CODE,merge=1,delta=2
     6                           	psect	bssCOMMON,global,class=COMMON,space=1,delta=1,noexec
     7                           	psect	bssBANK0,global,class=BANK0,space=1,delta=1,noexec
     8                           	psect	cstackCOMMON,global,class=COMMON,space=1,delta=1,noexec
     9                           	psect	cstackBANK0,global,class=BANK0,space=1,delta=1,noexec
    10                           	psect	maintext,global,class=CODE,split=1,delta=2
    11                           	psect	text1,local,class=CODE,merge=1,delta=2
    12                           	psect	text2,local,class=CODE,merge=1,delta=2
    13                           	psect	text3,local,class=CODE,merge=1,delta=2
    14                           	psect	text4,local,class=CODE,merge=1,delta=2
    15                           	psect	text5,local,class=CODE,merge=1,delta=2
    16                           	psect	text6,local,class=CODE,merge=1,delta=2
    17                           	psect	text7,local,class=CODE,merge=1,delta=2,group=1
    18                           	psect	text8,local,class=CODE,merge=1,delta=2,group=1
    19                           	psect	text9,local,class=CODE,merge=1,delta=2,group=1
    20                           	psect	text10,local,class=CODE,merge=1,delta=2,group=1
    21                           	psect	text11,local,class=CODE,merge=1,delta=2,group=1
    22                           	psect	text12,local,class=CODE,merge=1,delta=2
    23                           	psect	text13,local,class=CODE,merge=1,delta=2
    24                           	psect	text14,local,class=CODE,merge=1,delta=2
    25                           	psect	text15,local,class=CODE,merge=1,delta=2
    26                           	psect	text16,local,class=CODE,merge=1,delta=2
    27                           	psect	text17,local,class=CODE,merge=1,delta=2
    28                           	psect	text18,local,class=CODE,merge=1,delta=2
    29                           	psect	text19,local,class=CODE,merge=1,delta=2
    30                           	psect	text20,local,class=CODE,merge=1,delta=2
    31                           	psect	text21,local,class=CODE,merge=1,delta=2,group=1
    32                           	psect	text22,local,class=CODE,merge=1,delta=2,group=1
    33                           	psect	text23,local,class=CODE,merge=1,delta=2,group=1
    34                           	psect	text24,local,class=CODE,merge=1,delta=2
    35                           	psect	intentry,global,class=CODE,delta=2
    36                           	psect	config,global,abs,ovrld,class=CONFIG,space=4,delta=2,noexec
    37                           	dabs	1,0x7E,2
    38  0000                     
    39                           ; Version 2.20
    40                           ; Generated 12/02/2020 GMT
    41                           ; 
    42                           ; Copyright © 2020, Microchip Technology Inc. and its subsidiaries ("Microchip")
    43                           ; All rights reserved.
    44                           ; 
    45                           ; This software is developed by Microchip Technology Inc. and its subsidiaries ("Microch
      +                          ip").
    46                           ; 
    47                           ; Redistribution and use in source and binary forms, with or without modification, are
    48                           ; permitted provided that the following conditions are met:
    49                           ; 
    50                           ;     1. Redistributions of source code must retain the above copyright notice, this lis
      +                          t of
    51                           ;        conditions and the following disclaimer.
    52                           ; 
    53                           ;     2. Redistributions in binary form must reproduce the above copyright notice, this 
      +                          list
    54                           ;        of conditions and the following disclaimer in the documentation and/or other
    55                           ;        materials provided with the distribution.
    56                           ; 
    57                           ;     3. Microchip's name may not be used to endorse or promote products derived from th
      +                          is
    58                           ;        software without specific prior written permission.
    59                           ; 
    60                           ; THIS SOFTWARE IS PROVIDED BY MICROCHIP "AS IS" AND ANY EXPRESS OR IMPLIED WARRANTIES,
    61                           ; INCLUDING, BUT NOT LIMITED TO, THE IMPLIED WARRANTIES OF MERCHANTABILITY AND FITNESS F
      +                          OR
    62                           ; PURPOSE ARE DISCLAIMED.  IN NO EVENT SHALL MICROCHIP BE LIABLE FOR ANY DIRECT, INDIREC
      +                          T,
    63                           ; INCIDENTAL, SPECIAL, EXEMPLARY, OR CONSEQUENTIAL DAMAGES (INCLUDING BUT NOT LIMITED TO
    64                           ; PROCUREMENT OF SUBSTITUTE GOODS OR SERVICES; LOSS OF USE, DATA OR PROFITS; OR BUSINESS
    65                           ; INTERRUPTION) HOWSOEVER CAUSED AND ON ANY THEORY OF LIABILITY, WHETHER IN CONTRACT, ST
      +                          RICT
    66                           ; LIABILITY, OR TORT (INCLUDING NEGLIGENCE OR OTHERWISE) ARISING IN ANY WAY OUT OF THE U
      +                          SE OF
    67                           ; THIS SOFTWARE, EVEN IF ADVISED OF THE POSSIBILITY OF SUCH DAMAGE.
    68                           ; 
    69                           ; 
    70                           ; Code-generator required, PIC16F887 Definitions
    71                           ; 
    72                           ; SFR Addresses
    73  0000                     	;# 
    74  0001                     	;# 
    75  0002                     	;# 
    76  0003                     	;# 
    77  0004                     	;# 
    78  0005                     	;# 
    79  0006                     	;# 
    80  0007                     	;# 
    81  0008                     	;# 
    82  0009                     	;# 
    83  000A                     	;# 
    84  000B                     	;# 
    85  000C                     	;# 
    86  000D                     	;# 
    87  000E                     	;# 
    88  000E                     	;# 
    89  000F                     	;# 
    90  0010                     	;# 
    91  0011                     	;# 
    92  0012                     	;# 
    93  0013                     	;# 
    94  0014                     	;# 
    95  0015                     	;# 
    96  0015                     	;# 
    97  0016                     	;# 
    98  0017                     	;# 
    99  0018                     	;# 
   100  0019                     	;# 
   101  001A                     	;# 
   102  001B                     	;# 
   103  001B                     	;# 
   104  001C                     	;# 
   105  001D                     	;# 
   106  001E                     	;# 
   107  001F                     	;# 
   108  0081                     	;# 
   109  0085                     	;# 
   110  0086                     	;# 
   111  0087                     	;# 
   112  0088                     	;# 
   113  0089                     	;# 
   114  008C                     	;# 
   115  008D                     	;# 
   116  008E                     	;# 
   117  008F                     	;# 
   118  0090                     	;# 
   119  0091                     	;# 
   120  0092                     	;# 
   121  0093                     	;# 
   122  0093                     	;# 
   123  0093                     	;# 
   124  0094                     	;# 
   125  0095                     	;# 
   126  0096                     	;# 
   127  0097                     	;# 
   128  0098                     	;# 
   129  0099                     	;# 
   130  009A                     	;# 
   131  009B                     	;# 
   132  009C                     	;# 
   133  009D                     	;# 
   134  009E                     	;# 
   135  009F                     	;# 
   136  0105                     	;# 
   137  0107                     	;# 
   138  0108                     	;# 
   139  0109                     	;# 
   140  010C                     	;# 
   141  010C                     	;# 
   142  010D                     	;# 
   143  010E                     	;# 
   144  010F                     	;# 
   145  0185                     	;# 
   146  0187                     	;# 
   147  0188                     	;# 
   148  0189                     	;# 
   149  018C                     	;# 
   150  018D                     	;# 
   151  0000                     	;# 
   152  0001                     	;# 
   153  0002                     	;# 
   154  0003                     	;# 
   155  0004                     	;# 
   156  0005                     	;# 
   157  0006                     	;# 
   158  0007                     	;# 
   159  0008                     	;# 
   160  0009                     	;# 
   161  000A                     	;# 
   162  000B                     	;# 
   163  000C                     	;# 
   164  000D                     	;# 
   165  000E                     	;# 
   166  000E                     	;# 
   167  000F                     	;# 
   168  0010                     	;# 
   169  0011                     	;# 
   170  0012                     	;# 
   171  0013                     	;# 
   172  0014                     	;# 
   173  0015                     	;# 
   174  0015                     	;# 
   175  0016                     	;# 
   176  0017                     	;# 
   177  0018                     	;# 
   178  0019                     	;# 
   179  001A                     	;# 
   180  001B                     	;# 
   181  001B                     	;# 
   182  001C                     	;# 
   183  001D                     	;# 
   184  001E                     	;# 
   185  001F                     	;# 
   186  0081                     	;# 
   187  0085                     	;# 
   188  0086                     	;# 
   189  0087                     	;# 
   190  0088                     	;# 
   191  0089                     	;# 
   192  008C                     	;# 
   193  008D                     	;# 
   194  008E                     	;# 
   195  008F                     	;# 
   196  0090                     	;# 
   197  0091                     	;# 
   198  0092                     	;# 
   199  0093                     	;# 
   200  0093                     	;# 
   201  0093                     	;# 
   202  0094                     	;# 
   203  0095                     	;# 
   204  0096                     	;# 
   205  0097                     	;# 
   206  0098                     	;# 
   207  0099                     	;# 
   208  009A                     	;# 
   209  009B                     	;# 
   210  009C                     	;# 
   211  009D                     	;# 
   212  009E                     	;# 
   213  009F                     	;# 
   214  0105                     	;# 
   215  0107                     	;# 
   216  0108                     	;# 
   217  0109                     	;# 
   218  010C                     	;# 
   219  010C                     	;# 
   220  010D                     	;# 
   221  010E                     	;# 
   222  010F                     	;# 
   223  0185                     	;# 
   224  0187                     	;# 
   225  0188                     	;# 
   226  0189                     	;# 
   227  018C                     	;# 
   228  018D                     	;# 
   229  0000                     	;# 
   230  0001                     	;# 
   231  0002                     	;# 
   232  0003                     	;# 
   233  0004                     	;# 
   234  0005                     	;# 
   235  0006                     	;# 
   236  0007                     	;# 
   237  0008                     	;# 
   238  0009                     	;# 
   239  000A                     	;# 
   240  000B                     	;# 
   241  000C                     	;# 
   242  000D                     	;# 
   243  000E                     	;# 
   244  000E                     	;# 
   245  000F                     	;# 
   246  0010                     	;# 
   247  0011                     	;# 
   248  0012                     	;# 
   249  0013                     	;# 
   250  0014                     	;# 
   251  0015                     	;# 
   252  0015                     	;# 
   253  0016                     	;# 
   254  0017                     	;# 
   255  0018                     	;# 
   256  0019                     	;# 
   257  001A                     	;# 
   258  001B                     	;# 
   259  001B                     	;# 
   260  001C                     	;# 
   261  001D                     	;# 
   262  001E                     	;# 
   263  001F                     	;# 
   264  0081                     	;# 
   265  0085                     	;# 
   266  0086                     	;# 
   267  0087                     	;# 
   268  0088                     	;# 
   269  0089                     	;# 
   270  008C                     	;# 
   271  008D                     	;# 
   272  008E                     	;# 
   273  008F                     	;# 
   274  0090                     	;# 
   275  0091                     	;# 
   276  0092                     	;# 
   277  0093                     	;# 
   278  0093                     	;# 
   279  0093                     	;# 
   280  0094                     	;# 
   281  0095                     	;# 
   282  0096                     	;# 
   283  0097                     	;# 
   284  0098                     	;# 
   285  0099                     	;# 
   286  009A                     	;# 
   287  009B                     	;# 
   288  009C                     	;# 
   289  009D                     	;# 
   290  009E                     	;# 
   291  009F                     	;# 
   292  0105                     	;# 
   293  0107                     	;# 
   294  0108                     	;# 
   295  0109                     	;# 
   296  010C                     	;# 
   297  010C                     	;# 
   298  010D                     	;# 
   299  010E                     	;# 
   300  010F                     	;# 
   301  0185                     	;# 
   302  0187                     	;# 
   303  0188                     	;# 
   304  0189                     	;# 
   305  018C                     	;# 
   306  018D                     	;# 
   307  0000                     	;# 
   308  0001                     	;# 
   309  0002                     	;# 
   310  0003                     	;# 
   311  0004                     	;# 
   312  0005                     	;# 
   313  0006                     	;# 
   314  0007                     	;# 
   315  0008                     	;# 
   316  0009                     	;# 
   317  000A                     	;# 
   318  000B                     	;# 
   319  000C                     	;# 
   320  000D                     	;# 
   321  000E                     	;# 
   322  000E                     	;# 
   323  000F                     	;# 
   324  0010                     	;# 
   325  0011                     	;# 
   326  0012                     	;# 
   327  0013                     	;# 
   328  0014                     	;# 
   329  0015                     	;# 
   330  0015                     	;# 
   331  0016                     	;# 
   332  0017                     	;# 
   333  0018                     	;# 
   334  0019                     	;# 
   335  001A                     	;# 
   336  001B                     	;# 
   337  001B                     	;# 
   338  001C                     	;# 
   339  001D                     	;# 
   340  001E                     	;# 
   341  001F                     	;# 
   342  0081                     	;# 
   343  0085                     	;# 
   344  0086                     	;# 
   345  0087                     	;# 
   346  0088                     	;# 
   347  0089                     	;# 
   348  008C                     	;# 
   349  008D                     	;# 
   350  008E                     	;# 
   351  008F                     	;# 
   352  0090                     	;# 
   353  0091                     	;# 
   354  0092                     	;# 
   355  0093                     	;# 
   356  0093                     	;# 
   357  0093                     	;# 
   358  0094                     	;# 
   359  0095                     	;# 
   360  0096                     	;# 
   361  0097                     	;# 
   362  0098                     	;# 
   363  0099                     	;# 
   364  009A                     	;# 
   365  009B                     	;# 
   366  009C                     	;# 
   367  009D                     	;# 
   368  009E                     	;# 
   369  009F                     	;# 
   370  0105                     	;# 
   371  0107                     	;# 
   372  0108                     	;# 
   373  0109                     	;# 
   374  010C                     	;# 
   375  010C                     	;# 
   376  010D                     	;# 
   377  010E                     	;# 
   378  010F                     	;# 
   379  0185                     	;# 
   380  0187                     	;# 
   381  0188                     	;# 
   382  0189                     	;# 
   383  018C                     	;# 
   384  018D                     	;# 
   385  0000                     	;# 
   386  0001                     	;# 
   387  0002                     	;# 
   388  0003                     	;# 
   389  0004                     	;# 
   390  0005                     	;# 
   391  0006                     	;# 
   392  0007                     	;# 
   393  0008                     	;# 
   394  0009                     	;# 
   395  000A                     	;# 
   396  000B                     	;# 
   397  000C                     	;# 
   398  000D                     	;# 
   399  000E                     	;# 
   400  000E                     	;# 
   401  000F                     	;# 
   402  0010                     	;# 
   403  0011                     	;# 
   404  0012                     	;# 
   405  0013                     	;# 
   406  0014                     	;# 
   407  0015                     	;# 
   408  0015                     	;# 
   409  0016                     	;# 
   410  0017                     	;# 
   411  0018                     	;# 
   412  0019                     	;# 
   413  001A                     	;# 
   414  001B                     	;# 
   415  001B                     	;# 
   416  001C                     	;# 
   417  001D                     	;# 
   418  001E                     	;# 
   419  001F                     	;# 
   420  0081                     	;# 
   421  0085                     	;# 
   422  0086                     	;# 
   423  0087                     	;# 
   424  0088                     	;# 
   425  0089                     	;# 
   426  008C                     	;# 
   427  008D                     	;# 
   428  008E                     	;# 
   429  008F                     	;# 
   430  0090                     	;# 
   431  0091                     	;# 
   432  0092                     	;# 
   433  0093                     	;# 
   434  0093                     	;# 
   435  0093                     	;# 
   436  0094                     	;# 
   437  0095                     	;# 
   438  0096                     	;# 
   439  0097                     	;# 
   440  0098                     	;# 
   441  0099                     	;# 
   442  009A                     	;# 
   443  009B                     	;# 
   444  009C                     	;# 
   445  009D                     	;# 
   446  009E                     	;# 
   447  009F                     	;# 
   448  0105                     	;# 
   449  0107                     	;# 
   450  0108                     	;# 
   451  0109                     	;# 
   452  010C                     	;# 
   453  010C                     	;# 
   454  010D                     	;# 
   455  010E                     	;# 
   456  010F                     	;# 
   457  0185                     	;# 
   458  0187                     	;# 
   459  0188                     	;# 
   460  0189                     	;# 
   461  018C                     	;# 
   462  018D                     	;# 
   463  0019                     _TXREG	set	25
   464  0018                     _RCSTAbits	set	24
   465  0009                     _PORTE	set	9
   466  0008                     _PORTD	set	8
   467  0007                     _PORTC	set	7
   468  0006                     _PORTB	set	6
   469  0005                     _PORTA	set	5
   470  000B                     _INTCONbits	set	11
   471  001E                     _ADRESH	set	30
   472  001F                     _ADCON0bits	set	31
   473  001A                     _RCREG	set	26
   474  000C                     _PIR1bits	set	12
   475  0039                     _RC1	set	57
   476  0038                     _RC0	set	56
   477  0098                     _TXSTAbits	set	152
   478  0099                     _SPBRG	set	153
   479  0087                     _TRISCbits	set	135
   480  009F                     _ADCON1bits	set	159
   481  0081                     _OPTION_REGbits	set	129
   482  008C                     _PIE1bits	set	140
   483  008F                     _OSCCONbits	set	143
   484  0089                     _TRISE	set	137
   485  0088                     _TRISD	set	136
   486  0087                     _TRISC	set	135
   487  0086                     _TRISB	set	134
   488  0085                     _TRISA	set	133
   489  0189                     _ANSELH	set	393
   490  0188                     _ANSEL	set	392
   491                           
   492                           	psect	strings
   493  0800                     __pstrings:
   494  0800                     stringtab:
   495  0800                     __stringtab:
   496  0800                     stringcode:	
   497                           ;	String table - string pointers are 1 byte each
   498                           
   499  0800                     stringdir:
   500  0800  3008               	movlw	high stringdir
   501  0801  008A               	movwf	10
   502  0802  0804               	movf	4,w
   503  0803  0A84               	incf	4,f
   504  0804  0782               	addwf	2,f
   505  0805                     __stringbase:
   506  0805  3400               	retlw	0
   507  0806                     __end_of__stringtab:
   508  0806                     STR_1:
   509  0806  3450               	retlw	80	;'P'
   510  0807  344F               	retlw	79	;'O'
   511  0808  3454               	retlw	84	;'T'
   512  0809  3431               	retlw	49	;'1'
   513  080A  343A               	retlw	58	;':'
   514  080B  3420               	retlw	32	;' '
   515  080C  340D               	retlw	13
   516  080D  3400               	retlw	0
   517  080E                     STR_2:
   518  080E  3450               	retlw	80	;'P'
   519  080F  344F               	retlw	79	;'O'
   520  0810  3454               	retlw	84	;'T'
   521  0811  3432               	retlw	50	;'2'
   522  0812  343A               	retlw	58	;':'
   523  0813  3420               	retlw	32	;' '
   524  0814  340D               	retlw	13
   525  0815  3400               	retlw	0
   526  0816                     STR_3:
   527  0816  3455               	retlw	85	;'U'
   528  0817  3441               	retlw	65	;'A'
   529  0818  3452               	retlw	82	;'R'
   530  0819  3454               	retlw	84	;'T'
   531  081A  343A               	retlw	58	;':'
   532  081B  3420               	retlw	32	;' '
   533  081C  340D               	retlw	13
   534  081D  3400               	retlw	0
   535  081E                     STR_4:
   536  081E  340D               	retlw	13
   537  081F  340D               	retlw	13
   538  0820  340D               	retlw	13
   539  0821  340D               	retlw	13
   540  0822  340D               	retlw	13
   541  0823  3400               	retlw	0
   542  0824                     STR_5:
   543  0824  342E               	retlw	46	;'.'
   544  0825  3400               	retlw	0
   545  0822                     
   546                           	psect	cinit
   547  000F                     start_initialization:	
   548                           ; #config settings
   549                           
   550  000F                     __initialization:
   551                           
   552                           ; Clear objects allocated to COMMON
   553  000F  01FA               	clrf	__pbssCOMMON& (0+127)
   554                           
   555                           ; Clear objects allocated to BANK0
   556  0010  1283               	bcf	3,5	;RP0=0, select bank0
   557  0011  1303               	bcf	3,6	;RP1=0, select bank0
   558  0012  01DF               	clrf	__pbssBANK0& (0+127)
   559  0013  01E0               	clrf	(__pbssBANK0+1)& (0+127)
   560  0014  01E1               	clrf	(__pbssBANK0+2)& (0+127)
   561  0015  01E2               	clrf	(__pbssBANK0+3)& (0+127)
   562  0016  01E3               	clrf	(__pbssBANK0+4)& (0+127)
   563  0017  01E4               	clrf	(__pbssBANK0+5)& (0+127)
   564  0018  01E5               	clrf	(__pbssBANK0+6)& (0+127)
   565  0019  01E6               	clrf	(__pbssBANK0+7)& (0+127)
   566  001A  01E7               	clrf	(__pbssBANK0+8)& (0+127)
   567  001B  01E8               	clrf	(__pbssBANK0+9)& (0+127)
   568  001C  01E9               	clrf	(__pbssBANK0+10)& (0+127)
   569  001D  01EA               	clrf	(__pbssBANK0+11)& (0+127)
   570  001E  01EB               	clrf	(__pbssBANK0+12)& (0+127)
   571  001F  01EC               	clrf	(__pbssBANK0+13)& (0+127)
   572  0020                     end_of_initialization:	
   573                           ;End of C runtime variable initialization code
   574                           
   575  0020                     __end_of__initialization:
   576  0020  0183               	clrf	3
   577  0021  120A  158A  2F69   	ljmp	_main	;jump to C main() function
   578                           
   579                           	psect	bssCOMMON
   580  007A                     __pbssCOMMON:
   581  007A                     _UARTdat:
   582  007A                     	ds	1
   583                           
   584                           	psect	bssBANK0
   585  005F                     __pbssBANK0:
   586  005F                     _disp1:
   587  005F                     	ds	3
   588  0062                     _UARTval:
   589  0062                     	ds	1
   590  0063                     _val2:
   591  0063                     	ds	4
   592  0067                     _val1:
   593  0067                     	ds	4
   594  006B                     _pot2:
   595  006B                     	ds	1
   596  006C                     _pot1:
   597  006C                     	ds	1
   598                           
   599                           	psect	cstackCOMMON
   600  0070                     __pcstackCOMMON:
   601  0070                     ?_configuracion:
   602  0070                     ?_initLCD:	
   603                           ; 1 bytes @ 0x0
   604                           
   605  0070                     ?_sendString:	
   606                           ; 1 bytes @ 0x0
   607                           
   608  0070                     ?_sendhex:	
   609                           ; 1 bytes @ 0x0
   610                           
   611  0070                     ?_ClearLCD:	
   612                           ; 1 bytes @ 0x0
   613                           
   614  0070                     ?_dispCHAR:	
   615                           ; 1 bytes @ 0x0
   616                           
   617  0070                     ?_configUART:	
   618                           ; 1 bytes @ 0x0
   619                           
   620  0070                     ?_comandoLCD:	
   621                           ; 1 bytes @ 0x0
   622                           
   623  0070                     ?_interrupcion:	
   624                           ; 1 bytes @ 0x0
   625                           
   626  0070                     ??_interrupcion:	
   627                           ; 1 bytes @ 0x0
   628                           
   629  0070                     ?_main:	
   630                           ; 1 bytes @ 0x0
   631                           
   632  0070                     ?_send1dato:	
   633                           ; 1 bytes @ 0x0
   634                           
   635                           
   636                           ; 1 bytes @ 0x0
   637  0070                     	ds	3
   638  0073                     ??_dispCHAR:
   639  0073                     ??_configUART:	
   640                           ; 1 bytes @ 0x3
   641                           
   642  0073                     ?_ADCconfig:	
   643                           ; 1 bytes @ 0x3
   644                           
   645  0073                     ??_comandoLCD:	
   646                           ; 1 bytes @ 0x3
   647                           
   648  0073                     ??_send1dato:	
   649                           ; 1 bytes @ 0x3
   650                           
   651  0073                     ?___bmul:	
   652                           ; 1 bytes @ 0x3
   653                           
   654  0073                     ?__Umul8_16:	
   655                           ; 1 bytes @ 0x3
   656                           
   657  0073                     ?___awdiv:	
   658                           ; 2 bytes @ 0x3
   659                           
   660  0073                     ?___xxtofl:	
   661                           ; 2 bytes @ 0x3
   662                           
   663  0073                     ADCconfig@just:	
   664                           ; 4 bytes @ 0x3
   665                           
   666  0073                     send1dato@dato:	
   667                           ; 1 bytes @ 0x3
   668                           
   669  0073                     ___bmul@multiplicand:	
   670                           ; 1 bytes @ 0x3
   671                           
   672  0073                     ___fladd@signs:	
   673                           ; 1 bytes @ 0x3
   674                           
   675  0073                     __Umul8_16@multiplicand:	
   676                           ; 1 bytes @ 0x3
   677                           
   678  0073                     ___awdiv@divisor:	
   679                           ; 1 bytes @ 0x3
   680                           
   681  0073                     ___xxtofl@val:	
   682                           ; 2 bytes @ 0x3
   683                           
   684                           
   685                           ; 4 bytes @ 0x3
   686  0073                     	ds	1
   687  0074                     ??_sendString:
   688  0074                     ??_ADCconfig:	
   689                           ; 1 bytes @ 0x4
   690                           
   691  0074                     ??___bmul:	
   692                           ; 1 bytes @ 0x4
   693                           
   694  0074                     dispCHAR@b:	
   695                           ; 1 bytes @ 0x4
   696                           
   697  0074                     ___fladd@aexp:	
   698                           ; 1 bytes @ 0x4
   699                           
   700                           
   701                           ; 1 bytes @ 0x4
   702  0074                     	ds	1
   703  0075                     ??__Umul8_16:
   704  0075                     sendString@mensaje:	
   705                           ; 1 bytes @ 0x5
   706                           
   707  0075                     comandoLCD@cmd:	
   708                           ; 1 bytes @ 0x5
   709                           
   710  0075                     ___bmul@product:	
   711                           ; 1 bytes @ 0x5
   712                           
   713  0075                     ___fladd@bexp:	
   714                           ; 1 bytes @ 0x5
   715                           
   716  0075                     ___awdiv@dividend:	
   717                           ; 1 bytes @ 0x5
   718                           
   719                           
   720                           ; 2 bytes @ 0x5
   721  0075                     	ds	1
   722  0076                     ??_initLCD:
   723  0076                     ??_ClearLCD:	
   724                           ; 1 bytes @ 0x6
   725                           
   726  0076                     ?_cursorLCD:	
   727                           ; 1 bytes @ 0x6
   728                           
   729  0076                     ADCconfig@canal:	
   730                           ; 1 bytes @ 0x6
   731                           
   732  0076                     cursorLCD@columna:	
   733                           ; 1 bytes @ 0x6
   734                           
   735  0076                     ___bmul@multiplier:	
   736                           ; 1 bytes @ 0x6
   737                           
   738  0076                     ___fladd@grs:	
   739                           ; 1 bytes @ 0x6
   740                           
   741                           
   742                           ; 1 bytes @ 0x6
   743  0076                     	ds	1
   744  0077                     ??_configuracion:
   745  0077                     ??_cursorLCD:	
   746                           ; 1 bytes @ 0x7
   747                           
   748  0077                     ??___awdiv:	
   749                           ; 1 bytes @ 0x7
   750                           
   751  0077                     ??___flsub:	
   752                           ; 1 bytes @ 0x7
   753                           
   754  0077                     CONVdec@lectura:	
   755                           ; 1 bytes @ 0x7
   756                           
   757  0077                     ___fltol@sign1:	
   758                           ; 1 bytes @ 0x7
   759                           
   760                           
   761                           ; 1 bytes @ 0x7
   762  0077                     	ds	1
   763  0078                     ?_division:
   764  0078                     division@un:	
   765                           ; 1 bytes @ 0x8
   766                           
   767  0078                     divisiondecimal@conteo:	
   768                           ; 1 bytes @ 0x8
   769                           
   770  0078                     cursorLCD@fila:	
   771                           ; 1 bytes @ 0x8
   772                           
   773  0078                     ___fltol@exp1:	
   774                           ; 1 bytes @ 0x8
   775                           
   776                           
   777                           ; 1 bytes @ 0x8
   778  0078                     	ds	1
   779  0079                     division@dec:
   780  0079                     divisiondecimal@div:	
   781                           ; 1 bytes @ 0x9
   782                           
   783  0079                     cursorLCD@temp:	
   784                           ; 1 bytes @ 0x9
   785                           
   786                           
   787                           ; 1 bytes @ 0x9
   788  0079                     	ds	1
   789                           
   790                           	psect	cstackBANK0
   791  0020                     __pcstackBANK0:
   792  0020                     ??___xxtofl:
   793  0020                     ?___fladd:	
   794                           ; 1 bytes @ 0x0
   795                           
   796  0020                     ___awdiv@counter:	
   797                           ; 4 bytes @ 0x0
   798                           
   799  0020                     __Umul8_16@product:	
   800                           ; 1 bytes @ 0x0
   801                           
   802  0020                     ___fladd@b:	
   803                           ; 2 bytes @ 0x0
   804                           
   805                           
   806                           ; 4 bytes @ 0x0
   807  0020                     	ds	1
   808  0021                     ___awdiv@sign:
   809                           
   810                           ; 1 bytes @ 0x1
   811  0021                     	ds	1
   812  0022                     ___awdiv@quotient:
   813  0022                     __Umul8_16@word_mpld:	
   814                           ; 2 bytes @ 0x2
   815                           
   816                           
   817                           ; 2 bytes @ 0x2
   818  0022                     	ds	2
   819  0024                     ??_division:
   820  0024                     ?_divisiondecimal:	
   821                           ; 1 bytes @ 0x4
   822                           
   823  0024                     divisiondecimal@un:	
   824                           ; 1 bytes @ 0x4
   825                           
   826  0024                     __Umul8_16@multiplier:	
   827                           ; 1 bytes @ 0x4
   828                           
   829  0024                     ___xxtofl@sign:	
   830                           ; 1 bytes @ 0x4
   831                           
   832  0024                     ___fladd@a:	
   833                           ; 1 bytes @ 0x4
   834                           
   835                           
   836                           ; 4 bytes @ 0x4
   837  0024                     	ds	1
   838  0025                     divisiondecimal@dec:
   839  0025                     ___xxtofl@exp:	
   840                           ; 1 bytes @ 0x5
   841                           
   842                           
   843                           ; 1 bytes @ 0x5
   844  0025                     	ds	1
   845  0026                     divisiondecimal@cent:
   846  0026                     ___xxtofl@arg:	
   847                           ; 1 bytes @ 0x6
   848                           
   849                           
   850                           ; 4 bytes @ 0x6
   851  0026                     	ds	1
   852  0027                     ??_divisiondecimal:
   853  0027                     division@conteo:	
   854                           ; 1 bytes @ 0x7
   855                           
   856                           
   857                           ; 1 bytes @ 0x7
   858  0027                     	ds	1
   859  0028                     ??___fladd:
   860  0028                     division@div:	
   861                           ; 1 bytes @ 0x8
   862                           
   863                           
   864                           ; 1 bytes @ 0x8
   865  0028                     	ds	2
   866  002A                     ??_sendhex:
   867  002A                     ?___flmul:	
   868                           ; 1 bytes @ 0xA
   869                           
   870  002A                     ___flmul@b:	
   871                           ; 4 bytes @ 0xA
   872                           
   873                           
   874                           ; 4 bytes @ 0xA
   875  002A                     	ds	3
   876  002D                     sendhex@valor:
   877                           
   878                           ; 1 bytes @ 0xD
   879  002D                     	ds	1
   880  002E                     sendhex@unidad:
   881  002E                     ___flmul@a:	
   882                           ; 1 bytes @ 0xE
   883                           
   884                           
   885                           ; 4 bytes @ 0xE
   886  002E                     	ds	1
   887  002F                     sendhex@centena:
   888                           
   889                           ; 1 bytes @ 0xF
   890  002F                     	ds	1
   891  0030                     ?___flsub:
   892  0030                     sendhex@decena:	
   893                           ; 4 bytes @ 0x10
   894                           
   895  0030                     ___flsub@a:	
   896                           ; 1 bytes @ 0x10
   897                           
   898                           
   899                           ; 4 bytes @ 0x10
   900  0030                     	ds	2
   901  0032                     ??___flmul:
   902                           
   903                           ; 1 bytes @ 0x12
   904  0032                     	ds	2
   905  0034                     ___flsub@b:
   906                           
   907                           ; 4 bytes @ 0x14
   908  0034                     	ds	3
   909  0037                     ___flmul@sign:
   910                           
   911                           ; 1 bytes @ 0x17
   912  0037                     	ds	1
   913  0038                     ___flmul@aexp:
   914                           
   915                           ; 1 bytes @ 0x18
   916  0038                     	ds	1
   917  0039                     ___flmul@grs:
   918                           
   919                           ; 4 bytes @ 0x19
   920  0039                     	ds	4
   921  003D                     ___flmul@bexp:
   922                           
   923                           ; 1 bytes @ 0x1D
   924  003D                     	ds	1
   925  003E                     ___flmul@prod:
   926                           
   927                           ; 4 bytes @ 0x1E
   928  003E                     	ds	4
   929  0042                     ___flmul@temp:
   930                           
   931                           ; 2 bytes @ 0x22
   932  0042                     	ds	2
   933  0044                     ?_CONVdec:
   934  0044                     ?___fltol:	
   935                           ; 1 bytes @ 0x24
   936                           
   937  0044                     CONVdec@equiv:	
   938                           ; 4 bytes @ 0x24
   939                           
   940  0044                     ___fltol@f1:	
   941                           ; 1 bytes @ 0x24
   942                           
   943                           
   944                           ; 4 bytes @ 0x24
   945  0044                     	ds	1
   946  0045                     ??_CONVdec:
   947                           
   948                           ; 1 bytes @ 0x25
   949  0045                     	ds	3
   950  0048                     ??___fltol:
   951                           
   952                           ; 1 bytes @ 0x28
   953  0048                     	ds	5
   954  004D                     ?_sendfloat:
   955  004D                     sendfloat@valor:	
   956                           ; 1 bytes @ 0x2D
   957                           
   958                           
   959                           ; 4 bytes @ 0x2D
   960  004D                     	ds	4
   961  0051                     ??_sendfloat:
   962                           
   963                           ; 1 bytes @ 0x31
   964  0051                     	ds	4
   965  0055                     sendfloat@temp:
   966                           
   967                           ; 4 bytes @ 0x35
   968  0055                     	ds	4
   969  0059                     sendfloat@decimal:
   970                           
   971                           ; 1 bytes @ 0x39
   972  0059                     	ds	1
   973  005A                     sendfloat@entero:
   974                           
   975                           ; 1 bytes @ 0x3A
   976  005A                     	ds	1
   977  005B                     sendfloat@digdecimal:
   978                           
   979                           ; 1 bytes @ 0x3B
   980  005B                     	ds	1
   981  005C                     ??_main:
   982                           
   983                           ; 1 bytes @ 0x3C
   984  005C                     	ds	3
   985                           
   986                           	psect	maintext
   987  0F69                     __pmaintext:	
   988 ;;
   989 ;;Main: autosize = 0, tempsize = 3, incstack = 0, save=0
   990 ;;
   991 ;; *************** function _main *****************
   992 ;; Defined at:
   993 ;;		line 75 in file "main.c"
   994 ;; Parameters:    Size  Location     Type
   995 ;;		None
   996 ;; Auto vars:     Size  Location     Type
   997 ;;		None
   998 ;; Return value:  Size  Location     Type
   999 ;;                  1    wreg      void 
  1000 ;; Registers used:
  1001 ;;		wreg, fsr0l, fsr0h, status,2, status,0, btemp+1, pclath, cstack
  1002 ;; Tracked objects:
  1003 ;;		On entry : B00/0
  1004 ;;		On exit  : 0/0
  1005 ;;		Unchanged: 0/0
  1006 ;; Data sizes:     COMMON   BANK0   BANK1   BANK3   BANK2
  1007 ;;      Params:         0       0       0       0       0
  1008 ;;      Locals:         0       0       0       0       0
  1009 ;;      Temps:          0       3       0       0       0
  1010 ;;      Totals:         0       3       0       0       0
  1011 ;;Total ram usage:        3 bytes
  1012 ;; Hardware stack levels required when called:    4
  1013 ;; This function calls:
  1014 ;;		_CONVdec
  1015 ;;		_ClearLCD
  1016 ;;		_configuracion
  1017 ;;		_cursorLCD
  1018 ;;		_dispCHAR
  1019 ;;		_initLCD
  1020 ;;		_sendString
  1021 ;;		_sendfloat
  1022 ;;		_sendhex
  1023 ;; This function is called by:
  1024 ;;		Startup code after reset
  1025 ;; This function uses a non-reentrant model
  1026 ;;
  1027                           
  1028                           
  1029                           ;psect for function _main
  1030  0F69                     _main:
  1031  0F69                     l2874:	
  1032                           ;incstack = 0
  1033                           ; Regs used in _main: [wreg-fsr0h+status,2+status,0+btemp+1+pclath+cstack]
  1034                           
  1035                           
  1036                           ;main.c: 76:     configuracion();
  1037  0F69  120A  158A  24E9  120A  158A  	fcall	_configuracion
  1038  0F6E                     l2876:
  1039                           
  1040                           ;main.c: 77:     initLCD();
  1041  0F6E  120A  158A  25ED  120A  158A  	fcall	_initLCD
  1042  0F73                     l2878:
  1043                           
  1044                           ;main.c: 79:         sendString("POT1: \r");
  1045  0F73  3001               	movlw	(low ((STR_1-__stringbase)| (0+32768)))& (0+255)
  1046  0F74  120A  158A  2429  120A  158A  	fcall	_sendString
  1047  0F79                     l2880:
  1048                           
  1049                           ;main.c: 80:         CONVdec(&pot1,&val1);
  1050  0F79  3067               	movlw	(low (_val1| 0))& (0+255)
  1051  0F7A  1283               	bcf	3,5	;RP0=0, select bank0
  1052  0F7B  1303               	bcf	3,6	;RP1=0, select bank0
  1053  0F7C  00DC               	movwf	??_main
  1054  0F7D  085C               	movf	??_main,w
  1055  0F7E  00C4               	movwf	CONVdec@equiv
  1056  0F7F  306C               	movlw	(low (_pot1| 0))& (0+255)
  1057  0F80  120A  158A  251F  120A  158A  	fcall	_CONVdec
  1058  0F85                     l2882:
  1059                           
  1060                           ;main.c: 81:         sendfloat(val1);
  1061  0F85  1283               	bcf	3,5	;RP0=0, select bank0
  1062  0F86  1303               	bcf	3,6	;RP1=0, select bank0
  1063  0F87  086A               	movf	_val1+3,w
  1064  0F88  00D0               	movwf	sendfloat@valor+3
  1065  0F89  0869               	movf	_val1+2,w
  1066  0F8A  00CF               	movwf	sendfloat@valor+2
  1067  0F8B  0868               	movf	_val1+1,w
  1068  0F8C  00CE               	movwf	sendfloat@valor+1
  1069  0F8D  0867               	movf	_val1,w
  1070  0F8E  00CD               	movwf	sendfloat@valor
  1071  0F8F  120A  118A  26D1  120A  158A  	fcall	_sendfloat
  1072  0F94                     l2884:
  1073                           
  1074                           ;main.c: 82:         sendString("POT2: \r");
  1075  0F94  3009               	movlw	(low ((STR_2-__stringbase)| (0+32768)))& (0+255)
  1076  0F95  120A  158A  2429  120A  158A  	fcall	_sendString
  1077  0F9A                     l2886:
  1078                           
  1079                           ;main.c: 83:         CONVdec(&pot2,&val2);
  1080  0F9A  3063               	movlw	(low (_val2| 0))& (0+255)
  1081  0F9B  1283               	bcf	3,5	;RP0=0, select bank0
  1082  0F9C  1303               	bcf	3,6	;RP1=0, select bank0
  1083  0F9D  00DC               	movwf	??_main
  1084  0F9E  085C               	movf	??_main,w
  1085  0F9F  00C4               	movwf	CONVdec@equiv
  1086  0FA0  306B               	movlw	(low (_pot2| 0))& (0+255)
  1087  0FA1  120A  158A  251F  120A  158A  	fcall	_CONVdec
  1088  0FA6                     l2888:
  1089                           
  1090                           ;main.c: 84:         sendfloat(val2);
  1091  0FA6  1283               	bcf	3,5	;RP0=0, select bank0
  1092  0FA7  1303               	bcf	3,6	;RP1=0, select bank0
  1093  0FA8  0866               	movf	_val2+3,w
  1094  0FA9  00D0               	movwf	sendfloat@valor+3
  1095  0FAA  0865               	movf	_val2+2,w
  1096  0FAB  00CF               	movwf	sendfloat@valor+2
  1097  0FAC  0864               	movf	_val2+1,w
  1098  0FAD  00CE               	movwf	sendfloat@valor+1
  1099  0FAE  0863               	movf	_val2,w
  1100  0FAF  00CD               	movwf	sendfloat@valor
  1101  0FB0  120A  118A  26D1  120A  158A  	fcall	_sendfloat
  1102  0FB5                     l2890:
  1103                           
  1104                           ;main.c: 85:         sendString("UART: \r");
  1105  0FB5  3011               	movlw	(low ((STR_3-__stringbase)| (0+32768)))& (0+255)
  1106  0FB6  120A  158A  2429  120A  158A  	fcall	_sendString
  1107  0FBB                     l2892:
  1108                           
  1109                           ;main.c: 86:         sendhex(UARTval);
  1110  0FBB  1283               	bcf	3,5	;RP0=0, select bank0
  1111  0FBC  1303               	bcf	3,6	;RP1=0, select bank0
  1112  0FBD  0862               	movf	_UARTval,w
  1113  0FBE  120A  158A  24B8  120A  158A  	fcall	_sendhex
  1114  0FC3                     l2894:
  1115                           
  1116                           ;main.c: 87:         sendString("\r\r\r\r\r");
  1117  0FC3  3019               	movlw	(low ((STR_4-__stringbase)| (0+32768)))& (0+255)
  1118  0FC4  120A  158A  2429  120A  158A  	fcall	_sendString
  1119                           
  1120                           ;main.c: 88:         ClearLCD();
  1121  0FC9  120A  118A  27F7  120A  158A  	fcall	_ClearLCD
  1122                           
  1123                           ;main.c: 89:         cursorLCD(1,1);
  1124  0FCE  01F6               	clrf	cursorLCD@columna
  1125  0FCF  0AF6               	incf	cursorLCD@columna,f
  1126  0FD0  3001               	movlw	1
  1127  0FD1  120A  158A  2448  120A  158A  	fcall	_cursorLCD
  1128                           
  1129                           ;main.c: 90:         dispCHAR('A');
  1130  0FD6  3041               	movlw	65
  1131  0FD7  120A  158A  23DE  120A  158A  	fcall	_dispCHAR
  1132                           
  1133                           ;main.c: 91:         cursorLCD(1,2);
  1134  0FDC  3002               	movlw	2
  1135  0FDD  1283               	bcf	3,5	;RP0=0, select bank0
  1136  0FDE  1303               	bcf	3,6	;RP1=0, select bank0
  1137  0FDF  00DC               	movwf	??_main
  1138  0FE0  085C               	movf	??_main,w
  1139  0FE1  00F6               	movwf	cursorLCD@columna
  1140  0FE2  3001               	movlw	1
  1141  0FE3  120A  158A  2448  120A  158A  	fcall	_cursorLCD
  1142                           
  1143                           ;main.c: 92:         dispCHAR('B');
  1144  0FE8  3042               	movlw	66
  1145  0FE9  120A  158A  23DE  120A  158A  	fcall	_dispCHAR
  1146  0FEE                     l2896:
  1147                           
  1148                           ;main.c: 93:         _delay((unsigned long)((1000)*(8000000/4000.0)));
  1149  0FEE  300B               	movlw	11
  1150  0FEF  1283               	bcf	3,5	;RP0=0, select bank0
  1151  0FF0  1303               	bcf	3,6	;RP1=0, select bank0
  1152  0FF1  00DE               	movwf	??_main+2
  1153  0FF2  3026               	movlw	38
  1154  0FF3  00DD               	movwf	??_main+1
  1155  0FF4  305D               	movlw	93
  1156  0FF5  00DC               	movwf	??_main
  1157  0FF6                     u4037:
  1158  0FF6  0BDC               	decfsz	??_main,f
  1159  0FF7  2FF6               	goto	u4037
  1160  0FF8  0BDD               	decfsz	??_main+1,f
  1161  0FF9  2FF6               	goto	u4037
  1162  0FFA  0BDE               	decfsz	??_main+2,f
  1163  0FFB  2FF6               	goto	u4037
  1164  0FFC  2F73               	goto	l2878
  1165  0FFD  120A  118A  280C   	ljmp	start
  1166  1000                     __end_of_main:
  1167                           
  1168                           	psect	text1
  1169  0CB8                     __ptext1:	
  1170 ;; *************** function _sendhex *****************
  1171 ;; Defined at:
  1172 ;;		line 61 in file "ComSerial.c"
  1173 ;; Parameters:    Size  Location     Type
  1174 ;;  valor           1    wreg     unsigned char 
  1175 ;; Auto vars:     Size  Location     Type
  1176 ;;  valor           1   13[BANK0 ] unsigned char 
  1177 ;;  decena          1   16[BANK0 ] unsigned char 
  1178 ;;  centena         1   15[BANK0 ] unsigned char 
  1179 ;;  unidad          1   14[BANK0 ] unsigned char 
  1180 ;; Return value:  Size  Location     Type
  1181 ;;                  1    wreg      void 
  1182 ;; Registers used:
  1183 ;;		wreg, fsr0l, fsr0h, status,2, status,0, pclath, cstack
  1184 ;; Tracked objects:
  1185 ;;		On entry : 0/0
  1186 ;;		On exit  : 0/0
  1187 ;;		Unchanged: 0/0
  1188 ;; Data sizes:     COMMON   BANK0   BANK1   BANK3   BANK2
  1189 ;;      Params:         0       0       0       0       0
  1190 ;;      Locals:         0       4       0       0       0
  1191 ;;      Temps:          0       3       0       0       0
  1192 ;;      Totals:         0       7       0       0       0
  1193 ;;Total ram usage:        7 bytes
  1194 ;; Hardware stack levels used:    1
  1195 ;; Hardware stack levels required when called:    3
  1196 ;; This function calls:
  1197 ;;		_divisiondecimal
  1198 ;;		_send1dato
  1199 ;; This function is called by:
  1200 ;;		_main
  1201 ;; This function uses a non-reentrant model
  1202 ;;
  1203                           
  1204                           
  1205                           ;psect for function _sendhex
  1206  0CB8                     _sendhex:
  1207                           
  1208                           ;incstack = 0
  1209                           ; Regs used in _sendhex: [wreg-fsr0h+status,2+status,0+pclath+cstack]
  1210                           ;sendhex@valor stored from wreg
  1211  0CB8  1283               	bcf	3,5	;RP0=0, select bank0
  1212  0CB9  1303               	bcf	3,6	;RP1=0, select bank0
  1213  0CBA  00AD               	movwf	sendhex@valor
  1214  0CBB                     l2866:
  1215                           
  1216                           ;ComSerial.c: 62:     uint8_t centena;;ComSerial.c: 63:     uint8_t decena;;ComSerial.c:
      +                           64:     uint8_t unidad;;ComSerial.c: 66:     divisiondecimal(valor,&unidad,&decena,&cen
      +                          tena);
  1217  0CBB  302E               	movlw	(low (sendhex@unidad| 0))& (0+255)
  1218  0CBC  00AA               	movwf	??_sendhex
  1219  0CBD  082A               	movf	??_sendhex,w
  1220  0CBE  00A4               	movwf	divisiondecimal@un
  1221  0CBF  3030               	movlw	(low (sendhex@decena| 0))& (0+255)
  1222  0CC0  00AB               	movwf	??_sendhex+1
  1223  0CC1  082B               	movf	??_sendhex+1,w
  1224  0CC2  00A5               	movwf	divisiondecimal@dec
  1225  0CC3  302F               	movlw	(low (sendhex@centena| 0))& (0+255)
  1226  0CC4  00AC               	movwf	??_sendhex+2
  1227  0CC5  082C               	movf	??_sendhex+2,w
  1228  0CC6  00A6               	movwf	divisiondecimal@cent
  1229  0CC7  082D               	movf	sendhex@valor,w
  1230  0CC8  120A  118A  277A  120A  158A  	fcall	_divisiondecimal
  1231  0CCD                     l2868:
  1232                           
  1233                           ;ComSerial.c: 67:     send1dato(centena +48);
  1234  0CCD  1283               	bcf	3,5	;RP0=0, select bank0
  1235  0CCE  1303               	bcf	3,6	;RP1=0, select bank0
  1236  0CCF  082F               	movf	sendhex@centena,w
  1237  0CD0  3E30               	addlw	48
  1238  0CD1  120A  158A  23D2  120A  158A  	fcall	_send1dato
  1239  0CD6                     l2870:
  1240                           
  1241                           ;ComSerial.c: 68:     send1dato(decena +48);
  1242  0CD6  1283               	bcf	3,5	;RP0=0, select bank0
  1243  0CD7  1303               	bcf	3,6	;RP1=0, select bank0
  1244  0CD8  0830               	movf	sendhex@decena,w
  1245  0CD9  3E30               	addlw	48
  1246  0CDA  120A  158A  23D2  120A  158A  	fcall	_send1dato
  1247  0CDF                     l2872:
  1248                           
  1249                           ;ComSerial.c: 69:     send1dato(unidad +48);
  1250  0CDF  1283               	bcf	3,5	;RP0=0, select bank0
  1251  0CE0  1303               	bcf	3,6	;RP1=0, select bank0
  1252  0CE1  082E               	movf	sendhex@unidad,w
  1253  0CE2  3E30               	addlw	48
  1254  0CE3  120A  158A  23D2  120A  158A  	fcall	_send1dato
  1255  0CE8                     l158:
  1256  0CE8  0008               	return
  1257  0CE9                     __end_of_sendhex:
  1258                           
  1259                           	psect	text2
  1260  077A                     __ptext2:	
  1261 ;; *************** function _divisiondecimal *****************
  1262 ;; Defined at:
  1263 ;;		line 88 in file "ComSerial.c"
  1264 ;; Parameters:    Size  Location     Type
  1265 ;;  conteo          1    wreg     unsigned char 
  1266 ;;  un              1    4[BANK0 ] PTR unsigned char 
  1267 ;;		 -> sendhex@unidad(1), 
  1268 ;;  dec             1    5[BANK0 ] PTR unsigned char 
  1269 ;;		 -> sendhex@decena(1), 
  1270 ;;  cent            1    6[BANK0 ] PTR unsigned char 
  1271 ;;		 -> sendhex@centena(1), 
  1272 ;; Auto vars:     Size  Location     Type
  1273 ;;  conteo          1    8[COMMON] unsigned char 
  1274 ;;  div             1    9[COMMON] unsigned char 
  1275 ;; Return value:  Size  Location     Type
  1276 ;;                  1    wreg      void 
  1277 ;; Registers used:
  1278 ;;		wreg, fsr0l, fsr0h, status,2, status,0, pclath, cstack
  1279 ;; Tracked objects:
  1280 ;;		On entry : 0/0
  1281 ;;		On exit  : 0/0
  1282 ;;		Unchanged: 0/0
  1283 ;; Data sizes:     COMMON   BANK0   BANK1   BANK3   BANK2
  1284 ;;      Params:         0       3       0       0       0
  1285 ;;      Locals:         2       0       0       0       0
  1286 ;;      Temps:          0       3       0       0       0
  1287 ;;      Totals:         2       6       0       0       0
  1288 ;;Total ram usage:        8 bytes
  1289 ;; Hardware stack levels used:    1
  1290 ;; Hardware stack levels required when called:    2
  1291 ;; This function calls:
  1292 ;;		___awdiv
  1293 ;;		___bmul
  1294 ;; This function is called by:
  1295 ;;		_sendhex
  1296 ;; This function uses a non-reentrant model
  1297 ;;
  1298                           
  1299                           
  1300                           ;psect for function _divisiondecimal
  1301  077A                     _divisiondecimal:
  1302                           
  1303                           ;incstack = 0
  1304                           ; Regs used in _divisiondecimal: [wreg-fsr0h+status,2+status,0+pclath+cstack]
  1305                           ;divisiondecimal@conteo stored from wreg
  1306  077A  00F8               	movwf	divisiondecimal@conteo
  1307  077B                     l2606:
  1308                           
  1309                           ;ComSerial.c: 89:     uint8_t div = conteo;
  1310  077B  0878               	movf	divisiondecimal@conteo,w
  1311  077C  1283               	bcf	3,5	;RP0=0, select bank0
  1312  077D  1303               	bcf	3,6	;RP1=0, select bank0
  1313  077E  00A7               	movwf	??_divisiondecimal
  1314  077F  0827               	movf	??_divisiondecimal,w
  1315  0780  00F9               	movwf	divisiondecimal@div
  1316  0781                     l2608:
  1317                           
  1318                           ;ComSerial.c: 90:     *un = 0;
  1319  0781  0824               	movf	divisiondecimal@un,w
  1320  0782  0084               	movwf	4
  1321  0783  1383               	bcf	3,7	;select IRP bank0
  1322  0784  0180               	clrf	0
  1323  0785                     l2610:
  1324                           
  1325                           ;ComSerial.c: 91:     *dec = 0;
  1326  0785  0825               	movf	divisiondecimal@dec,w
  1327  0786  0084               	movwf	4
  1328  0787  0180               	clrf	0
  1329  0788                     l2612:
  1330                           
  1331                           ;ComSerial.c: 92:     *cent = 0;
  1332  0788  0826               	movf	divisiondecimal@cent,w
  1333  0789  0084               	movwf	4
  1334  078A  0180               	clrf	0
  1335                           
  1336                           ;ComSerial.c: 95:     while(div >= 100){
  1337  078B  2FB7               	goto	l2616
  1338  078C                     l2614:
  1339                           
  1340                           ;ComSerial.c: 96:     *cent = div/100;
  1341  078C  3064               	movlw	100
  1342  078D  00F3               	movwf	___awdiv@divisor
  1343  078E  3000               	movlw	0
  1344  078F  00F4               	movwf	___awdiv@divisor+1
  1345  0790  0879               	movf	divisiondecimal@div,w
  1346  0791  00A7               	movwf	??_divisiondecimal
  1347  0792  01A8               	clrf	??_divisiondecimal+1
  1348  0793  0827               	movf	??_divisiondecimal,w
  1349  0794  00F5               	movwf	___awdiv@dividend
  1350  0795  0828               	movf	??_divisiondecimal+1,w
  1351  0796  00F6               	movwf	___awdiv@dividend+1
  1352  0797  120A  158A  2684  120A  118A  	fcall	___awdiv
  1353  079C  0873               	movf	?___awdiv,w
  1354  079D  1283               	bcf	3,5	;RP0=0, select bank0
  1355  079E  1303               	bcf	3,6	;RP1=0, select bank0
  1356  079F  00A9               	movwf	??_divisiondecimal+2
  1357  07A0  0826               	movf	divisiondecimal@cent,w
  1358  07A1  0084               	movwf	4
  1359  07A2  0829               	movf	??_divisiondecimal+2,w
  1360  07A3  1383               	bcf	3,7	;select IRP bank0
  1361  07A4  0080               	movwf	0
  1362                           
  1363                           ;ComSerial.c: 97:     div = div - (*cent)*(100);
  1364  07A5  309C               	movlw	156
  1365  07A6  00A7               	movwf	??_divisiondecimal
  1366  07A7  0827               	movf	??_divisiondecimal,w
  1367  07A8  00F3               	movwf	___bmul@multiplicand
  1368  07A9  0826               	movf	divisiondecimal@cent,w
  1369  07AA  0084               	movwf	4
  1370  07AB  0800               	movf	0,w
  1371  07AC  120A  158A  2414  120A  118A  	fcall	___bmul
  1372  07B1  0779               	addwf	divisiondecimal@div,w
  1373  07B2  1283               	bcf	3,5	;RP0=0, select bank0
  1374  07B3  1303               	bcf	3,6	;RP1=0, select bank0
  1375  07B4  00A8               	movwf	??_divisiondecimal+1
  1376  07B5  0828               	movf	??_divisiondecimal+1,w
  1377  07B6  00F9               	movwf	divisiondecimal@div
  1378  07B7                     l2616:
  1379                           
  1380                           ;ComSerial.c: 95:     while(div >= 100){
  1381  07B7  3064               	movlw	100
  1382  07B8  0279               	subwf	divisiondecimal@div,w
  1383  07B9  1803               	skipnc
  1384  07BA  2FBC               	goto	u3401
  1385  07BB  2FBD               	goto	u3400
  1386  07BC                     u3401:
  1387  07BC  2F8C               	goto	l2614
  1388  07BD                     u3400:
  1389  07BD  2FE9               	goto	l2620
  1390  07BE                     l2618:
  1391                           
  1392                           ;ComSerial.c: 101:     *dec = div/10;
  1393  07BE  300A               	movlw	10
  1394  07BF  00F3               	movwf	___awdiv@divisor
  1395  07C0  3000               	movlw	0
  1396  07C1  00F4               	movwf	___awdiv@divisor+1
  1397  07C2  0879               	movf	divisiondecimal@div,w
  1398  07C3  00A7               	movwf	??_divisiondecimal
  1399  07C4  01A8               	clrf	??_divisiondecimal+1
  1400  07C5  0827               	movf	??_divisiondecimal,w
  1401  07C6  00F5               	movwf	___awdiv@dividend
  1402  07C7  0828               	movf	??_divisiondecimal+1,w
  1403  07C8  00F6               	movwf	___awdiv@dividend+1
  1404  07C9  120A  158A  2684  120A  118A  	fcall	___awdiv
  1405  07CE  0873               	movf	?___awdiv,w
  1406  07CF  1283               	bcf	3,5	;RP0=0, select bank0
  1407  07D0  1303               	bcf	3,6	;RP1=0, select bank0
  1408  07D1  00A9               	movwf	??_divisiondecimal+2
  1409  07D2  0825               	movf	divisiondecimal@dec,w
  1410  07D3  0084               	movwf	4
  1411  07D4  0829               	movf	??_divisiondecimal+2,w
  1412  07D5  1383               	bcf	3,7	;select IRP bank0
  1413  07D6  0080               	movwf	0
  1414                           
  1415                           ;ComSerial.c: 102:     div = div - (*dec)*(10);
  1416  07D7  30F6               	movlw	246
  1417  07D8  00A7               	movwf	??_divisiondecimal
  1418  07D9  0827               	movf	??_divisiondecimal,w
  1419  07DA  00F3               	movwf	___bmul@multiplicand
  1420  07DB  0825               	movf	divisiondecimal@dec,w
  1421  07DC  0084               	movwf	4
  1422  07DD  0800               	movf	0,w
  1423  07DE  120A  158A  2414  120A  118A  	fcall	___bmul
  1424  07E3  0779               	addwf	divisiondecimal@div,w
  1425  07E4  1283               	bcf	3,5	;RP0=0, select bank0
  1426  07E5  1303               	bcf	3,6	;RP1=0, select bank0
  1427  07E6  00A8               	movwf	??_divisiondecimal+1
  1428  07E7  0828               	movf	??_divisiondecimal+1,w
  1429  07E8  00F9               	movwf	divisiondecimal@div
  1430  07E9                     l2620:
  1431                           
  1432                           ;ComSerial.c: 100:     while (div >= 10){
  1433  07E9  300A               	movlw	10
  1434  07EA  0279               	subwf	divisiondecimal@div,w
  1435  07EB  1803               	skipnc
  1436  07EC  2FEE               	goto	u3411
  1437  07ED  2FEF               	goto	u3410
  1438  07EE                     u3411:
  1439  07EE  2FBE               	goto	l2618
  1440  07EF                     u3410:
  1441  07EF                     l2622:
  1442                           
  1443                           ;ComSerial.c: 105:     *un = div;
  1444  07EF  0879               	movf	divisiondecimal@div,w
  1445  07F0  00A7               	movwf	??_divisiondecimal
  1446  07F1  0824               	movf	divisiondecimal@un,w
  1447  07F2  0084               	movwf	4
  1448  07F3  0827               	movf	??_divisiondecimal,w
  1449  07F4  1383               	bcf	3,7	;select IRP bank0
  1450  07F5  0080               	movwf	0
  1451  07F6                     l173:
  1452  07F6  0008               	return
  1453  07F7                     __end_of_divisiondecimal:
  1454                           
  1455                           	psect	text3
  1456  06D1                     __ptext3:	
  1457 ;; *************** function _sendfloat *****************
  1458 ;; Defined at:
  1459 ;;		line 39 in file "ComSerial.c"
  1460 ;; Parameters:    Size  Location     Type
  1461 ;;  valor           4   45[BANK0 ] const float 
  1462 ;; Auto vars:     Size  Location     Type
  1463 ;;  temp            4   53[BANK0 ] float 
  1464 ;;  digdecimal      1   59[BANK0 ] unsigned char [1]
  1465 ;;  entero          1   58[BANK0 ] unsigned char 
  1466 ;;  decimal         1   57[BANK0 ] unsigned char 
  1467 ;; Return value:  Size  Location     Type
  1468 ;;                  1    wreg      void 
  1469 ;; Registers used:
  1470 ;;		wreg, fsr0l, fsr0h, status,2, status,0, btemp+1, pclath, cstack
  1471 ;; Tracked objects:
  1472 ;;		On entry : 0/0
  1473 ;;		On exit  : 0/0
  1474 ;;		Unchanged: 0/0
  1475 ;; Data sizes:     COMMON   BANK0   BANK1   BANK3   BANK2
  1476 ;;      Params:         0       4       0       0       0
  1477 ;;      Locals:         0       7       0       0       0
  1478 ;;      Temps:          0       4       0       0       0
  1479 ;;      Totals:         0      15       0       0       0
  1480 ;;Total ram usage:       15 bytes
  1481 ;; Hardware stack levels used:    1
  1482 ;; Hardware stack levels required when called:    3
  1483 ;; This function calls:
  1484 ;;		___flmul
  1485 ;;		___flsub
  1486 ;;		___fltol
  1487 ;;		___xxtofl
  1488 ;;		_division
  1489 ;;		_send1dato
  1490 ;;		_sendString
  1491 ;; This function is called by:
  1492 ;;		_main
  1493 ;; This function uses a non-reentrant model
  1494 ;;
  1495                           
  1496                           
  1497                           ;psect for function _sendfloat
  1498  06D1                     _sendfloat:
  1499  06D1                     l2852:	
  1500                           ;incstack = 0
  1501                           ; Regs used in _sendfloat: [wreg-fsr0h+status,2+status,0+btemp+1+pclath+cstack]
  1502                           
  1503                           
  1504                           ;ComSerial.c: 40:     uint8_t entero;;ComSerial.c: 41:     uint8_t decimal;;ComSerial.c:
      +                           42:     float temp;;ComSerial.c: 43:     unsigned char digdecimal[1];;ComSerial.c: 49: 
      +                              entero = valor;
  1505  06D1  1283               	bcf	3,5	;RP0=0, select bank0
  1506  06D2  1303               	bcf	3,6	;RP1=0, select bank0
  1507  06D3  0850               	movf	sendfloat@valor+3,w
  1508  06D4  00C7               	movwf	___fltol@f1+3
  1509  06D5  084F               	movf	sendfloat@valor+2,w
  1510  06D6  00C6               	movwf	___fltol@f1+2
  1511  06D7  084E               	movf	sendfloat@valor+1,w
  1512  06D8  00C5               	movwf	___fltol@f1+1
  1513  06D9  084D               	movf	sendfloat@valor,w
  1514  06DA  00C4               	movwf	___fltol@f1
  1515  06DB  120A  158A  26ED  120A  118A  	fcall	___fltol
  1516  06E0  1283               	bcf	3,5	;RP0=0, select bank0
  1517  06E1  1303               	bcf	3,6	;RP1=0, select bank0
  1518  06E2  0844               	movf	?___fltol,w
  1519  06E3  00D1               	movwf	??_sendfloat
  1520  06E4  0851               	movf	??_sendfloat,w
  1521  06E5  00DA               	movwf	sendfloat@entero
  1522  06E6                     l2854:
  1523                           
  1524                           ;ComSerial.c: 50:     temp = valor-(float)entero;
  1525  06E6  085A               	movf	sendfloat@entero,w
  1526  06E7  00D1               	movwf	??_sendfloat
  1527  06E8  01D2               	clrf	??_sendfloat+1
  1528  06E9  01D3               	clrf	??_sendfloat+2
  1529  06EA  01D4               	clrf	??_sendfloat+3
  1530  06EB  0854               	movf	??_sendfloat+3,w
  1531  06EC  00F6               	movwf	___xxtofl@val+3
  1532  06ED  0853               	movf	??_sendfloat+2,w
  1533  06EE  00F5               	movwf	___xxtofl@val+2
  1534  06EF  0852               	movf	??_sendfloat+1,w
  1535  06F0  00F4               	movwf	___xxtofl@val+1
  1536  06F1  0851               	movf	??_sendfloat,w
  1537  06F2  00F3               	movwf	___xxtofl@val
  1538  06F3  3000               	movlw	0
  1539  06F4  120A  118A  2615  120A  118A  	fcall	___xxtofl
  1540  06F9  0876               	movf	?___xxtofl+3,w
  1541  06FA  1283               	bcf	3,5	;RP0=0, select bank0
  1542  06FB  1303               	bcf	3,6	;RP1=0, select bank0
  1543  06FC  00B3               	movwf	___flsub@a+3
  1544  06FD  0875               	movf	?___xxtofl+2,w
  1545  06FE  00B2               	movwf	___flsub@a+2
  1546  06FF  0874               	movf	?___xxtofl+1,w
  1547  0700  00B1               	movwf	___flsub@a+1
  1548  0701  0873               	movf	?___xxtofl,w
  1549  0702  00B0               	movwf	___flsub@a
  1550  0703  0850               	movf	sendfloat@valor+3,w
  1551  0704  00B7               	movwf	___flsub@b+3
  1552  0705  084F               	movf	sendfloat@valor+2,w
  1553  0706  00B6               	movwf	___flsub@b+2
  1554  0707  084E               	movf	sendfloat@valor+1,w
  1555  0708  00B5               	movwf	___flsub@b+1
  1556  0709  084D               	movf	sendfloat@valor,w
  1557  070A  00B4               	movwf	___flsub@b
  1558  070B  120A  158A  246B  120A  118A  	fcall	___flsub
  1559  0710  1283               	bcf	3,5	;RP0=0, select bank0
  1560  0711  1303               	bcf	3,6	;RP1=0, select bank0
  1561  0712  0833               	movf	?___flsub+3,w
  1562  0713  00D8               	movwf	sendfloat@temp+3
  1563  0714  0832               	movf	?___flsub+2,w
  1564  0715  00D7               	movwf	sendfloat@temp+2
  1565  0716  0831               	movf	?___flsub+1,w
  1566  0717  00D6               	movwf	sendfloat@temp+1
  1567  0718  0830               	movf	?___flsub,w
  1568  0719  00D5               	movwf	sendfloat@temp
  1569  071A                     l2856:
  1570                           
  1571                           ;ComSerial.c: 51:     decimal = (temp*100);
  1572  071A  0858               	movf	sendfloat@temp+3,w
  1573  071B  00B1               	movwf	___flmul@a+3
  1574  071C  0857               	movf	sendfloat@temp+2,w
  1575  071D  00B0               	movwf	___flmul@a+2
  1576  071E  0856               	movf	sendfloat@temp+1,w
  1577  071F  00AF               	movwf	___flmul@a+1
  1578  0720  0855               	movf	sendfloat@temp,w
  1579  0721  00AE               	movwf	___flmul@a
  1580  0722  3042               	movlw	66
  1581  0723  00AD               	movwf	___flmul@b+3
  1582  0724  30C8               	movlw	200
  1583  0725  00AC               	movwf	___flmul@b+2
  1584  0726  3000               	movlw	0
  1585  0727  00AB               	movwf	___flmul@b+1
  1586  0728  3000               	movlw	0
  1587  0729  00AA               	movwf	___flmul@b
  1588  072A  120A  118A  2024  120A  118A  	fcall	___flmul
  1589  072F  1283               	bcf	3,5	;RP0=0, select bank0
  1590  0730  1303               	bcf	3,6	;RP1=0, select bank0
  1591  0731  082D               	movf	?___flmul+3,w
  1592  0732  00C7               	movwf	___fltol@f1+3
  1593  0733  082C               	movf	?___flmul+2,w
  1594  0734  00C6               	movwf	___fltol@f1+2
  1595  0735  082B               	movf	?___flmul+1,w
  1596  0736  00C5               	movwf	___fltol@f1+1
  1597  0737  082A               	movf	?___flmul,w
  1598  0738  00C4               	movwf	___fltol@f1
  1599  0739  120A  158A  26ED  120A  118A  	fcall	___fltol
  1600  073E  1283               	bcf	3,5	;RP0=0, select bank0
  1601  073F  1303               	bcf	3,6	;RP1=0, select bank0
  1602  0740  0844               	movf	?___fltol,w
  1603  0741  00D1               	movwf	??_sendfloat
  1604  0742  0851               	movf	??_sendfloat,w
  1605  0743  00D9               	movwf	sendfloat@decimal
  1606  0744                     l2858:
  1607                           
  1608                           ;ComSerial.c: 52:     division(decimal,&digdecimal[0],&digdecimal[1]);
  1609  0744  305B               	movlw	(low (sendfloat@digdecimal| 0))& (0+255)
  1610  0745  00D1               	movwf	??_sendfloat
  1611  0746  0851               	movf	??_sendfloat,w
  1612  0747  00F8               	movwf	division@un
  1613  0748  305C               	movlw	(low ((sendfloat@digdecimal| 0+1)))& (0+255)
  1614  0749  00D2               	movwf	??_sendfloat+1
  1615  074A  0852               	movf	??_sendfloat+1,w
  1616  074B  00F9               	movwf	division@dec
  1617  074C  0859               	movf	sendfloat@decimal,w
  1618  074D  120A  158A  25A5  120A  118A  	fcall	_division
  1619  0752                     l2860:
  1620                           
  1621                           ;ComSerial.c: 53:     send1dato(entero+48);
  1622  0752  1283               	bcf	3,5	;RP0=0, select bank0
  1623  0753  1303               	bcf	3,6	;RP1=0, select bank0
  1624  0754  085A               	movf	sendfloat@entero,w
  1625  0755  3E30               	addlw	48
  1626  0756  120A  158A  23D2  120A  118A  	fcall	_send1dato
  1627                           
  1628                           ;ComSerial.c: 54:     sendString(".");
  1629  075B  301F               	movlw	(low ((STR_5-__stringbase)| (0+32768)))& (0+255)
  1630  075C  120A  158A  2429  120A  118A  	fcall	_sendString
  1631  0761                     l2862:
  1632                           
  1633                           ;ComSerial.c: 55:     send1dato(digdecimal[1]+48);
  1634  0761  1283               	bcf	3,5	;RP0=0, select bank0
  1635  0762  1303               	bcf	3,6	;RP1=0, select bank0
  1636  0763  085C               	movf	sendfloat@digdecimal+1,w
  1637  0764  3E30               	addlw	48
  1638  0765  120A  158A  23D2  120A  118A  	fcall	_send1dato
  1639  076A                     l2864:
  1640                           
  1641                           ;ComSerial.c: 56:     send1dato(digdecimal[0]+48);
  1642  076A  1283               	bcf	3,5	;RP0=0, select bank0
  1643  076B  1303               	bcf	3,6	;RP1=0, select bank0
  1644  076C  085B               	movf	sendfloat@digdecimal,w
  1645  076D  3E30               	addlw	48
  1646  076E  120A  158A  23D2  120A  118A  	fcall	_send1dato
  1647                           
  1648                           ;ComSerial.c: 57:     sendString("\r");
  1649  0773  301D               	movlw	(low (((STR_4+4)-__stringbase)| (0+32768)))& (0+255)
  1650  0774  120A  158A  2429  120A  118A  	fcall	_sendString
  1651  0779                     l155:
  1652  0779  0008               	return
  1653  077A                     __end_of_sendfloat:
  1654                           
  1655                           	psect	text4
  1656  0C29                     __ptext4:	
  1657 ;; *************** function _sendString *****************
  1658 ;; Defined at:
  1659 ;;		line 31 in file "ComSerial.c"
  1660 ;; Parameters:    Size  Location     Type
  1661 ;;  mensaje         1    wreg     PTR unsigned char 
  1662 ;;		 -> STR_6(2), STR_5(2), STR_4(6), STR_3(8), 
  1663 ;;		 -> STR_2(8), STR_1(8), 
  1664 ;; Auto vars:     Size  Location     Type
  1665 ;;  mensaje         1    5[COMMON] PTR unsigned char 
  1666 ;;		 -> STR_6(2), STR_5(2), STR_4(6), STR_3(8), 
  1667 ;;		 -> STR_2(8), STR_1(8), 
  1668 ;; Return value:  Size  Location     Type
  1669 ;;                  1    wreg      void 
  1670 ;; Registers used:
  1671 ;;		wreg, fsr0l, fsr0h, status,2, status,0, pclath, cstack
  1672 ;; Tracked objects:
  1673 ;;		On entry : 0/0
  1674 ;;		On exit  : 0/0
  1675 ;;		Unchanged: 0/0
  1676 ;; Data sizes:     COMMON   BANK0   BANK1   BANK3   BANK2
  1677 ;;      Params:         0       0       0       0       0
  1678 ;;      Locals:         1       0       0       0       0
  1679 ;;      Temps:          1       0       0       0       0
  1680 ;;      Totals:         2       0       0       0       0
  1681 ;;Total ram usage:        2 bytes
  1682 ;; Hardware stack levels used:    1
  1683 ;; Hardware stack levels required when called:    2
  1684 ;; This function calls:
  1685 ;;		_send1dato
  1686 ;; This function is called by:
  1687 ;;		_main
  1688 ;;		_sendfloat
  1689 ;; This function uses a non-reentrant model
  1690 ;;
  1691                           
  1692                           
  1693                           ;psect for function _sendString
  1694  0C29                     _sendString:
  1695                           
  1696                           ;incstack = 0
  1697                           ; Regs used in _sendString: [wreg-fsr0h+status,2+status,0+pclath+cstack]
  1698                           ;sendString@mensaje stored from wreg
  1699  0C29  00F5               	movwf	sendString@mensaje
  1700  0C2A                     l1830:
  1701                           
  1702                           ;ComSerial.c: 32:     while(*mensaje != 0x00){
  1703  0C2A  2C3B               	goto	l1836
  1704  0C2B                     l1832:
  1705                           
  1706                           ;ComSerial.c: 33:         send1dato(*mensaje);
  1707  0C2B  0875               	movf	sendString@mensaje,w
  1708  0C2C  0084               	movwf	4
  1709  0C2D  120A  158A  2000  120A  158A  	fcall	stringdir
  1710  0C32  120A  158A  23D2  120A  158A  	fcall	_send1dato
  1711  0C37                     l1834:
  1712                           
  1713                           ;ComSerial.c: 34:         mensaje ++;
  1714  0C37  3001               	movlw	1
  1715  0C38  00F4               	movwf	??_sendString
  1716  0C39  0874               	movf	??_sendString,w
  1717  0C3A  07F5               	addwf	sendString@mensaje,f
  1718  0C3B                     l1836:
  1719                           
  1720                           ;ComSerial.c: 32:     while(*mensaje != 0x00){
  1721  0C3B  0875               	movf	sendString@mensaje,w
  1722  0C3C  0084               	movwf	4
  1723  0C3D  120A  158A  2000  120A  158A  	fcall	stringdir
  1724  0C42  3A00               	xorlw	0
  1725  0C43  1D03               	skipz
  1726  0C44  2C46               	goto	u2021
  1727  0C45  2C47               	goto	u2020
  1728  0C46                     u2021:
  1729  0C46  2C2B               	goto	l1832
  1730  0C47                     u2020:
  1731  0C47                     l152:
  1732  0C47  0008               	return
  1733  0C48                     __end_of_sendString:
  1734                           
  1735                           	psect	text5
  1736  0BD2                     __ptext5:	
  1737 ;; *************** function _send1dato *****************
  1738 ;; Defined at:
  1739 ;;		line 26 in file "ComSerial.c"
  1740 ;; Parameters:    Size  Location     Type
  1741 ;;  dato            1    wreg     unsigned char 
  1742 ;; Auto vars:     Size  Location     Type
  1743 ;;  dato            1    3[COMMON] unsigned char 
  1744 ;; Return value:  Size  Location     Type
  1745 ;;                  1    wreg      void 
  1746 ;; Registers used:
  1747 ;;		wreg
  1748 ;; Tracked objects:
  1749 ;;		On entry : 0/0
  1750 ;;		On exit  : 0/0
  1751 ;;		Unchanged: 0/0
  1752 ;; Data sizes:     COMMON   BANK0   BANK1   BANK3   BANK2
  1753 ;;      Params:         0       0       0       0       0
  1754 ;;      Locals:         1       0       0       0       0
  1755 ;;      Temps:          0       0       0       0       0
  1756 ;;      Totals:         1       0       0       0       0
  1757 ;;Total ram usage:        1 bytes
  1758 ;; Hardware stack levels used:    1
  1759 ;; Hardware stack levels required when called:    1
  1760 ;; This function calls:
  1761 ;;		Nothing
  1762 ;; This function is called by:
  1763 ;;		_sendString
  1764 ;;		_sendfloat
  1765 ;;		_sendhex
  1766 ;; This function uses a non-reentrant model
  1767 ;;
  1768                           
  1769                           
  1770                           ;psect for function _send1dato
  1771  0BD2                     _send1dato:
  1772                           
  1773                           ;incstack = 0
  1774                           ; Regs used in _send1dato: [wreg]
  1775                           ;send1dato@dato stored from wreg
  1776  0BD2  00F3               	movwf	send1dato@dato
  1777  0BD3                     l1562:
  1778                           
  1779                           ;ComSerial.c: 27:     TXREG = dato;
  1780  0BD3  0873               	movf	send1dato@dato,w
  1781  0BD4  1283               	bcf	3,5	;RP0=0, select bank0
  1782  0BD5  1303               	bcf	3,6	;RP1=0, select bank0
  1783  0BD6  0099               	movwf	25	;volatile
  1784  0BD7                     l143:	
  1785                           ;ComSerial.c: 28:     while(!TXSTAbits.TRMT);
  1786                           
  1787  0BD7  1683               	bsf	3,5	;RP0=1, select bank1
  1788  0BD8  1303               	bcf	3,6	;RP1=0, select bank1
  1789  0BD9  1C98               	btfss	24,1	;volatile
  1790  0BDA  2BDC               	goto	u1401
  1791  0BDB  2BDD               	goto	u1400
  1792  0BDC                     u1401:
  1793  0BDC  2BD7               	goto	l143
  1794  0BDD                     u1400:
  1795  0BDD                     l146:
  1796  0BDD  0008               	return
  1797  0BDE                     __end_of_send1dato:
  1798                           
  1799                           	psect	text6
  1800  0DA5                     __ptext6:	
  1801 ;; *************** function _division *****************
  1802 ;; Defined at:
  1803 ;;		line 74 in file "ComSerial.c"
  1804 ;; Parameters:    Size  Location     Type
  1805 ;;  conteo          1    wreg     unsigned char 
  1806 ;;  un              1    8[COMMON] PTR unsigned char 
  1807 ;;		 -> sendfloat@digdecimal(1), 
  1808 ;;  dec             1    9[COMMON] PTR unsigned char 
  1809 ;;		 -> sendfloat@digdecimal(1), 
  1810 ;; Auto vars:     Size  Location     Type
  1811 ;;  conteo          1    7[BANK0 ] unsigned char 
  1812 ;;  div             1    8[BANK0 ] unsigned char 
  1813 ;; Return value:  Size  Location     Type
  1814 ;;                  1    wreg      void 
  1815 ;; Registers used:
  1816 ;;		wreg, fsr0l, fsr0h, status,2, status,0, pclath, cstack
  1817 ;; Tracked objects:
  1818 ;;		On entry : 0/0
  1819 ;;		On exit  : 0/0
  1820 ;;		Unchanged: 0/0
  1821 ;; Data sizes:     COMMON   BANK0   BANK1   BANK3   BANK2
  1822 ;;      Params:         2       0       0       0       0
  1823 ;;      Locals:         0       2       0       0       0
  1824 ;;      Temps:          0       3       0       0       0
  1825 ;;      Totals:         2       5       0       0       0
  1826 ;;Total ram usage:        7 bytes
  1827 ;; Hardware stack levels used:    1
  1828 ;; Hardware stack levels required when called:    2
  1829 ;; This function calls:
  1830 ;;		___awdiv
  1831 ;;		___bmul
  1832 ;; This function is called by:
  1833 ;;		_sendfloat
  1834 ;; This function uses a non-reentrant model
  1835 ;;
  1836                           
  1837                           
  1838                           ;psect for function _division
  1839  0DA5                     _division:
  1840                           
  1841                           ;incstack = 0
  1842                           ; Regs used in _division: [wreg-fsr0h+status,2+status,0+pclath+cstack]
  1843                           ;division@conteo stored from wreg
  1844  0DA5  1283               	bcf	3,5	;RP0=0, select bank0
  1845  0DA6  1303               	bcf	3,6	;RP1=0, select bank0
  1846  0DA7  00A7               	movwf	division@conteo
  1847  0DA8                     l2594:
  1848                           
  1849                           ;ComSerial.c: 75:     uint8_t div = conteo;
  1850  0DA8  0827               	movf	division@conteo,w
  1851  0DA9  00A4               	movwf	??_division
  1852  0DAA  0824               	movf	??_division,w
  1853  0DAB  00A8               	movwf	division@div
  1854  0DAC                     l2596:
  1855                           
  1856                           ;ComSerial.c: 76:     *un = 0;
  1857  0DAC  0878               	movf	division@un,w
  1858  0DAD  0084               	movwf	4
  1859  0DAE  1383               	bcf	3,7	;select IRP bank0
  1860  0DAF  0180               	clrf	0
  1861  0DB0                     l2598:
  1862                           
  1863                           ;ComSerial.c: 77:     *dec = 0;
  1864  0DB0  0879               	movf	division@dec,w
  1865  0DB1  0084               	movwf	4
  1866  0DB2  0180               	clrf	0
  1867                           
  1868                           ;ComSerial.c: 80:     while (div >= 10){
  1869  0DB3  2DDF               	goto	l2602
  1870  0DB4                     l2600:
  1871                           
  1872                           ;ComSerial.c: 81:     *dec = div/10;
  1873  0DB4  300A               	movlw	10
  1874  0DB5  00F3               	movwf	___awdiv@divisor
  1875  0DB6  3000               	movlw	0
  1876  0DB7  00F4               	movwf	___awdiv@divisor+1
  1877  0DB8  0828               	movf	division@div,w
  1878  0DB9  00A4               	movwf	??_division
  1879  0DBA  01A5               	clrf	??_division+1
  1880  0DBB  0824               	movf	??_division,w
  1881  0DBC  00F5               	movwf	___awdiv@dividend
  1882  0DBD  0825               	movf	??_division+1,w
  1883  0DBE  00F6               	movwf	___awdiv@dividend+1
  1884  0DBF  120A  158A  2684  120A  158A  	fcall	___awdiv
  1885  0DC4  0873               	movf	?___awdiv,w
  1886  0DC5  1283               	bcf	3,5	;RP0=0, select bank0
  1887  0DC6  1303               	bcf	3,6	;RP1=0, select bank0
  1888  0DC7  00A6               	movwf	??_division+2
  1889  0DC8  0879               	movf	division@dec,w
  1890  0DC9  0084               	movwf	4
  1891  0DCA  0826               	movf	??_division+2,w
  1892  0DCB  1383               	bcf	3,7	;select IRP bank0
  1893  0DCC  0080               	movwf	0
  1894                           
  1895                           ;ComSerial.c: 82:     div = div - (*dec)*(10);
  1896  0DCD  30F6               	movlw	246
  1897  0DCE  00A4               	movwf	??_division
  1898  0DCF  0824               	movf	??_division,w
  1899  0DD0  00F3               	movwf	___bmul@multiplicand
  1900  0DD1  0879               	movf	division@dec,w
  1901  0DD2  0084               	movwf	4
  1902  0DD3  0800               	movf	0,w
  1903  0DD4  120A  158A  2414  120A  158A  	fcall	___bmul
  1904  0DD9  1283               	bcf	3,5	;RP0=0, select bank0
  1905  0DDA  1303               	bcf	3,6	;RP1=0, select bank0
  1906  0DDB  0728               	addwf	division@div,w
  1907  0DDC  00A5               	movwf	??_division+1
  1908  0DDD  0825               	movf	??_division+1,w
  1909  0DDE  00A8               	movwf	division@div
  1910  0DDF                     l2602:
  1911                           
  1912                           ;ComSerial.c: 80:     while (div >= 10){
  1913  0DDF  300A               	movlw	10
  1914  0DE0  0228               	subwf	division@div,w
  1915  0DE1  1803               	skipnc
  1916  0DE2  2DE4               	goto	u3391
  1917  0DE3  2DE5               	goto	u3390
  1918  0DE4                     u3391:
  1919  0DE4  2DB4               	goto	l2600
  1920  0DE5                     u3390:
  1921  0DE5                     l2604:
  1922                           
  1923                           ;ComSerial.c: 85:     *un = div;
  1924  0DE5  0828               	movf	division@div,w
  1925  0DE6  00A4               	movwf	??_division
  1926  0DE7  0878               	movf	division@un,w
  1927  0DE8  0084               	movwf	4
  1928  0DE9  0824               	movf	??_division,w
  1929  0DEA  1383               	bcf	3,7	;select IRP bank0
  1930  0DEB  0080               	movwf	0
  1931  0DEC                     l164:
  1932  0DEC  0008               	return
  1933  0DED                     __end_of_division:
  1934                           
  1935                           	psect	text7
  1936  0C14                     __ptext7:	
  1937 ;; *************** function ___bmul *****************
  1938 ;; Defined at:
  1939 ;;		line 4 in file "C:\Program Files\Microchip\xc8\v2.31\pic\sources\c90\common\Umul8.c"
  1940 ;; Parameters:    Size  Location     Type
  1941 ;;  multiplier      1    wreg     unsigned char 
  1942 ;;  multiplicand    1    3[COMMON] unsigned char 
  1943 ;; Auto vars:     Size  Location     Type
  1944 ;;  multiplier      1    6[COMMON] unsigned char 
  1945 ;;  product         1    5[COMMON] unsigned char 
  1946 ;; Return value:  Size  Location     Type
  1947 ;;                  1    wreg      unsigned char 
  1948 ;; Registers used:
  1949 ;;		wreg, status,2, status,0
  1950 ;; Tracked objects:
  1951 ;;		On entry : 0/0
  1952 ;;		On exit  : 0/0
  1953 ;;		Unchanged: 0/0
  1954 ;; Data sizes:     COMMON   BANK0   BANK1   BANK3   BANK2
  1955 ;;      Params:         1       0       0       0       0
  1956 ;;      Locals:         2       0       0       0       0
  1957 ;;      Temps:          1       0       0       0       0
  1958 ;;      Totals:         4       0       0       0       0
  1959 ;;Total ram usage:        4 bytes
  1960 ;; Hardware stack levels used:    1
  1961 ;; Hardware stack levels required when called:    1
  1962 ;; This function calls:
  1963 ;;		Nothing
  1964 ;; This function is called by:
  1965 ;;		_division
  1966 ;;		_divisiondecimal
  1967 ;; This function uses a non-reentrant model
  1968 ;;
  1969                           
  1970                           
  1971                           ;psect for function ___bmul
  1972  0C14                     ___bmul:
  1973                           
  1974                           ;incstack = 0
  1975                           ; Regs used in ___bmul: [wreg+status,2+status,0]
  1976                           ;___bmul@multiplier stored from wreg
  1977  0C14  00F6               	movwf	___bmul@multiplier
  1978  0C15                     l2328:
  1979  0C15  01F5               	clrf	___bmul@product
  1980  0C16                     l2330:
  1981  0C16  1C76               	btfss	___bmul@multiplier,0
  1982  0C17  2C19               	goto	u2781
  1983  0C18  2C1A               	goto	u2780
  1984  0C19                     u2781:
  1985  0C19  2C1E               	goto	l2334
  1986  0C1A                     u2780:
  1987  0C1A                     l2332:
  1988  0C1A  0873               	movf	___bmul@multiplicand,w
  1989  0C1B  00F4               	movwf	??___bmul
  1990  0C1C  0874               	movf	??___bmul,w
  1991  0C1D  07F5               	addwf	___bmul@product,f
  1992  0C1E                     l2334:
  1993  0C1E  1003               	clrc
  1994  0C1F  0DF3               	rlf	___bmul@multiplicand,f
  1995  0C20                     l2336:
  1996  0C20  1003               	clrc
  1997  0C21  0CF6               	rrf	___bmul@multiplier,f
  1998  0C22  0876               	movf	___bmul@multiplier,w
  1999  0C23  1D03               	btfss	3,2
  2000  0C24  2C26               	goto	u2791
  2001  0C25  2C27               	goto	u2790
  2002  0C26                     u2791:
  2003  0C26  2C16               	goto	l2330
  2004  0C27                     u2790:
  2005  0C27                     l2338:
  2006  0C27  0875               	movf	___bmul@product,w
  2007  0C28                     l312:
  2008  0C28  0008               	return
  2009  0C29                     __end_of___bmul:
  2010                           
  2011                           	psect	text8
  2012  0E84                     __ptext8:	
  2013 ;; *************** function ___awdiv *****************
  2014 ;; Defined at:
  2015 ;;		line 5 in file "C:\Program Files\Microchip\xc8\v2.31\pic\sources\c90\common\awdiv.c"
  2016 ;; Parameters:    Size  Location     Type
  2017 ;;  divisor         2    3[COMMON] int 
  2018 ;;  dividend        2    5[COMMON] int 
  2019 ;; Auto vars:     Size  Location     Type
  2020 ;;  quotient        2    2[BANK0 ] int 
  2021 ;;  sign            1    1[BANK0 ] unsigned char 
  2022 ;;  counter         1    0[BANK0 ] unsigned char 
  2023 ;; Return value:  Size  Location     Type
  2024 ;;                  2    3[COMMON] int 
  2025 ;; Registers used:
  2026 ;;		wreg, status,2, status,0
  2027 ;; Tracked objects:
  2028 ;;		On entry : 0/0
  2029 ;;		On exit  : 0/0
  2030 ;;		Unchanged: 0/0
  2031 ;; Data sizes:     COMMON   BANK0   BANK1   BANK3   BANK2
  2032 ;;      Params:         4       0       0       0       0
  2033 ;;      Locals:         0       4       0       0       0
  2034 ;;      Temps:          1       0       0       0       0
  2035 ;;      Totals:         5       4       0       0       0
  2036 ;;Total ram usage:        9 bytes
  2037 ;; Hardware stack levels used:    1
  2038 ;; Hardware stack levels required when called:    1
  2039 ;; This function calls:
  2040 ;;		Nothing
  2041 ;; This function is called by:
  2042 ;;		_division
  2043 ;;		_divisiondecimal
  2044 ;; This function uses a non-reentrant model
  2045 ;;
  2046                           
  2047                           
  2048                           ;psect for function ___awdiv
  2049  0E84                     ___awdiv:
  2050  0E84                     l2342:	
  2051                           ;incstack = 0
  2052                           ; Regs used in ___awdiv: [wreg+status,2+status,0]
  2053                           
  2054  0E84  1283               	bcf	3,5	;RP0=0, select bank0
  2055  0E85  1303               	bcf	3,6	;RP1=0, select bank0
  2056  0E86  01A1               	clrf	___awdiv@sign
  2057  0E87                     l2344:
  2058  0E87  1FF4               	btfss	___awdiv@divisor+1,7
  2059  0E88  2E8A               	goto	u2801
  2060  0E89  2E8B               	goto	u2800
  2061  0E8A                     u2801:
  2062  0E8A  2E92               	goto	l2350
  2063  0E8B                     u2800:
  2064  0E8B                     l2346:
  2065  0E8B  09F3               	comf	___awdiv@divisor,f
  2066  0E8C  09F4               	comf	___awdiv@divisor+1,f
  2067  0E8D  0AF3               	incf	___awdiv@divisor,f
  2068  0E8E  1903               	skipnz
  2069  0E8F  0AF4               	incf	___awdiv@divisor+1,f
  2070  0E90                     l2348:
  2071  0E90  01A1               	clrf	___awdiv@sign
  2072  0E91  0AA1               	incf	___awdiv@sign,f
  2073  0E92                     l2350:
  2074  0E92  1FF6               	btfss	___awdiv@dividend+1,7
  2075  0E93  2E95               	goto	u2811
  2076  0E94  2E96               	goto	u2810
  2077  0E95                     u2811:
  2078  0E95  2E9F               	goto	l2356
  2079  0E96                     u2810:
  2080  0E96                     l2352:
  2081  0E96  09F5               	comf	___awdiv@dividend,f
  2082  0E97  09F6               	comf	___awdiv@dividend+1,f
  2083  0E98  0AF5               	incf	___awdiv@dividend,f
  2084  0E99  1903               	skipnz
  2085  0E9A  0AF6               	incf	___awdiv@dividend+1,f
  2086  0E9B                     l2354:
  2087  0E9B  3001               	movlw	1
  2088  0E9C  00F7               	movwf	??___awdiv
  2089  0E9D  0877               	movf	??___awdiv,w
  2090  0E9E  06A1               	xorwf	___awdiv@sign,f
  2091  0E9F                     l2356:
  2092  0E9F  01A2               	clrf	___awdiv@quotient
  2093  0EA0  01A3               	clrf	___awdiv@quotient+1
  2094  0EA1                     l2358:
  2095  0EA1  0873               	movf	___awdiv@divisor,w
  2096  0EA2  0474               	iorwf	___awdiv@divisor+1,w
  2097  0EA3  1903               	btfsc	3,2
  2098  0EA4  2EA6               	goto	u2821
  2099  0EA5  2EA7               	goto	u2820
  2100  0EA6                     u2821:
  2101  0EA6  2EDE               	goto	l2378
  2102  0EA7                     u2820:
  2103  0EA7                     l2360:
  2104  0EA7  01A0               	clrf	___awdiv@counter
  2105  0EA8  0AA0               	incf	___awdiv@counter,f
  2106  0EA9  2EB5               	goto	l2366
  2107  0EAA                     l2362:
  2108  0EAA  3001               	movlw	1
  2109  0EAB                     u2835:
  2110  0EAB  1003               	clrc
  2111  0EAC  0DF3               	rlf	___awdiv@divisor,f
  2112  0EAD  0DF4               	rlf	___awdiv@divisor+1,f
  2113  0EAE  3EFF               	addlw	-1
  2114  0EAF  1D03               	skipz
  2115  0EB0  2EAB               	goto	u2835
  2116  0EB1                     l2364:
  2117  0EB1  3001               	movlw	1
  2118  0EB2  00F7               	movwf	??___awdiv
  2119  0EB3  0877               	movf	??___awdiv,w
  2120  0EB4  07A0               	addwf	___awdiv@counter,f
  2121  0EB5                     l2366:
  2122  0EB5  1FF4               	btfss	___awdiv@divisor+1,7
  2123  0EB6  2EB8               	goto	u2841
  2124  0EB7  2EB9               	goto	u2840
  2125  0EB8                     u2841:
  2126  0EB8  2EAA               	goto	l2362
  2127  0EB9                     u2840:
  2128  0EB9                     l2368:
  2129  0EB9  3001               	movlw	1
  2130  0EBA                     u2855:
  2131  0EBA  1003               	clrc
  2132  0EBB  0DA2               	rlf	___awdiv@quotient,f
  2133  0EBC  0DA3               	rlf	___awdiv@quotient+1,f
  2134  0EBD  3EFF               	addlw	-1
  2135  0EBE  1D03               	skipz
  2136  0EBF  2EBA               	goto	u2855
  2137  0EC0  0874               	movf	___awdiv@divisor+1,w
  2138  0EC1  0276               	subwf	___awdiv@dividend+1,w
  2139  0EC2  1D03               	skipz
  2140  0EC3  2EC6               	goto	u2865
  2141  0EC4  0873               	movf	___awdiv@divisor,w
  2142  0EC5  0275               	subwf	___awdiv@dividend,w
  2143  0EC6                     u2865:
  2144  0EC6  1C03               	skipc
  2145  0EC7  2EC9               	goto	u2861
  2146  0EC8  2ECA               	goto	u2860
  2147  0EC9                     u2861:
  2148  0EC9  2ED1               	goto	l2374
  2149  0ECA                     u2860:
  2150  0ECA                     l2370:
  2151  0ECA  0873               	movf	___awdiv@divisor,w
  2152  0ECB  02F5               	subwf	___awdiv@dividend,f
  2153  0ECC  0874               	movf	___awdiv@divisor+1,w
  2154  0ECD  1C03               	skipc
  2155  0ECE  03F6               	decf	___awdiv@dividend+1,f
  2156  0ECF  02F6               	subwf	___awdiv@dividend+1,f
  2157  0ED0                     l2372:
  2158  0ED0  1422               	bsf	___awdiv@quotient,0
  2159  0ED1                     l2374:
  2160  0ED1  3001               	movlw	1
  2161  0ED2                     u2875:
  2162  0ED2  1003               	clrc
  2163  0ED3  0CF4               	rrf	___awdiv@divisor+1,f
  2164  0ED4  0CF3               	rrf	___awdiv@divisor,f
  2165  0ED5  3EFF               	addlw	-1
  2166  0ED6  1D03               	skipz
  2167  0ED7  2ED2               	goto	u2875
  2168  0ED8                     l2376:
  2169  0ED8  3001               	movlw	1
  2170  0ED9  02A0               	subwf	___awdiv@counter,f
  2171  0EDA  1D03               	btfss	3,2
  2172  0EDB  2EDD               	goto	u2881
  2173  0EDC  2EDE               	goto	u2880
  2174  0EDD                     u2881:
  2175  0EDD  2EB9               	goto	l2368
  2176  0EDE                     u2880:
  2177  0EDE                     l2378:
  2178  0EDE  0821               	movf	___awdiv@sign,w
  2179  0EDF  1903               	btfsc	3,2
  2180  0EE0  2EE2               	goto	u2891
  2181  0EE1  2EE3               	goto	u2890
  2182  0EE2                     u2891:
  2183  0EE2  2EE8               	goto	l2382
  2184  0EE3                     u2890:
  2185  0EE3                     l2380:
  2186  0EE3  09A2               	comf	___awdiv@quotient,f
  2187  0EE4  09A3               	comf	___awdiv@quotient+1,f
  2188  0EE5  0AA2               	incf	___awdiv@quotient,f
  2189  0EE6  1903               	skipnz
  2190  0EE7  0AA3               	incf	___awdiv@quotient+1,f
  2191  0EE8                     l2382:
  2192  0EE8  0823               	movf	___awdiv@quotient+1,w
  2193  0EE9  00F4               	movwf	?___awdiv+1
  2194  0EEA  0822               	movf	___awdiv@quotient,w
  2195  0EEB  00F3               	movwf	?___awdiv
  2196  0EEC                     l439:
  2197  0EEC  0008               	return
  2198  0EED                     __end_of___awdiv:
  2199                           
  2200                           	psect	text9
  2201  0EED                     __ptext9:	
  2202 ;; *************** function ___fltol *****************
  2203 ;; Defined at:
  2204 ;;		line 43 in file "C:\Program Files\Microchip\xc8\v2.31\pic\sources\c90\common\fltol.c"
  2205 ;; Parameters:    Size  Location     Type
  2206 ;;  f1              4   36[BANK0 ] int 
  2207 ;; Auto vars:     Size  Location     Type
  2208 ;;  exp1            1    8[COMMON] unsigned char 
  2209 ;;  sign1           1    7[COMMON] unsigned char 
  2210 ;; Return value:  Size  Location     Type
  2211 ;;                  4   36[BANK0 ] long 
  2212 ;; Registers used:
  2213 ;;		wreg, status,2, status,0
  2214 ;; Tracked objects:
  2215 ;;		On entry : 0/0
  2216 ;;		On exit  : 0/0
  2217 ;;		Unchanged: 0/0
  2218 ;; Data sizes:     COMMON   BANK0   BANK1   BANK3   BANK2
  2219 ;;      Params:         0       4       0       0       0
  2220 ;;      Locals:         2       0       0       0       0
  2221 ;;      Temps:          0       5       0       0       0
  2222 ;;      Totals:         2       9       0       0       0
  2223 ;;Total ram usage:       11 bytes
  2224 ;; Hardware stack levels used:    1
  2225 ;; Hardware stack levels required when called:    1
  2226 ;; This function calls:
  2227 ;;		Nothing
  2228 ;; This function is called by:
  2229 ;;		_sendfloat
  2230 ;; This function uses a non-reentrant model
  2231 ;;
  2232                           
  2233                           
  2234                           ;psect for function ___fltol
  2235  0EED                     ___fltol:
  2236  0EED                     l2624:	
  2237                           ;incstack = 0
  2238                           ; Regs used in ___fltol: [wreg+status,2+status,0]
  2239                           
  2240  0EED  1003               	clrc
  2241  0EEE  1283               	bcf	3,5	;RP0=0, select bank0
  2242  0EEF  1303               	bcf	3,6	;RP1=0, select bank0
  2243  0EF0  0D46               	rlf	___fltol@f1+2,w
  2244  0EF1  0D47               	rlf	___fltol@f1+3,w
  2245  0EF2  00C8               	movwf	??___fltol
  2246  0EF3  0848               	movf	??___fltol,w
  2247  0EF4  00F8               	movwf	___fltol@exp1
  2248  0EF5  0878               	movf	___fltol@exp1,w
  2249  0EF6  1D03               	btfss	3,2
  2250  0EF7  2EF9               	goto	u3421
  2251  0EF8  2EFA               	goto	u3420
  2252  0EF9                     u3421:
  2253  0EF9  2F03               	goto	l2630
  2254  0EFA                     u3420:
  2255  0EFA                     l2626:
  2256  0EFA  3000               	movlw	0
  2257  0EFB  00C7               	movwf	?___fltol+3
  2258  0EFC  3000               	movlw	0
  2259  0EFD  00C6               	movwf	?___fltol+2
  2260  0EFE  3000               	movlw	0
  2261  0EFF  00C5               	movwf	?___fltol+1
  2262  0F00  3000               	movlw	0
  2263  0F01  00C4               	movwf	?___fltol
  2264  0F02  2F68               	goto	l472
  2265  0F03                     l2630:
  2266  0F03  0844               	movf	___fltol@f1,w
  2267  0F04  00C8               	movwf	??___fltol
  2268  0F05  0845               	movf	___fltol@f1+1,w
  2269  0F06  00C9               	movwf	??___fltol+1
  2270  0F07  0846               	movf	___fltol@f1+2,w
  2271  0F08  00CA               	movwf	??___fltol+2
  2272  0F09  0847               	movf	___fltol@f1+3,w
  2273  0F0A  00CB               	movwf	??___fltol+3
  2274  0F0B  301F               	movlw	31
  2275  0F0C                     u3435:
  2276  0F0C  1003               	clrc
  2277  0F0D  0CCB               	rrf	??___fltol+3,f
  2278  0F0E  0CCA               	rrf	??___fltol+2,f
  2279  0F0F  0CC9               	rrf	??___fltol+1,f
  2280  0F10  0CC8               	rrf	??___fltol,f
  2281  0F11                     u3430:
  2282  0F11  3EFF               	addlw	-1
  2283  0F12  1D03               	skipz
  2284  0F13  2F0C               	goto	u3435
  2285  0F14  0848               	movf	??___fltol,w
  2286  0F15  00CC               	movwf	??___fltol+4
  2287  0F16  084C               	movf	??___fltol+4,w
  2288  0F17  00F7               	movwf	___fltol@sign1
  2289  0F18                     l2632:
  2290  0F18  17C6               	bsf	___fltol@f1+2,7
  2291  0F19                     l2634:
  2292  0F19  30FF               	movlw	255
  2293  0F1A  05C4               	andwf	___fltol@f1,f
  2294  0F1B  30FF               	movlw	255
  2295  0F1C  05C5               	andwf	___fltol@f1+1,f
  2296  0F1D  30FF               	movlw	255
  2297  0F1E  05C6               	andwf	___fltol@f1+2,f
  2298  0F1F  3000               	movlw	0
  2299  0F20  05C7               	andwf	___fltol@f1+3,f
  2300  0F21                     l2636:
  2301  0F21  3096               	movlw	150
  2302  0F22  02F8               	subwf	___fltol@exp1,f
  2303  0F23                     l2638:
  2304  0F23  1FF8               	btfss	___fltol@exp1,7
  2305  0F24  2F26               	goto	u3441
  2306  0F25  2F27               	goto	u3440
  2307  0F26                     u3441:
  2308  0F26  2F41               	goto	l2648
  2309  0F27                     u3440:
  2310  0F27                     l2640:
  2311  0F27  0878               	movf	___fltol@exp1,w
  2312  0F28  3A80               	xorlw	128
  2313  0F29  3E97               	addlw	151
  2314  0F2A  1803               	skipnc
  2315  0F2B  2F2D               	goto	u3451
  2316  0F2C  2F2E               	goto	u3450
  2317  0F2D                     u3451:
  2318  0F2D  2F2F               	goto	l2646
  2319  0F2E                     u3450:
  2320  0F2E  2EFA               	goto	l2626
  2321  0F2F                     l2646:
  2322  0F2F  3001               	movlw	1
  2323  0F30                     u3465:
  2324  0F30  1003               	clrc
  2325  0F31  0CC7               	rrf	___fltol@f1+3,f
  2326  0F32  0CC6               	rrf	___fltol@f1+2,f
  2327  0F33  0CC5               	rrf	___fltol@f1+1,f
  2328  0F34  0CC4               	rrf	___fltol@f1,f
  2329  0F35  3EFF               	addlw	-1
  2330  0F36  1D03               	skipz
  2331  0F37  2F30               	goto	u3465
  2332  0F38  3001               	movlw	1
  2333  0F39  00C8               	movwf	??___fltol
  2334  0F3A  0848               	movf	??___fltol,w
  2335  0F3B  07F8               	addwf	___fltol@exp1,f
  2336  0F3C  1D03               	btfss	3,2
  2337  0F3D  2F3F               	goto	u3471
  2338  0F3E  2F40               	goto	u3470
  2339  0F3F                     u3471:
  2340  0F3F  2F2F               	goto	l2646
  2341  0F40                     u3470:
  2342  0F40  2F58               	goto	l2656
  2343  0F41                     l2648:
  2344  0F41  3020               	movlw	32
  2345  0F42  0278               	subwf	___fltol@exp1,w
  2346  0F43  1C03               	skipc
  2347  0F44  2F46               	goto	u3481
  2348  0F45  2F47               	goto	u3480
  2349  0F46                     u3481:
  2350  0F46  2F53               	goto	l479
  2351  0F47                     u3480:
  2352  0F47  2EFA               	goto	l2626
  2353  0F48                     l2654:
  2354  0F48  3001               	movlw	1
  2355  0F49  00C8               	movwf	??___fltol
  2356  0F4A                     u3495:
  2357  0F4A  1003               	clrc
  2358  0F4B  0DC4               	rlf	___fltol@f1,f
  2359  0F4C  0DC5               	rlf	___fltol@f1+1,f
  2360  0F4D  0DC6               	rlf	___fltol@f1+2,f
  2361  0F4E  0DC7               	rlf	___fltol@f1+3,f
  2362  0F4F  0BC8               	decfsz	??___fltol,f
  2363  0F50  2F4A               	goto	u3495
  2364  0F51  3001               	movlw	1
  2365  0F52  02F8               	subwf	___fltol@exp1,f
  2366  0F53                     l479:
  2367  0F53  0878               	movf	___fltol@exp1,w
  2368  0F54  1D03               	btfss	3,2
  2369  0F55  2F57               	goto	u3501
  2370  0F56  2F58               	goto	u3500
  2371  0F57                     u3501:
  2372  0F57  2F48               	goto	l2654
  2373  0F58                     u3500:
  2374  0F58                     l2656:
  2375  0F58  0877               	movf	___fltol@sign1,w
  2376  0F59  1903               	btfsc	3,2
  2377  0F5A  2F5C               	goto	u3511
  2378  0F5B  2F5D               	goto	u3510
  2379  0F5C                     u3511:
  2380  0F5C  2F68               	goto	l482
  2381  0F5D                     u3510:
  2382  0F5D                     l2658:
  2383  0F5D  09C4               	comf	___fltol@f1,f
  2384  0F5E  09C5               	comf	___fltol@f1+1,f
  2385  0F5F  09C6               	comf	___fltol@f1+2,f
  2386  0F60  09C7               	comf	___fltol@f1+3,f
  2387  0F61  0AC4               	incf	___fltol@f1,f
  2388  0F62  1903               	skipnz
  2389  0F63  0AC5               	incf	___fltol@f1+1,f
  2390  0F64  1903               	skipnz
  2391  0F65  0AC6               	incf	___fltol@f1+2,f
  2392  0F66  1903               	skipnz
  2393  0F67  0AC7               	incf	___fltol@f1+3,f
  2394  0F68                     l482:
  2395  0F68                     l472:
  2396  0F68  0008               	return
  2397  0F69                     __end_of___fltol:
  2398                           
  2399                           	psect	text10
  2400  0C6B                     __ptext10:	
  2401 ;; *************** function ___flsub *****************
  2402 ;; Defined at:
  2403 ;;		line 242 in file "C:\Program Files\Microchip\xc8\v2.31\pic\sources\c90\common\sprcadd.c"
  2404 ;; Parameters:    Size  Location     Type
  2405 ;;  a               4   16[BANK0 ] long 
  2406 ;;  b               4   20[BANK0 ] long 
  2407 ;; Auto vars:     Size  Location     Type
  2408 ;;		None
  2409 ;; Return value:  Size  Location     Type
  2410 ;;                  4   16[BANK0 ] long 
  2411 ;; Registers used:
  2412 ;;		wreg, status,2, status,0, btemp+1, pclath, cstack
  2413 ;; Tracked objects:
  2414 ;;		On entry : 0/0
  2415 ;;		On exit  : 0/0
  2416 ;;		Unchanged: 0/0
  2417 ;; Data sizes:     COMMON   BANK0   BANK1   BANK3   BANK2
  2418 ;;      Params:         0       8       0       0       0
  2419 ;;      Locals:         0       0       0       0       0
  2420 ;;      Temps:          0       0       0       0       0
  2421 ;;      Totals:         0       8       0       0       0
  2422 ;;Total ram usage:        8 bytes
  2423 ;; Hardware stack levels used:    1
  2424 ;; Hardware stack levels required when called:    2
  2425 ;; This function calls:
  2426 ;;		___fladd
  2427 ;; This function is called by:
  2428 ;;		_sendfloat
  2429 ;; This function uses a non-reentrant model
  2430 ;;
  2431                           
  2432                           
  2433                           ;psect for function ___flsub
  2434  0C6B                     ___flsub:
  2435  0C6B                     l2660:	
  2436                           ;incstack = 0
  2437                           ; Regs used in ___flsub: [wreg+status,2+status,0+btemp+1+pclath+cstack]
  2438                           
  2439  0C6B  3080               	movlw	128
  2440  0C6C  1283               	bcf	3,5	;RP0=0, select bank0
  2441  0C6D  1303               	bcf	3,6	;RP1=0, select bank0
  2442  0C6E  06B3               	xorwf	___flsub@a+3,f
  2443  0C6F                     l2662:
  2444  0C6F  0837               	movf	___flsub@b+3,w
  2445  0C70  00A3               	movwf	___fladd@b+3
  2446  0C71  0836               	movf	___flsub@b+2,w
  2447  0C72  00A2               	movwf	___fladd@b+2
  2448  0C73  0835               	movf	___flsub@b+1,w
  2449  0C74  00A1               	movwf	___fladd@b+1
  2450  0C75  0834               	movf	___flsub@b,w
  2451  0C76  00A0               	movwf	___fladd@b
  2452  0C77  0833               	movf	___flsub@a+3,w
  2453  0C78  00A7               	movwf	___fladd@a+3
  2454  0C79  0832               	movf	___flsub@a+2,w
  2455  0C7A  00A6               	movwf	___fladd@a+2
  2456  0C7B  0831               	movf	___flsub@a+1,w
  2457  0C7C  00A5               	movwf	___fladd@a+1
  2458  0C7D  0830               	movf	___flsub@a,w
  2459  0C7E  00A4               	movwf	___fladd@a
  2460  0C7F  120A  118A  2385  120A  158A  	fcall	___fladd
  2461  0C84  1283               	bcf	3,5	;RP0=0, select bank0
  2462  0C85  1303               	bcf	3,6	;RP1=0, select bank0
  2463  0C86  0823               	movf	?___fladd+3,w
  2464  0C87  00B3               	movwf	?___flsub+3
  2465  0C88  0822               	movf	?___fladd+2,w
  2466  0C89  00B2               	movwf	?___flsub+2
  2467  0C8A  0821               	movf	?___fladd+1,w
  2468  0C8B  00B1               	movwf	?___flsub+1
  2469  0C8C  0820               	movf	?___fladd,w
  2470  0C8D  00B0               	movwf	?___flsub
  2471  0C8E                     l625:
  2472  0C8E  0008               	return
  2473  0C8F                     __end_of___flsub:
  2474                           
  2475                           	psect	text11
  2476  0385                     __ptext11:	
  2477 ;; *************** function ___fladd *****************
  2478 ;; Defined at:
  2479 ;;		line 10 in file "C:\Program Files\Microchip\xc8\v2.31\pic\sources\c90\common\sprcadd.c"
  2480 ;; Parameters:    Size  Location     Type
  2481 ;;  b               4    0[BANK0 ] long 
  2482 ;;  a               4    4[BANK0 ] long 
  2483 ;; Auto vars:     Size  Location     Type
  2484 ;;  grs             1    6[COMMON] unsigned char 
  2485 ;;  bexp            1    5[COMMON] unsigned char 
  2486 ;;  aexp            1    4[COMMON] unsigned char 
  2487 ;;  signs           1    3[COMMON] unsigned char 
  2488 ;; Return value:  Size  Location     Type
  2489 ;;                  4    0[BANK0 ] unsigned char 
  2490 ;; Registers used:
  2491 ;;		wreg, status,2, status,0, btemp+1
  2492 ;; Tracked objects:
  2493 ;;		On entry : 0/0
  2494 ;;		On exit  : 0/0
  2495 ;;		Unchanged: 0/0
  2496 ;; Data sizes:     COMMON   BANK0   BANK1   BANK3   BANK2
  2497 ;;      Params:         0       8       0       0       0
  2498 ;;      Locals:         4       0       0       0       0
  2499 ;;      Temps:          0       8       0       0       0
  2500 ;;      Totals:         4      16       0       0       0
  2501 ;;Total ram usage:       20 bytes
  2502 ;; Hardware stack levels used:    1
  2503 ;; Hardware stack levels required when called:    1
  2504 ;; This function calls:
  2505 ;;		Nothing
  2506 ;; This function is called by:
  2507 ;;		___flsub
  2508 ;; This function uses a non-reentrant model
  2509 ;;
  2510                           
  2511                           
  2512                           ;psect for function ___fladd
  2513  0385                     ___fladd:
  2514  0385                     l2386:	
  2515                           ;incstack = 0
  2516                           ; Regs used in ___fladd: [wreg+status,2+status,0+btemp+1]
  2517                           
  2518  0385  1283               	bcf	3,5	;RP0=0, select bank0
  2519  0386  1303               	bcf	3,6	;RP1=0, select bank0
  2520  0387  0823               	movf	___fladd@b+3,w
  2521  0388  3980               	andlw	128
  2522  0389  00A8               	movwf	??___fladd
  2523  038A  0828               	movf	??___fladd,w
  2524  038B  00F3               	movwf	___fladd@signs
  2525  038C                     l2388:
  2526  038C  0823               	movf	___fladd@b+3,w
  2527  038D  00A8               	movwf	??___fladd
  2528  038E  0728               	addwf	??___fladd,w
  2529  038F  00A9               	movwf	??___fladd+1
  2530  0390  0829               	movf	??___fladd+1,w
  2531  0391  00F5               	movwf	___fladd@bexp
  2532  0392                     l2390:
  2533  0392  1FA2               	btfss	___fladd@b+2,7
  2534  0393  2B95               	goto	u2901
  2535  0394  2B96               	goto	u2900
  2536  0395                     u2901:
  2537  0395  2B97               	goto	l2394
  2538  0396                     u2900:
  2539  0396                     l2392:
  2540  0396  1475               	bsf	___fladd@bexp,0
  2541  0397                     l2394:
  2542  0397  0875               	movf	___fladd@bexp,w
  2543  0398  1903               	btfsc	3,2
  2544  0399  2B9B               	goto	u2911
  2545  039A  2B9C               	goto	u2910
  2546  039B                     u2911:
  2547  039B  2BAC               	goto	l2404
  2548  039C                     u2910:
  2549  039C                     l2396:
  2550  039C  0A75               	incf	___fladd@bexp,w
  2551  039D  1D03               	btfss	3,2
  2552  039E  2BA0               	goto	u2921
  2553  039F  2BA1               	goto	u2920
  2554  03A0                     u2921:
  2555  03A0  2BA9               	goto	l2400
  2556  03A1                     u2920:
  2557  03A1                     l2398:
  2558  03A1  3000               	movlw	0
  2559  03A2  00A3               	movwf	___fladd@b+3
  2560  03A3  3000               	movlw	0
  2561  03A4  00A2               	movwf	___fladd@b+2
  2562  03A5  3000               	movlw	0
  2563  03A6  00A1               	movwf	___fladd@b+1
  2564  03A7  3000               	movlw	0
  2565  03A8  00A0               	movwf	___fladd@b
  2566  03A9                     l2400:
  2567  03A9  17A2               	bsf	___fladd@b+2,7
  2568  03AA                     l2402:
  2569  03AA  01A3               	clrf	___fladd@b+3
  2570  03AB  2BB4               	goto	l2406
  2571  03AC                     l2404:
  2572  03AC  3000               	movlw	0
  2573  03AD  00A3               	movwf	___fladd@b+3
  2574  03AE  3000               	movlw	0
  2575  03AF  00A2               	movwf	___fladd@b+2
  2576  03B0  3000               	movlw	0
  2577  03B1  00A1               	movwf	___fladd@b+1
  2578  03B2  3000               	movlw	0
  2579  03B3  00A0               	movwf	___fladd@b
  2580  03B4                     l2406:
  2581  03B4  0827               	movf	___fladd@a+3,w
  2582  03B5  3980               	andlw	128
  2583  03B6  00A8               	movwf	??___fladd
  2584  03B7  0828               	movf	??___fladd,w
  2585  03B8  00F4               	movwf	___fladd@aexp
  2586  03B9                     l2408:
  2587  03B9  0874               	movf	___fladd@aexp,w
  2588  03BA  0673               	xorwf	___fladd@signs,w
  2589  03BB  1903               	skipnz
  2590  03BC  2BBE               	goto	u2931
  2591  03BD  2BBF               	goto	u2930
  2592  03BE                     u2931:
  2593  03BE  2BC0               	goto	l2412
  2594  03BF                     u2930:
  2595  03BF                     l2410:
  2596  03BF  1773               	bsf	___fladd@signs,6
  2597  03C0                     l2412:
  2598  03C0  0827               	movf	___fladd@a+3,w
  2599  03C1  00A8               	movwf	??___fladd
  2600  03C2  0728               	addwf	??___fladd,w
  2601  03C3  00A9               	movwf	??___fladd+1
  2602  03C4  0829               	movf	??___fladd+1,w
  2603  03C5  00F4               	movwf	___fladd@aexp
  2604  03C6                     l2414:
  2605  03C6  1FA6               	btfss	___fladd@a+2,7
  2606  03C7  2BC9               	goto	u2941
  2607  03C8  2BCA               	goto	u2940
  2608  03C9                     u2941:
  2609  03C9  2BCB               	goto	l2418
  2610  03CA                     u2940:
  2611  03CA                     l2416:
  2612  03CA  1474               	bsf	___fladd@aexp,0
  2613  03CB                     l2418:
  2614  03CB  0874               	movf	___fladd@aexp,w
  2615  03CC  1903               	btfsc	3,2
  2616  03CD  2BCF               	goto	u2951
  2617  03CE  2BD0               	goto	u2950
  2618  03CF                     u2951:
  2619  03CF  2BE0               	goto	l2428
  2620  03D0                     u2950:
  2621  03D0                     l2420:
  2622  03D0  0A74               	incf	___fladd@aexp,w
  2623  03D1  1D03               	btfss	3,2
  2624  03D2  2BD4               	goto	u2961
  2625  03D3  2BD5               	goto	u2960
  2626  03D4                     u2961:
  2627  03D4  2BDD               	goto	l2424
  2628  03D5                     u2960:
  2629  03D5                     l2422:
  2630  03D5  3000               	movlw	0
  2631  03D6  00A7               	movwf	___fladd@a+3
  2632  03D7  3000               	movlw	0
  2633  03D8  00A6               	movwf	___fladd@a+2
  2634  03D9  3000               	movlw	0
  2635  03DA  00A5               	movwf	___fladd@a+1
  2636  03DB  3000               	movlw	0
  2637  03DC  00A4               	movwf	___fladd@a
  2638  03DD                     l2424:
  2639  03DD  17A6               	bsf	___fladd@a+2,7
  2640  03DE                     l2426:
  2641  03DE  01A7               	clrf	___fladd@a+3
  2642  03DF  2BE8               	goto	l579
  2643  03E0                     l2428:
  2644  03E0  3000               	movlw	0
  2645  03E1  00A7               	movwf	___fladd@a+3
  2646  03E2  3000               	movlw	0
  2647  03E3  00A6               	movwf	___fladd@a+2
  2648  03E4  3000               	movlw	0
  2649  03E5  00A5               	movwf	___fladd@a+1
  2650  03E6  3000               	movlw	0
  2651  03E7  00A4               	movwf	___fladd@a
  2652  03E8                     l579:
  2653  03E8  0875               	movf	___fladd@bexp,w
  2654  03E9  0274               	subwf	___fladd@aexp,w
  2655  03EA  1803               	skipnc
  2656  03EB  2BED               	goto	u2971
  2657  03EC  2BEE               	goto	u2970
  2658  03ED                     u2971:
  2659  03ED  2C32               	goto	l2464
  2660  03EE                     u2970:
  2661  03EE                     l2430:
  2662  03EE  1F73               	btfss	___fladd@signs,6
  2663  03EF  2BF1               	goto	u2981
  2664  03F0  2BF2               	goto	u2980
  2665  03F1                     u2981:
  2666  03F1  2BF6               	goto	l2434
  2667  03F2                     u2980:
  2668  03F2                     l2432:
  2669  03F2  3080               	movlw	128
  2670  03F3  00A8               	movwf	??___fladd
  2671  03F4  0828               	movf	??___fladd,w
  2672  03F5  06F3               	xorwf	___fladd@signs,f
  2673  03F6                     l2434:
  2674  03F6  0875               	movf	___fladd@bexp,w
  2675  03F7  00A8               	movwf	??___fladd
  2676  03F8  0828               	movf	??___fladd,w
  2677  03F9  00F6               	movwf	___fladd@grs
  2678  03FA                     l2436:
  2679  03FA  0874               	movf	___fladd@aexp,w
  2680  03FB  00A8               	movwf	??___fladd
  2681  03FC  0828               	movf	??___fladd,w
  2682  03FD  00F5               	movwf	___fladd@bexp
  2683  03FE                     l2438:
  2684  03FE  0876               	movf	___fladd@grs,w
  2685  03FF  00A8               	movwf	??___fladd
  2686  0400  0828               	movf	??___fladd,w
  2687  0401  00F4               	movwf	___fladd@aexp
  2688  0402                     l2440:
  2689  0402  0820               	movf	___fladd@b,w
  2690  0403  00A8               	movwf	??___fladd
  2691  0404  0828               	movf	??___fladd,w
  2692  0405  00F6               	movwf	___fladd@grs
  2693  0406                     l2442:
  2694  0406  0824               	movf	___fladd@a,w
  2695  0407  00A8               	movwf	??___fladd
  2696  0408  0828               	movf	??___fladd,w
  2697  0409  00A0               	movwf	___fladd@b
  2698  040A                     l2444:
  2699  040A  0876               	movf	___fladd@grs,w
  2700  040B  00A8               	movwf	??___fladd
  2701  040C  0828               	movf	??___fladd,w
  2702  040D  00A4               	movwf	___fladd@a
  2703  040E                     l2446:
  2704  040E  0821               	movf	___fladd@b+1,w
  2705  040F  00A8               	movwf	??___fladd
  2706  0410  0828               	movf	??___fladd,w
  2707  0411  00F6               	movwf	___fladd@grs
  2708  0412                     l2448:
  2709  0412  0825               	movf	___fladd@a+1,w
  2710  0413  00A8               	movwf	??___fladd
  2711  0414  0828               	movf	??___fladd,w
  2712  0415  00A1               	movwf	___fladd@b+1
  2713  0416                     l2450:
  2714  0416  0876               	movf	___fladd@grs,w
  2715  0417  00A8               	movwf	??___fladd
  2716  0418  0828               	movf	??___fladd,w
  2717  0419  00A5               	movwf	___fladd@a+1
  2718  041A                     l2452:
  2719  041A  0822               	movf	___fladd@b+2,w
  2720  041B  00A8               	movwf	??___fladd
  2721  041C  0828               	movf	??___fladd,w
  2722  041D  00F6               	movwf	___fladd@grs
  2723  041E                     l2454:
  2724  041E  0826               	movf	___fladd@a+2,w
  2725  041F  00A8               	movwf	??___fladd
  2726  0420  0828               	movf	??___fladd,w
  2727  0421  00A2               	movwf	___fladd@b+2
  2728  0422                     l2456:
  2729  0422  0876               	movf	___fladd@grs,w
  2730  0423  00A8               	movwf	??___fladd
  2731  0424  0828               	movf	??___fladd,w
  2732  0425  00A6               	movwf	___fladd@a+2
  2733  0426                     l2458:
  2734  0426  0823               	movf	___fladd@b+3,w
  2735  0427  00A8               	movwf	??___fladd
  2736  0428  0828               	movf	??___fladd,w
  2737  0429  00F6               	movwf	___fladd@grs
  2738  042A                     l2460:
  2739  042A  0827               	movf	___fladd@a+3,w
  2740  042B  00A8               	movwf	??___fladd
  2741  042C  0828               	movf	??___fladd,w
  2742  042D  00A3               	movwf	___fladd@b+3
  2743  042E                     l2462:
  2744  042E  0876               	movf	___fladd@grs,w
  2745  042F  00A8               	movwf	??___fladd
  2746  0430  0828               	movf	??___fladd,w
  2747  0431  00A7               	movwf	___fladd@a+3
  2748  0432                     l2464:
  2749  0432  01F6               	clrf	___fladd@grs
  2750  0433                     l2466:
  2751  0433  0874               	movf	___fladd@aexp,w
  2752  0434  00A8               	movwf	??___fladd
  2753  0435  01A9               	clrf	??___fladd+1
  2754  0436  0829               	movf	??___fladd+1,w
  2755  0437  00AB               	movwf	??___fladd+3
  2756  0438  0875               	movf	___fladd@bexp,w
  2757  0439  0228               	subwf	??___fladd,w
  2758  043A  00AA               	movwf	??___fladd+2
  2759  043B  1C03               	skipc
  2760  043C  03AB               	decf	??___fladd+3,f
  2761  043D  082B               	movf	??___fladd+3,w
  2762  043E  3A80               	xorlw	128
  2763  043F  00FF               	movwf	btemp+1
  2764  0440  3080               	movlw	128
  2765  0441  027F               	subwf	btemp+1,w
  2766  0442  1D03               	skipz
  2767  0443  2C46               	goto	u2995
  2768  0444  301A               	movlw	26
  2769  0445  022A               	subwf	??___fladd+2,w
  2770  0446                     u2995:
  2771  0446  1C03               	skipc
  2772  0447  2C49               	goto	u2991
  2773  0448  2C4A               	goto	u2990
  2774  0449                     u2991:
  2775  0449  2C8B               	goto	l2482
  2776  044A                     u2990:
  2777  044A                     l2468:
  2778  044A  1283               	bcf	3,5	;RP0=0, select bank0
  2779  044B  1303               	bcf	3,6	;RP1=0, select bank0
  2780  044C  0823               	movf	___fladd@b+3,w
  2781  044D  0422               	iorwf	___fladd@b+2,w
  2782  044E  0421               	iorwf	___fladd@b+1,w
  2783  044F  0420               	iorwf	___fladd@b,w
  2784  0450  1D03               	skipz
  2785  0451  2C53               	goto	u3001
  2786  0452  2C55               	goto	u3000
  2787  0453                     u3001:
  2788  0453  3001               	movlw	1
  2789  0454  2C56               	goto	u3010
  2790  0455                     u3000:
  2791  0455  3000               	movlw	0
  2792  0456                     u3010:
  2793  0456  00A8               	movwf	??___fladd
  2794  0457  0828               	movf	??___fladd,w
  2795  0458  00F6               	movwf	___fladd@grs
  2796  0459  3000               	movlw	0
  2797  045A  00A3               	movwf	___fladd@b+3
  2798  045B  3000               	movlw	0
  2799  045C  00A2               	movwf	___fladd@b+2
  2800  045D  3000               	movlw	0
  2801  045E  00A1               	movwf	___fladd@b+1
  2802  045F  3000               	movlw	0
  2803  0460  00A0               	movwf	___fladd@b
  2804  0461  0874               	movf	___fladd@aexp,w
  2805  0462  00A8               	movwf	??___fladd
  2806  0463  0828               	movf	??___fladd,w
  2807  0464  00F5               	movwf	___fladd@bexp
  2808  0465  2C91               	goto	l583
  2809  0466                     l585:
  2810  0466  1C76               	btfss	___fladd@grs,0
  2811  0467  2C69               	goto	u3021
  2812  0468  2C6A               	goto	u3020
  2813  0469                     u3021:
  2814  0469  2C75               	goto	l2472
  2815  046A                     u3020:
  2816  046A                     l2470:
  2817  046A  0876               	movf	___fladd@grs,w
  2818  046B  1283               	bcf	3,5	;RP0=0, select bank0
  2819  046C  1303               	bcf	3,6	;RP1=0, select bank0
  2820  046D  00A8               	movwf	??___fladd
  2821  046E  1003               	clrc
  2822  046F  0C28               	rrf	??___fladd,w
  2823  0470  3801               	iorlw	1
  2824  0471  00A9               	movwf	??___fladd+1
  2825  0472  0829               	movf	??___fladd+1,w
  2826  0473  00F6               	movwf	___fladd@grs
  2827  0474  2C77               	goto	l2474
  2828  0475                     l2472:
  2829  0475  1003               	clrc
  2830  0476  0CF6               	rrf	___fladd@grs,f
  2831  0477                     l2474:
  2832  0477  1283               	bcf	3,5	;RP0=0, select bank0
  2833  0478  1303               	bcf	3,6	;RP1=0, select bank0
  2834  0479  1C20               	btfss	___fladd@b,0
  2835  047A  2C7C               	goto	u3031
  2836  047B  2C7D               	goto	u3030
  2837  047C                     u3031:
  2838  047C  2C7E               	goto	l2478
  2839  047D                     u3030:
  2840  047D                     l2476:
  2841  047D  17F6               	bsf	___fladd@grs,7
  2842  047E                     l2478:
  2843  047E  3001               	movlw	1
  2844  047F  00A8               	movwf	??___fladd
  2845  0480                     u3045:
  2846  0480  0D23               	rlf	___fladd@b+3,w
  2847  0481  0CA3               	rrf	___fladd@b+3,f
  2848  0482  0CA2               	rrf	___fladd@b+2,f
  2849  0483  0CA1               	rrf	___fladd@b+1,f
  2850  0484  0CA0               	rrf	___fladd@b,f
  2851  0485  0BA8               	decfsz	??___fladd& (0+127),f
  2852  0486  2C80               	goto	u3045
  2853  0487                     l2480:
  2854  0487  3001               	movlw	1
  2855  0488  00A8               	movwf	??___fladd
  2856  0489  0828               	movf	??___fladd,w
  2857  048A  07F5               	addwf	___fladd@bexp,f
  2858  048B                     l2482:
  2859  048B  0874               	movf	___fladd@aexp,w
  2860  048C  0275               	subwf	___fladd@bexp,w
  2861  048D  1C03               	skipc
  2862  048E  2C90               	goto	u3051
  2863  048F  2C91               	goto	u3050
  2864  0490                     u3051:
  2865  0490  2C66               	goto	l585
  2866  0491                     u3050:
  2867  0491                     l583:
  2868  0491  1B73               	btfsc	___fladd@signs,6
  2869  0492  2C94               	goto	u3061
  2870  0493  2C95               	goto	u3060
  2871  0494                     u3061:
  2872  0494  2CE4               	goto	l2508
  2873  0495                     u3060:
  2874  0495                     l2484:
  2875  0495  0875               	movf	___fladd@bexp,w
  2876  0496  1D03               	btfss	3,2
  2877  0497  2C99               	goto	u3071
  2878  0498  2C9A               	goto	u3070
  2879  0499                     u3071:
  2880  0499  2CA5               	goto	l2490
  2881  049A                     u3070:
  2882  049A                     l2486:
  2883  049A  3000               	movlw	0
  2884  049B  1283               	bcf	3,5	;RP0=0, select bank0
  2885  049C  1303               	bcf	3,6	;RP1=0, select bank0
  2886  049D  00A3               	movwf	?___fladd+3
  2887  049E  3000               	movlw	0
  2888  049F  00A2               	movwf	?___fladd+2
  2889  04A0  3000               	movlw	0
  2890  04A1  00A1               	movwf	?___fladd+1
  2891  04A2  3000               	movlw	0
  2892  04A3  00A0               	movwf	?___fladd
  2893  04A4  2E14               	goto	l592
  2894  04A5                     l2490:
  2895  04A5  1283               	bcf	3,5	;RP0=0, select bank0
  2896  04A6  1303               	bcf	3,6	;RP1=0, select bank0
  2897  04A7  0824               	movf	___fladd@a,w
  2898  04A8  07A0               	addwf	___fladd@b,f
  2899  04A9  0825               	movf	___fladd@a+1,w
  2900  04AA  1103               	clrz
  2901  04AB  1803               	skipnc
  2902  04AC  3E01               	addlw	1
  2903  04AD  1903               	skipnz
  2904  04AE  2CB0               	goto	u3081
  2905  04AF  07A1               	addwf	___fladd@b+1,f
  2906  04B0                     u3081:
  2907  04B0  0826               	movf	___fladd@a+2,w
  2908  04B1  1103               	clrz
  2909  04B2  1803               	skipnc
  2910  04B3  3E01               	addlw	1
  2911  04B4  1903               	skipnz
  2912  04B5  2CB7               	goto	u3082
  2913  04B6  07A2               	addwf	___fladd@b+2,f
  2914  04B7                     u3082:
  2915  04B7  0827               	movf	___fladd@a+3,w
  2916  04B8  1103               	clrz
  2917  04B9  1803               	skipnc
  2918  04BA  3E01               	addlw	1
  2919  04BB  1903               	skipnz
  2920  04BC  2CBE               	goto	u3083
  2921  04BD  07A3               	addwf	___fladd@b+3,f
  2922  04BE                     u3083:
  2923  04BE                     l2492:
  2924  04BE  1C23               	btfss	___fladd@b+3,0
  2925  04BF  2CC1               	goto	u3091
  2926  04C0  2CC2               	goto	u3090
  2927  04C1                     u3091:
  2928  04C1  2D9A               	goto	l2542
  2929  04C2                     u3090:
  2930  04C2                     l2494:
  2931  04C2  1C76               	btfss	___fladd@grs,0
  2932  04C3  2CC5               	goto	u3101
  2933  04C4  2CC6               	goto	u3100
  2934  04C5                     u3101:
  2935  04C5  2CCF               	goto	l2498
  2936  04C6                     u3100:
  2937  04C6                     l2496:
  2938  04C6  0876               	movf	___fladd@grs,w
  2939  04C7  00A8               	movwf	??___fladd
  2940  04C8  1003               	clrc
  2941  04C9  0C28               	rrf	??___fladd,w
  2942  04CA  3801               	iorlw	1
  2943  04CB  00A9               	movwf	??___fladd+1
  2944  04CC  0829               	movf	??___fladd+1,w
  2945  04CD  00F6               	movwf	___fladd@grs
  2946  04CE  2CD1               	goto	l2500
  2947  04CF                     l2498:
  2948  04CF  1003               	clrc
  2949  04D0  0CF6               	rrf	___fladd@grs,f
  2950  04D1                     l2500:
  2951  04D1  1C20               	btfss	___fladd@b,0
  2952  04D2  2CD4               	goto	u3111
  2953  04D3  2CD5               	goto	u3110
  2954  04D4                     u3111:
  2955  04D4  2CD6               	goto	l2504
  2956  04D5                     u3110:
  2957  04D5                     l2502:
  2958  04D5  17F6               	bsf	___fladd@grs,7
  2959  04D6                     l2504:
  2960  04D6  3001               	movlw	1
  2961  04D7  00A8               	movwf	??___fladd
  2962  04D8                     u3125:
  2963  04D8  0D23               	rlf	___fladd@b+3,w
  2964  04D9  0CA3               	rrf	___fladd@b+3,f
  2965  04DA  0CA2               	rrf	___fladd@b+2,f
  2966  04DB  0CA1               	rrf	___fladd@b+1,f
  2967  04DC  0CA0               	rrf	___fladd@b,f
  2968  04DD  0BA8               	decfsz	??___fladd& (0+127),f
  2969  04DE  2CD8               	goto	u3125
  2970  04DF                     l2506:
  2971  04DF  3001               	movlw	1
  2972  04E0  00A8               	movwf	??___fladd
  2973  04E1  0828               	movf	??___fladd,w
  2974  04E2  07F5               	addwf	___fladd@bexp,f
  2975  04E3  2D9A               	goto	l2542
  2976  04E4                     l2508:
  2977  04E4  1283               	bcf	3,5	;RP0=0, select bank0
  2978  04E5  1303               	bcf	3,6	;RP1=0, select bank0
  2979  04E6  0823               	movf	___fladd@b+3,w
  2980  04E7  3A80               	xorlw	128
  2981  04E8  00FF               	movwf	btemp+1
  2982  04E9  0827               	movf	___fladd@a+3,w
  2983  04EA  3A80               	xorlw	128
  2984  04EB  027F               	subwf	btemp+1,w
  2985  04EC  1D03               	skipz
  2986  04ED  2CF8               	goto	u3133
  2987  04EE  0826               	movf	___fladd@a+2,w
  2988  04EF  0222               	subwf	___fladd@b+2,w
  2989  04F0  1D03               	skipz
  2990  04F1  2CF8               	goto	u3133
  2991  04F2  0825               	movf	___fladd@a+1,w
  2992  04F3  0221               	subwf	___fladd@b+1,w
  2993  04F4  1D03               	skipz
  2994  04F5  2CF8               	goto	u3133
  2995  04F6  0824               	movf	___fladd@a,w
  2996  04F7  0220               	subwf	___fladd@b,w
  2997  04F8                     u3133:
  2998  04F8  1803               	skipnc
  2999  04F9  2CFB               	goto	u3131
  3000  04FA  2CFC               	goto	u3130
  3001  04FB                     u3131:
  3002  04FB  2D54               	goto	l2518
  3003  04FC                     u3130:
  3004  04FC                     l2510:
  3005  04FC  30FF               	movlw	255
  3006  04FD  00A8               	movwf	??___fladd
  3007  04FE  30FF               	movlw	255
  3008  04FF  00A9               	movwf	??___fladd+1
  3009  0500  30FF               	movlw	255
  3010  0501  00AA               	movwf	??___fladd+2
  3011  0502  30FF               	movlw	255
  3012  0503  00AB               	movwf	??___fladd+3
  3013  0504  0824               	movf	___fladd@a,w
  3014  0505  00AC               	movwf	??___fladd+4
  3015  0506  0825               	movf	___fladd@a+1,w
  3016  0507  00AD               	movwf	??___fladd+5
  3017  0508  0826               	movf	___fladd@a+2,w
  3018  0509  00AE               	movwf	??___fladd+6
  3019  050A  0827               	movf	___fladd@a+3,w
  3020  050B  00AF               	movwf	??___fladd+7
  3021  050C  0820               	movf	___fladd@b,w
  3022  050D  02AC               	subwf	??___fladd+4,f
  3023  050E  0821               	movf	___fladd@b+1,w
  3024  050F  1C03               	skipc
  3025  0510  0F21               	incfsz	___fladd@b+1,w
  3026  0511  2D13               	goto	u3141
  3027  0512  2D14               	goto	u3142
  3028  0513                     u3141:
  3029  0513  02AD               	subwf	??___fladd+5,f
  3030  0514                     u3142:
  3031  0514  0822               	movf	___fladd@b+2,w
  3032  0515  1C03               	skipc
  3033  0516  0F22               	incfsz	___fladd@b+2,w
  3034  0517  2D19               	goto	u3143
  3035  0518  2D1A               	goto	u3144
  3036  0519                     u3143:
  3037  0519  02AE               	subwf	??___fladd+6,f
  3038  051A                     u3144:
  3039  051A  0823               	movf	___fladd@b+3,w
  3040  051B  1C03               	skipc
  3041  051C  0F23               	incfsz	___fladd@b+3,w
  3042  051D  2D1F               	goto	u3145
  3043  051E  2D20               	goto	u3146
  3044  051F                     u3145:
  3045  051F  02AF               	subwf	??___fladd+7,f
  3046  0520                     u3146:
  3047  0520  082C               	movf	??___fladd+4,w
  3048  0521  07A8               	addwf	??___fladd,f
  3049  0522  082D               	movf	??___fladd+5,w
  3050  0523  1803               	skipnc
  3051  0524  0F2D               	incfsz	??___fladd+5,w
  3052  0525  2D27               	goto	u3150
  3053  0526  2D28               	goto	u3151
  3054  0527                     u3150:
  3055  0527  07A9               	addwf	??___fladd+1,f
  3056  0528                     u3151:
  3057  0528  082E               	movf	??___fladd+6,w
  3058  0529  1803               	skipnc
  3059  052A  0F2E               	incfsz	??___fladd+6,w
  3060  052B  2D2D               	goto	u3152
  3061  052C  2D2E               	goto	u3153
  3062  052D                     u3152:
  3063  052D  07AA               	addwf	??___fladd+2,f
  3064  052E                     u3153:
  3065  052E  082F               	movf	??___fladd+7,w
  3066  052F  1803               	skipnc
  3067  0530  0A2F               	incf	??___fladd+7,w
  3068  0531  07AB               	addwf	??___fladd+3,f
  3069  0532  082B               	movf	??___fladd+3,w
  3070  0533  00A3               	movwf	___fladd@b+3
  3071  0534  082A               	movf	??___fladd+2,w
  3072  0535  00A2               	movwf	___fladd@b+2
  3073  0536  0829               	movf	??___fladd+1,w
  3074  0537  00A1               	movwf	___fladd@b+1
  3075  0538  0828               	movf	??___fladd,w
  3076  0539  00A0               	movwf	___fladd@b
  3077  053A                     l2512:
  3078  053A  3080               	movlw	128
  3079  053B  00A8               	movwf	??___fladd
  3080  053C  0828               	movf	??___fladd,w
  3081  053D  06F3               	xorwf	___fladd@signs,f
  3082  053E  09F6               	comf	___fladd@grs,f
  3083  053F  0AF6               	incf	___fladd@grs,f
  3084  0540                     l2514:
  3085  0540  0876               	movf	___fladd@grs,w
  3086  0541  1D03               	btfss	3,2
  3087  0542  2D44               	goto	u3161
  3088  0543  2D45               	goto	u3160
  3089  0544                     u3161:
  3090  0544  2D62               	goto	l600
  3091  0545                     u3160:
  3092  0545                     l2516:
  3093  0545  3001               	movlw	1
  3094  0546  07A0               	addwf	___fladd@b,f
  3095  0547  3000               	movlw	0
  3096  0548  1803               	skipnc
  3097  0549  3001               	movlw	1
  3098  054A  07A1               	addwf	___fladd@b+1,f
  3099  054B  3000               	movlw	0
  3100  054C  1803               	skipnc
  3101  054D  3001               	movlw	1
  3102  054E  07A2               	addwf	___fladd@b+2,f
  3103  054F  3000               	movlw	0
  3104  0550  1803               	skipnc
  3105  0551  3001               	movlw	1
  3106  0552  07A3               	addwf	___fladd@b+3,f
  3107  0553  2D62               	goto	l600
  3108  0554                     l2518:
  3109  0554  0824               	movf	___fladd@a,w
  3110  0555  02A0               	subwf	___fladd@b,f
  3111  0556  0825               	movf	___fladd@a+1,w
  3112  0557  1C03               	skipc
  3113  0558  0F25               	incfsz	___fladd@a+1,w
  3114  0559  02A1               	subwf	___fladd@b+1,f
  3115  055A  0826               	movf	___fladd@a+2,w
  3116  055B  1C03               	skipc
  3117  055C  0F26               	incfsz	___fladd@a+2,w
  3118  055D  02A2               	subwf	___fladd@b+2,f
  3119  055E  0827               	movf	___fladd@a+3,w
  3120  055F  1C03               	skipc
  3121  0560  0F27               	incfsz	___fladd@a+3,w
  3122  0561  02A3               	subwf	___fladd@b+3,f
  3123  0562                     l600:
  3124  0562  0823               	movf	___fladd@b+3,w
  3125  0563  0422               	iorwf	___fladd@b+2,w
  3126  0564  0421               	iorwf	___fladd@b+1,w
  3127  0565  0420               	iorwf	___fladd@b,w
  3128  0566  1D03               	skipz
  3129  0567  2D69               	goto	u3171
  3130  0568  2D6A               	goto	u3170
  3131  0569                     u3171:
  3132  0569  2D96               	goto	l2540
  3133  056A                     u3170:
  3134  056A                     l2520:
  3135  056A  0876               	movf	___fladd@grs,w
  3136  056B  1D03               	btfss	3,2
  3137  056C  2D6E               	goto	u3181
  3138  056D  2D6F               	goto	u3180
  3139  056E                     u3181:
  3140  056E  2D96               	goto	l2540
  3141  056F                     u3180:
  3142  056F                     l2522:
  3143  056F  3000               	movlw	0
  3144  0570  00A3               	movwf	?___fladd+3
  3145  0571  3000               	movlw	0
  3146  0572  00A2               	movwf	?___fladd+2
  3147  0573  3000               	movlw	0
  3148  0574  00A1               	movwf	?___fladd+1
  3149  0575  3000               	movlw	0
  3150  0576  00A0               	movwf	?___fladd
  3151  0577  2E14               	goto	l592
  3152  0578                     l2526:
  3153  0578  3001               	movlw	1
  3154  0579  00A8               	movwf	??___fladd
  3155  057A                     u3195:
  3156  057A  1003               	clrc
  3157  057B  0DA0               	rlf	___fladd@b,f
  3158  057C  0DA1               	rlf	___fladd@b+1,f
  3159  057D  0DA2               	rlf	___fladd@b+2,f
  3160  057E  0DA3               	rlf	___fladd@b+3,f
  3161  057F  0BA8               	decfsz	??___fladd,f
  3162  0580  2D7A               	goto	u3195
  3163  0581                     l2528:
  3164  0581  1FF6               	btfss	___fladd@grs,7
  3165  0582  2D84               	goto	u3201
  3166  0583  2D85               	goto	u3200
  3167  0584                     u3201:
  3168  0584  2D86               	goto	l604
  3169  0585                     u3200:
  3170  0585                     l2530:
  3171  0585  1420               	bsf	___fladd@b,0
  3172  0586                     l604:
  3173  0586  1C76               	btfss	___fladd@grs,0
  3174  0587  2D89               	goto	u3211
  3175  0588  2D8A               	goto	u3210
  3176  0589                     u3211:
  3177  0589  2D8D               	goto	l2534
  3178  058A                     u3210:
  3179  058A                     l2532:
  3180  058A  1403               	setc
  3181  058B  0DF6               	rlf	___fladd@grs,f
  3182  058C  2D8F               	goto	l2536
  3183  058D                     l2534:
  3184  058D  1003               	clrc
  3185  058E  0DF6               	rlf	___fladd@grs,f
  3186  058F                     l2536:
  3187  058F  0875               	movf	___fladd@bexp,w
  3188  0590  1903               	btfsc	3,2
  3189  0591  2D93               	goto	u3221
  3190  0592  2D94               	goto	u3220
  3191  0593                     u3221:
  3192  0593  2D96               	goto	l2540
  3193  0594                     u3220:
  3194  0594                     l2538:
  3195  0594  3001               	movlw	1
  3196  0595  02F5               	subwf	___fladd@bexp,f
  3197  0596                     l2540:
  3198  0596  1FA2               	btfss	___fladd@b+2,7
  3199  0597  2D99               	goto	u3231
  3200  0598  2D9A               	goto	u3230
  3201  0599                     u3231:
  3202  0599  2D78               	goto	l2526
  3203  059A                     u3230:
  3204  059A                     l2542:
  3205  059A  01F4               	clrf	___fladd@aexp
  3206  059B                     l2544:
  3207  059B  1FF6               	btfss	___fladd@grs,7
  3208  059C  2D9E               	goto	u3241
  3209  059D  2D9F               	goto	u3240
  3210  059E                     u3241:
  3211  059E  2DAD               	goto	l2552
  3212  059F                     u3240:
  3213  059F                     l2546:
  3214  059F  0876               	movf	___fladd@grs,w
  3215  05A0  397F               	andlw	127
  3216  05A1  1903               	btfsc	3,2
  3217  05A2  2DA4               	goto	u3251
  3218  05A3  2DA5               	goto	u3250
  3219  05A4                     u3251:
  3220  05A4  2DA8               	goto	l610
  3221  05A5                     u3250:
  3222  05A5                     l2548:
  3223  05A5  01F4               	clrf	___fladd@aexp
  3224  05A6  0AF4               	incf	___fladd@aexp,f
  3225  05A7  2DAD               	goto	l2552
  3226  05A8                     l610:
  3227  05A8  1C20               	btfss	___fladd@b,0
  3228  05A9  2DAB               	goto	u3261
  3229  05AA  2DAC               	goto	u3260
  3230  05AB                     u3261:
  3231  05AB  2DAD               	goto	l2552
  3232  05AC                     u3260:
  3233  05AC  2DA5               	goto	l2548
  3234  05AD                     l2552:
  3235  05AD  0874               	movf	___fladd@aexp,w
  3236  05AE  1903               	btfsc	3,2
  3237  05AF  2DB1               	goto	u3271
  3238  05B0  2DB2               	goto	u3270
  3239  05B1                     u3271:
  3240  05B1  2DE6               	goto	l613
  3241  05B2                     u3270:
  3242  05B2                     l2554:
  3243  05B2  3001               	movlw	1
  3244  05B3  07A0               	addwf	___fladd@b,f
  3245  05B4  3000               	movlw	0
  3246  05B5  1803               	skipnc
  3247  05B6  3001               	movlw	1
  3248  05B7  07A1               	addwf	___fladd@b+1,f
  3249  05B8  3000               	movlw	0
  3250  05B9  1803               	skipnc
  3251  05BA  3001               	movlw	1
  3252  05BB  07A2               	addwf	___fladd@b+2,f
  3253  05BC  3000               	movlw	0
  3254  05BD  1803               	skipnc
  3255  05BE  3001               	movlw	1
  3256  05BF  07A3               	addwf	___fladd@b+3,f
  3257  05C0                     l2556:
  3258  05C0  1C23               	btfss	___fladd@b+3,0
  3259  05C1  2DC3               	goto	u3281
  3260  05C2  2DC4               	goto	u3280
  3261  05C3                     u3281:
  3262  05C3  2DE6               	goto	l613
  3263  05C4                     u3280:
  3264  05C4                     l2558:
  3265  05C4  0820               	movf	___fladd@b,w
  3266  05C5  00A8               	movwf	??___fladd
  3267  05C6  0821               	movf	___fladd@b+1,w
  3268  05C7  00A9               	movwf	??___fladd+1
  3269  05C8  0822               	movf	___fladd@b+2,w
  3270  05C9  00AA               	movwf	??___fladd+2
  3271  05CA  0823               	movf	___fladd@b+3,w
  3272  05CB  00AB               	movwf	??___fladd+3
  3273  05CC  3001               	movlw	1
  3274  05CD  00AC               	movwf	??___fladd+4
  3275  05CE                     u3295:
  3276  05CE  0D2B               	rlf	??___fladd+3,w
  3277  05CF  0CAB               	rrf	??___fladd+3,f
  3278  05D0  0CAA               	rrf	??___fladd+2,f
  3279  05D1  0CA9               	rrf	??___fladd+1,f
  3280  05D2  0CA8               	rrf	??___fladd,f
  3281  05D3                     u3290:
  3282  05D3  0BAC               	decfsz	??___fladd+4,f
  3283  05D4  2DCE               	goto	u3295
  3284  05D5  082B               	movf	??___fladd+3,w
  3285  05D6  00A3               	movwf	___fladd@b+3
  3286  05D7  082A               	movf	??___fladd+2,w
  3287  05D8  00A2               	movwf	___fladd@b+2
  3288  05D9  0829               	movf	??___fladd+1,w
  3289  05DA  00A1               	movwf	___fladd@b+1
  3290  05DB  0828               	movf	??___fladd,w
  3291  05DC  00A0               	movwf	___fladd@b
  3292  05DD  0A75               	incf	___fladd@bexp,w
  3293  05DE  1903               	btfsc	3,2
  3294  05DF  2DE1               	goto	u3301
  3295  05E0  2DE2               	goto	u3300
  3296  05E1                     u3301:
  3297  05E1  2DE6               	goto	l613
  3298  05E2                     u3300:
  3299  05E2                     l2560:
  3300  05E2  3001               	movlw	1
  3301  05E3  00A8               	movwf	??___fladd
  3302  05E4  0828               	movf	??___fladd,w
  3303  05E5  07F5               	addwf	___fladd@bexp,f
  3304  05E6                     l613:
  3305  05E6  0A75               	incf	___fladd@bexp,w
  3306  05E7  1903               	btfsc	3,2
  3307  05E8  2DEA               	goto	u3311
  3308  05E9  2DEB               	goto	u3310
  3309  05EA                     u3311:
  3310  05EA  2DF0               	goto	l2564
  3311  05EB                     u3310:
  3312  05EB                     l2562:
  3313  05EB  0875               	movf	___fladd@bexp,w
  3314  05EC  1D03               	btfss	3,2
  3315  05ED  2DEF               	goto	u3321
  3316  05EE  2DF0               	goto	u3320
  3317  05EF                     u3321:
  3318  05EF  2DFE               	goto	l2570
  3319  05F0                     u3320:
  3320  05F0                     l2564:
  3321  05F0  3000               	movlw	0
  3322  05F1  00A3               	movwf	___fladd@b+3
  3323  05F2  3000               	movlw	0
  3324  05F3  00A2               	movwf	___fladd@b+2
  3325  05F4  3000               	movlw	0
  3326  05F5  00A1               	movwf	___fladd@b+1
  3327  05F6  3000               	movlw	0
  3328  05F7  00A0               	movwf	___fladd@b
  3329  05F8                     l2566:
  3330  05F8  0875               	movf	___fladd@bexp,w
  3331  05F9  1D03               	btfss	3,2
  3332  05FA  2DFC               	goto	u3331
  3333  05FB  2DFD               	goto	u3330
  3334  05FC                     u3331:
  3335  05FC  2DFE               	goto	l2570
  3336  05FD                     u3330:
  3337  05FD                     l2568:
  3338  05FD  01F3               	clrf	___fladd@signs
  3339  05FE                     l2570:
  3340  05FE  1C75               	btfss	___fladd@bexp,0
  3341  05FF  2E01               	goto	u3341
  3342  0600  2E02               	goto	u3340
  3343  0601                     u3341:
  3344  0601  2E04               	goto	l2574
  3345  0602                     u3340:
  3346  0602                     l2572:
  3347  0602  17A2               	bsf	___fladd@b+2,7
  3348  0603  2E08               	goto	l621
  3349  0604                     l2574:
  3350  0604  307F               	movlw	127
  3351  0605  00A8               	movwf	??___fladd
  3352  0606  0828               	movf	??___fladd,w
  3353  0607  05A2               	andwf	___fladd@b+2,f
  3354  0608                     l621:
  3355  0608  0875               	movf	___fladd@bexp,w
  3356  0609  00A8               	movwf	??___fladd
  3357  060A  1003               	clrc
  3358  060B  0C28               	rrf	??___fladd,w
  3359  060C  00A9               	movwf	??___fladd+1
  3360  060D  0829               	movf	??___fladd+1,w
  3361  060E  00A3               	movwf	___fladd@b+3
  3362  060F                     l2576:
  3363  060F  1FF3               	btfss	___fladd@signs,7
  3364  0610  2E12               	goto	u3351
  3365  0611  2E13               	goto	u3350
  3366  0612                     u3351:
  3367  0612  2E14               	goto	l622
  3368  0613                     u3350:
  3369  0613                     l2578:
  3370  0613  17A3               	bsf	___fladd@b+3,7
  3371  0614                     l622:
  3372  0614                     l592:
  3373  0614  0008               	return
  3374  0615                     __end_of___fladd:
  3375                           
  3376                           	psect	text12
  3377  0DED                     __ptext12:	
  3378 ;; *************** function _initLCD *****************
  3379 ;; Defined at:
  3380 ;;		line 20 in file "LCDD2.c"
  3381 ;; Parameters:    Size  Location     Type
  3382 ;;		None
  3383 ;; Auto vars:     Size  Location     Type
  3384 ;;		None
  3385 ;; Return value:  Size  Location     Type
  3386 ;;                  1    wreg      void 
  3387 ;; Registers used:
  3388 ;;		wreg, status,2, status,0, pclath, cstack
  3389 ;; Tracked objects:
  3390 ;;		On entry : 0/0
  3391 ;;		On exit  : 0/0
  3392 ;;		Unchanged: 0/0
  3393 ;; Data sizes:     COMMON   BANK0   BANK1   BANK3   BANK2
  3394 ;;      Params:         0       0       0       0       0
  3395 ;;      Locals:         0       0       0       0       0
  3396 ;;      Temps:          2       0       0       0       0
  3397 ;;      Totals:         2       0       0       0       0
  3398 ;;Total ram usage:        2 bytes
  3399 ;; Hardware stack levels used:    1
  3400 ;; Hardware stack levels required when called:    2
  3401 ;; This function calls:
  3402 ;;		_comandoLCD
  3403 ;; This function is called by:
  3404 ;;		_main
  3405 ;; This function uses a non-reentrant model
  3406 ;;
  3407                           
  3408                           
  3409                           ;psect for function _initLCD
  3410  0DED                     _initLCD:
  3411  0DED                     l2184:	
  3412                           ;incstack = 0
  3413                           ; Regs used in _initLCD: [wreg+status,2+status,0+pclath+cstack]
  3414                           
  3415                           
  3416                           ;LCDD2.c: 21:     RC0 = 0;
  3417  0DED  1283               	bcf	3,5	;RP0=0, select bank0
  3418  0DEE  1303               	bcf	3,6	;RP1=0, select bank0
  3419  0DEF  1007               	bcf	7,0	;volatile
  3420  0DF0                     l2186:
  3421                           
  3422                           ;LCDD2.c: 22:     PORTD = 0X00;
  3423  0DF0  0188               	clrf	8	;volatile
  3424  0DF1                     l2188:
  3425                           
  3426                           ;LCDD2.c: 23:     _delay((unsigned long)((50)*(8000000/4000.0)));
  3427  0DF1  3082               	movlw	130
  3428  0DF2  00F7               	movwf	??_initLCD+1
  3429  0DF3  30DD               	movlw	221
  3430  0DF4  00F6               	movwf	??_initLCD
  3431  0DF5                     u4047:
  3432  0DF5  0BF6               	decfsz	??_initLCD,f
  3433  0DF6  2DF5               	goto	u4047
  3434  0DF7  0BF7               	decfsz	??_initLCD+1,f
  3435  0DF8  2DF5               	goto	u4047
  3436  0DF9  2DFA               	nop2
  3437  0DFA                     l2190:
  3438                           
  3439                           ;LCDD2.c: 24:     comandoLCD(0X30);
  3440  0DFA  3030               	movlw	48
  3441  0DFB  120A  158A  2400  120A  158A  	fcall	_comandoLCD
  3442  0E00                     l2192:
  3443                           
  3444                           ;LCDD2.c: 25:     _delay((unsigned long)((5)*(8000000/4000.0)));
  3445  0E00  300D               	movlw	13
  3446  0E01  00F7               	movwf	??_initLCD+1
  3447  0E02  30FB               	movlw	251
  3448  0E03  00F6               	movwf	??_initLCD
  3449  0E04                     u4057:
  3450  0E04  0BF6               	decfsz	??_initLCD,f
  3451  0E05  2E04               	goto	u4057
  3452  0E06  0BF7               	decfsz	??_initLCD+1,f
  3453  0E07  2E04               	goto	u4057
  3454  0E08  2E09               	nop2
  3455  0E09                     l2194:
  3456                           
  3457                           ;LCDD2.c: 26:     comandoLCD(0X30);
  3458  0E09  3030               	movlw	48
  3459  0E0A  120A  158A  2400  120A  158A  	fcall	_comandoLCD
  3460  0E0F                     l2196:
  3461                           
  3462                           ;LCDD2.c: 27:     _delay((unsigned long)((5)*(8000000/4000.0)));
  3463  0E0F  300D               	movlw	13
  3464  0E10  00F7               	movwf	??_initLCD+1
  3465  0E11  30FB               	movlw	251
  3466  0E12  00F6               	movwf	??_initLCD
  3467  0E13                     u4067:
  3468  0E13  0BF6               	decfsz	??_initLCD,f
  3469  0E14  2E13               	goto	u4067
  3470  0E15  0BF7               	decfsz	??_initLCD+1,f
  3471  0E16  2E13               	goto	u4067
  3472  0E17  2E18               	nop2
  3473  0E18                     l2198:
  3474                           
  3475                           ;LCDD2.c: 28:     comandoLCD(0X30);
  3476  0E18  3030               	movlw	48
  3477  0E19  120A  158A  2400  120A  158A  	fcall	_comandoLCD
  3478  0E1E                     l2200:
  3479                           
  3480                           ;LCDD2.c: 29:     comandoLCD(0X38);
  3481  0E1E  3038               	movlw	56
  3482  0E1F  120A  158A  2400  120A  158A  	fcall	_comandoLCD
  3483  0E24                     l2202:
  3484                           
  3485                           ;LCDD2.c: 30:     comandoLCD(0X06);
  3486  0E24  3006               	movlw	6
  3487  0E25  120A  158A  2400  120A  158A  	fcall	_comandoLCD
  3488  0E2A                     l2204:
  3489                           
  3490                           ;LCDD2.c: 31:     comandoLCD(0X0E);
  3491  0E2A  300E               	movlw	14
  3492  0E2B  120A  158A  2400  120A  158A  	fcall	_comandoLCD
  3493  0E30                     l2206:
  3494                           
  3495                           ;LCDD2.c: 32:     comandoLCD(0X01);
  3496  0E30  3001               	movlw	1
  3497  0E31  120A  158A  2400  120A  158A  	fcall	_comandoLCD
  3498  0E36                     l186:
  3499  0E36  0008               	return
  3500  0E37                     __end_of_initLCD:
  3501                           
  3502                           	psect	text13
  3503  0BDE                     __ptext13:	
  3504 ;; *************** function _dispCHAR *****************
  3505 ;; Defined at:
  3506 ;;		line 40 in file "LCDD2.c"
  3507 ;; Parameters:    Size  Location     Type
  3508 ;;  b               1    wreg     unsigned char 
  3509 ;; Auto vars:     Size  Location     Type
  3510 ;;  b               1    4[COMMON] unsigned char 
  3511 ;; Return value:  Size  Location     Type
  3512 ;;                  1    wreg      void 
  3513 ;; Registers used:
  3514 ;;		wreg
  3515 ;; Tracked objects:
  3516 ;;		On entry : 0/0
  3517 ;;		On exit  : 0/0
  3518 ;;		Unchanged: 0/0
  3519 ;; Data sizes:     COMMON   BANK0   BANK1   BANK3   BANK2
  3520 ;;      Params:         0       0       0       0       0
  3521 ;;      Locals:         1       0       0       0       0
  3522 ;;      Temps:          1       0       0       0       0
  3523 ;;      Totals:         2       0       0       0       0
  3524 ;;Total ram usage:        2 bytes
  3525 ;; Hardware stack levels used:    1
  3526 ;; Hardware stack levels required when called:    1
  3527 ;; This function calls:
  3528 ;;		Nothing
  3529 ;; This function is called by:
  3530 ;;		_main
  3531 ;; This function uses a non-reentrant model
  3532 ;;
  3533                           
  3534                           
  3535                           ;psect for function _dispCHAR
  3536  0BDE                     _dispCHAR:
  3537                           
  3538                           ;incstack = 0
  3539                           ; Regs used in _dispCHAR: [wreg]
  3540                           ;dispCHAR@b stored from wreg
  3541  0BDE  00F4               	movwf	dispCHAR@b
  3542  0BDF                     l2246:
  3543                           
  3544                           ;LCDD2.c: 42:     RC0 = 1;
  3545  0BDF  1283               	bcf	3,5	;RP0=0, select bank0
  3546  0BE0  1303               	bcf	3,6	;RP1=0, select bank0
  3547  0BE1  1407               	bsf	7,0	;volatile
  3548  0BE2                     l2248:
  3549                           
  3550                           ;LCDD2.c: 43:     PORTD = b;
  3551  0BE2  0874               	movf	dispCHAR@b,w
  3552  0BE3  0088               	movwf	8	;volatile
  3553  0BE4                     l2250:
  3554                           
  3555                           ;LCDD2.c: 44:     RC1 = 1;
  3556  0BE4  1487               	bsf	7,1	;volatile
  3557                           
  3558                           ;LCDD2.c: 45:     _delay((unsigned long)((40)*(8000000/4000000.0)));
  3559  0BE5  301A               	movlw	26
  3560  0BE6  00F3               	movwf	??_dispCHAR
  3561  0BE7                     u4077:
  3562  0BE7  0BF3               	decfsz	??_dispCHAR,f
  3563  0BE8  2BE7               	goto	u4077
  3564  0BE9  0000               	nop
  3565  0BEA                     l2252:
  3566                           
  3567                           ;LCDD2.c: 46:     RC1 = 0;
  3568  0BEA  1283               	bcf	3,5	;RP0=0, select bank0
  3569  0BEB  1303               	bcf	3,6	;RP1=0, select bank0
  3570  0BEC  1087               	bcf	7,1	;volatile
  3571  0BED                     l189:
  3572  0BED  0008               	return
  3573  0BEE                     __end_of_dispCHAR:
  3574                           
  3575                           	psect	text14
  3576  0C48                     __ptext14:	
  3577 ;; *************** function _cursorLCD *****************
  3578 ;; Defined at:
  3579 ;;		line 50 in file "LCDD2.c"
  3580 ;; Parameters:    Size  Location     Type
  3581 ;;  fila            1    wreg     unsigned char 
  3582 ;;  columna         1    6[COMMON] unsigned char 
  3583 ;; Auto vars:     Size  Location     Type
  3584 ;;  fila            1    8[COMMON] unsigned char 
  3585 ;;  temp            1    9[COMMON] unsigned char 
  3586 ;; Return value:  Size  Location     Type
  3587 ;;                  1    wreg      void 
  3588 ;; Registers used:
  3589 ;;		wreg, status,2, status,0, pclath, cstack
  3590 ;; Tracked objects:
  3591 ;;		On entry : 0/0
  3592 ;;		On exit  : 0/0
  3593 ;;		Unchanged: 0/0
  3594 ;; Data sizes:     COMMON   BANK0   BANK1   BANK3   BANK2
  3595 ;;      Params:         1       0       0       0       0
  3596 ;;      Locals:         2       0       0       0       0
  3597 ;;      Temps:          1       0       0       0       0
  3598 ;;      Totals:         4       0       0       0       0
  3599 ;;Total ram usage:        4 bytes
  3600 ;; Hardware stack levels used:    1
  3601 ;; Hardware stack levels required when called:    2
  3602 ;; This function calls:
  3603 ;;		_comandoLCD
  3604 ;; This function is called by:
  3605 ;;		_main
  3606 ;; This function uses a non-reentrant model
  3607 ;;
  3608                           
  3609                           
  3610                           ;psect for function _cursorLCD
  3611  0C48                     _cursorLCD:
  3612                           
  3613                           ;incstack = 0
  3614                           ; Regs used in _cursorLCD: [wreg+status,2+status,0+pclath+cstack]
  3615                           ;cursorLCD@fila stored from wreg
  3616  0C48  00F8               	movwf	cursorLCD@fila
  3617  0C49                     l2234:
  3618                           
  3619                           ;LCDD2.c: 51:     uint8_t temp;;LCDD2.c: 52:     if(fila == 1){
  3620  0C49  0378               	decf	cursorLCD@fila,w
  3621  0C4A  1D03               	btfss	3,2
  3622  0C4B  2C4D               	goto	u2671
  3623  0C4C  2C4E               	goto	u2670
  3624  0C4D                     u2671:
  3625  0C4D  2C59               	goto	l2240
  3626  0C4E                     u2670:
  3627  0C4E                     l2236:
  3628                           
  3629                           ;LCDD2.c: 53:         temp = 0X80 + columna - 1;
  3630  0C4E  0876               	movf	cursorLCD@columna,w
  3631  0C4F  3E7F               	addlw	127
  3632  0C50  00F7               	movwf	??_cursorLCD
  3633  0C51  0877               	movf	??_cursorLCD,w
  3634  0C52  00F9               	movwf	cursorLCD@temp
  3635  0C53                     l2238:
  3636                           
  3637                           ;LCDD2.c: 54:         comandoLCD(temp);
  3638  0C53  0879               	movf	cursorLCD@temp,w
  3639  0C54  120A  158A  2400  120A  158A  	fcall	_comandoLCD
  3640  0C59                     l2240:
  3641                           
  3642                           ;LCDD2.c: 57:     if(fila == 2){
  3643  0C59  3002               	movlw	2
  3644  0C5A  0678               	xorwf	cursorLCD@fila,w
  3645  0C5B  1D03               	btfss	3,2
  3646  0C5C  2C5E               	goto	u2681
  3647  0C5D  2C5F               	goto	u2680
  3648  0C5E                     u2681:
  3649  0C5E  2C6A               	goto	l194
  3650  0C5F                     u2680:
  3651  0C5F                     l2242:
  3652                           
  3653                           ;LCDD2.c: 58:         temp = 0XC0 + columna -1;
  3654  0C5F  0876               	movf	cursorLCD@columna,w
  3655  0C60  3EBF               	addlw	191
  3656  0C61  00F7               	movwf	??_cursorLCD
  3657  0C62  0877               	movf	??_cursorLCD,w
  3658  0C63  00F9               	movwf	cursorLCD@temp
  3659  0C64                     l2244:
  3660                           
  3661                           ;LCDD2.c: 59:         comandoLCD(temp);
  3662  0C64  0879               	movf	cursorLCD@temp,w
  3663  0C65  120A  158A  2400  120A  158A  	fcall	_comandoLCD
  3664  0C6A                     l194:
  3665  0C6A  0008               	return
  3666  0C6B                     __end_of_cursorLCD:
  3667                           
  3668                           	psect	text15
  3669  0CE9                     __ptext15:	
  3670 ;; *************** function _configuracion *****************
  3671 ;; Defined at:
  3672 ;;		line 100 in file "main.c"
  3673 ;; Parameters:    Size  Location     Type
  3674 ;;		None
  3675 ;; Auto vars:     Size  Location     Type
  3676 ;;		None
  3677 ;; Return value:  Size  Location     Type
  3678 ;;                  1    wreg      void 
  3679 ;; Registers used:
  3680 ;;		wreg, fsr0l, fsr0h, status,2, status,0, pclath, cstack
  3681 ;; Tracked objects:
  3682 ;;		On entry : 0/0
  3683 ;;		On exit  : 0/0
  3684 ;;		Unchanged: 0/0
  3685 ;; Data sizes:     COMMON   BANK0   BANK1   BANK3   BANK2
  3686 ;;      Params:         0       0       0       0       0
  3687 ;;      Locals:         0       0       0       0       0
  3688 ;;      Temps:          0       0       0       0       0
  3689 ;;      Totals:         0       0       0       0       0
  3690 ;;Total ram usage:        0 bytes
  3691 ;; Hardware stack levels used:    1
  3692 ;; Hardware stack levels required when called:    2
  3693 ;; This function calls:
  3694 ;;		_ADCconfig
  3695 ;;		_configUART
  3696 ;; This function is called by:
  3697 ;;		_main
  3698 ;; This function uses a non-reentrant model
  3699 ;;
  3700                           
  3701                           
  3702                           ;psect for function _configuracion
  3703  0CE9                     _configuracion:
  3704  0CE9                     l2146:	
  3705                           ;incstack = 0
  3706                           ; Regs used in _configuracion: [wreg-fsr0h+status,2+status,0+pclath+cstack]
  3707                           
  3708                           
  3709                           ;main.c: 102:     ANSEL = 0X03;
  3710  0CE9  3003               	movlw	3
  3711  0CEA  1683               	bsf	3,5	;RP0=1, select bank3
  3712  0CEB  1703               	bsf	3,6	;RP1=1, select bank3
  3713  0CEC  0088               	movwf	8	;volatile
  3714  0CED                     l2148:
  3715                           
  3716                           ;main.c: 103:     ANSELH = 0X00;
  3717  0CED  0189               	clrf	9	;volatile
  3718  0CEE                     l2150:
  3719                           
  3720                           ;main.c: 104:     TRISA = 0X03;
  3721  0CEE  3003               	movlw	3
  3722  0CEF  1683               	bsf	3,5	;RP0=1, select bank1
  3723  0CF0  1303               	bcf	3,6	;RP1=0, select bank1
  3724  0CF1  0085               	movwf	5	;volatile
  3725                           
  3726                           ;main.c: 105:     TRISB = 0X00;
  3727  0CF2  0186               	clrf	6	;volatile
  3728                           
  3729                           ;main.c: 106:     TRISC = 0X00;
  3730  0CF3  0187               	clrf	7	;volatile
  3731                           
  3732                           ;main.c: 107:     TRISD = 0X00;
  3733  0CF4  0188               	clrf	8	;volatile
  3734                           
  3735                           ;main.c: 108:     TRISE = 0X00;
  3736  0CF5  0189               	clrf	9	;volatile
  3737                           
  3738                           ;main.c: 109:     PORTA = 0X00;
  3739  0CF6  1283               	bcf	3,5	;RP0=0, select bank0
  3740  0CF7  1303               	bcf	3,6	;RP1=0, select bank0
  3741  0CF8  0185               	clrf	5	;volatile
  3742                           
  3743                           ;main.c: 110:     PORTB = 0X00;
  3744  0CF9  0186               	clrf	6	;volatile
  3745                           
  3746                           ;main.c: 111:     PORTC = 0X00;
  3747  0CFA  0187               	clrf	7	;volatile
  3748                           
  3749                           ;main.c: 112:     PORTD = 0X00;
  3750  0CFB  0188               	clrf	8	;volatile
  3751                           
  3752                           ;main.c: 113:     PORTE = 0X00;
  3753  0CFC  0189               	clrf	9	;volatile
  3754  0CFD                     l2152:
  3755                           
  3756                           ;main.c: 116:     configUART();
  3757  0CFD  120A  158A  23EE  120A  158A  	fcall	_configUART
  3758  0D02                     l2154:
  3759                           
  3760                           ;main.c: 119:     OSCCONbits.IRCF = 0b111;
  3761  0D02  3070               	movlw	112
  3762  0D03  1683               	bsf	3,5	;RP0=1, select bank1
  3763  0D04  1303               	bcf	3,6	;RP1=0, select bank1
  3764  0D05  048F               	iorwf	15,f	;volatile
  3765  0D06                     l2156:
  3766                           
  3767                           ;main.c: 120:     OSCCONbits.SCS = 0b1;
  3768  0D06  140F               	bsf	15,0	;volatile
  3769  0D07                     l2158:
  3770                           
  3771                           ;main.c: 123:     INTCONbits.GIE = 1;
  3772  0D07  178B               	bsf	11,7	;volatile
  3773  0D08                     l2160:
  3774                           
  3775                           ;main.c: 124:     INTCONbits.PEIE = 1;
  3776  0D08  170B               	bsf	11,6	;volatile
  3777  0D09                     l2162:
  3778                           
  3779                           ;main.c: 125:     INTCONbits.T0IF = 0;
  3780  0D09  110B               	bcf	11,2	;volatile
  3781  0D0A                     l2164:
  3782                           
  3783                           ;main.c: 126:     INTCONbits.T0IE = 1;
  3784  0D0A  168B               	bsf	11,5	;volatile
  3785  0D0B                     l2166:
  3786                           
  3787                           ;main.c: 127:     PIE1bits.RCIE = 1;
  3788  0D0B  168C               	bsf	12,5	;volatile
  3789  0D0C                     l2168:
  3790                           
  3791                           ;main.c: 130:     OPTION_REGbits.T0CS = 0;
  3792  0D0C  1281               	bcf	1,5	;volatile
  3793  0D0D                     l2170:
  3794                           
  3795                           ;main.c: 131:     OPTION_REGbits.PSA = 0;
  3796  0D0D  1181               	bcf	1,3	;volatile
  3797  0D0E                     l2172:
  3798                           
  3799                           ;main.c: 132:     OPTION_REGbits.PS2 = 1;
  3800  0D0E  1501               	bsf	1,2	;volatile
  3801  0D0F                     l2174:
  3802                           
  3803                           ;main.c: 133:     OPTION_REGbits.PS1 = 1;
  3804  0D0F  1481               	bsf	1,1	;volatile
  3805  0D10                     l2176:
  3806                           
  3807                           ;main.c: 134:     OPTION_REGbits.PS0 = 0;
  3808  0D10  1001               	bcf	1,0	;volatile
  3809  0D11                     l2178:
  3810                           
  3811                           ;main.c: 139:     ADCconfig(0,0);
  3812  0D11  01F3               	clrf	ADCconfig@just
  3813  0D12  3000               	movlw	0
  3814  0D13  120A  158A  2560  120A  158A  	fcall	_ADCconfig
  3815  0D18                     l2180:
  3816                           
  3817                           ;main.c: 141:     PIR1bits.ADIF = 0;
  3818  0D18  1283               	bcf	3,5	;RP0=0, select bank0
  3819  0D19  1303               	bcf	3,6	;RP1=0, select bank0
  3820  0D1A  130C               	bcf	12,6	;volatile
  3821  0D1B                     l2182:
  3822                           
  3823                           ;main.c: 142:     PIE1bits.ADIE = 1;
  3824  0D1B  1683               	bsf	3,5	;RP0=1, select bank1
  3825  0D1C  1303               	bcf	3,6	;RP1=0, select bank1
  3826  0D1D  170C               	bsf	12,6	;volatile
  3827  0D1E                     l102:
  3828  0D1E  0008               	return
  3829  0D1F                     __end_of_configuracion:
  3830                           
  3831                           	psect	text16
  3832  0BEE                     __ptext16:	
  3833 ;; *************** function _configUART *****************
  3834 ;; Defined at:
  3835 ;;		line 11 in file "ComSerial.c"
  3836 ;; Parameters:    Size  Location     Type
  3837 ;;		None
  3838 ;; Auto vars:     Size  Location     Type
  3839 ;;		None
  3840 ;; Return value:  Size  Location     Type
  3841 ;;                  1    wreg      void 
  3842 ;; Registers used:
  3843 ;;		wreg
  3844 ;; Tracked objects:
  3845 ;;		On entry : 0/0
  3846 ;;		On exit  : 0/0
  3847 ;;		Unchanged: 0/0
  3848 ;; Data sizes:     COMMON   BANK0   BANK1   BANK3   BANK2
  3849 ;;      Params:         0       0       0       0       0
  3850 ;;      Locals:         0       0       0       0       0
  3851 ;;      Temps:          0       0       0       0       0
  3852 ;;      Totals:         0       0       0       0       0
  3853 ;;Total ram usage:        0 bytes
  3854 ;; Hardware stack levels used:    1
  3855 ;; Hardware stack levels required when called:    1
  3856 ;; This function calls:
  3857 ;;		Nothing
  3858 ;; This function is called by:
  3859 ;;		_configuracion
  3860 ;; This function uses a non-reentrant model
  3861 ;;
  3862                           
  3863                           
  3864                           ;psect for function _configUART
  3865  0BEE                     _configUART:
  3866  0BEE                     l1838:	
  3867                           ;incstack = 0
  3868                           ; Regs used in _configUART: [wreg]
  3869                           
  3870                           
  3871                           ;ComSerial.c: 13:     TRISCbits.TRISC6 = 0;
  3872  0BEE  1683               	bsf	3,5	;RP0=1, select bank1
  3873  0BEF  1303               	bcf	3,6	;RP1=0, select bank1
  3874  0BF0  1307               	bcf	7,6	;volatile
  3875                           
  3876                           ;ComSerial.c: 14:     TRISCbits.TRISC7 = 1;
  3877  0BF1  1787               	bsf	7,7	;volatile
  3878  0BF2                     l1840:
  3879                           
  3880                           ;ComSerial.c: 15:     SPBRG = 12;
  3881  0BF2  300C               	movlw	12
  3882  0BF3  0099               	movwf	25	;volatile
  3883  0BF4                     l1842:
  3884                           
  3885                           ;ComSerial.c: 16:     TXSTAbits.BRGH = 0;
  3886  0BF4  1118               	bcf	24,2	;volatile
  3887  0BF5                     l1844:
  3888                           
  3889                           ;ComSerial.c: 17:     TXSTAbits.TXEN = 1;
  3890  0BF5  1698               	bsf	24,5	;volatile
  3891  0BF6                     l1846:
  3892                           
  3893                           ;ComSerial.c: 18:     RCSTAbits.CREN = 1;
  3894  0BF6  1283               	bcf	3,5	;RP0=0, select bank0
  3895  0BF7  1303               	bcf	3,6	;RP1=0, select bank0
  3896  0BF8  1618               	bsf	24,4	;volatile
  3897  0BF9                     l1848:
  3898                           
  3899                           ;ComSerial.c: 19:     TXSTAbits.SYNC = 0;
  3900  0BF9  1683               	bsf	3,5	;RP0=1, select bank1
  3901  0BFA  1303               	bcf	3,6	;RP1=0, select bank1
  3902  0BFB  1218               	bcf	24,4	;volatile
  3903  0BFC                     l1850:
  3904                           
  3905                           ;ComSerial.c: 20:     RCSTAbits.SPEN = 1;
  3906  0BFC  1283               	bcf	3,5	;RP0=0, select bank0
  3907  0BFD  1303               	bcf	3,6	;RP1=0, select bank0
  3908  0BFE  1798               	bsf	24,7	;volatile
  3909  0BFF                     l140:
  3910  0BFF  0008               	return
  3911  0C00                     __end_of_configUART:
  3912                           
  3913                           	psect	text17
  3914  0D60                     __ptext17:	
  3915 ;; *************** function _ADCconfig *****************
  3916 ;; Defined at:
  3917 ;;		line 10 in file "ADC.c"
  3918 ;; Parameters:    Size  Location     Type
  3919 ;;  canal           1    wreg     unsigned char 
  3920 ;;  just            1    3[COMMON] unsigned char 
  3921 ;; Auto vars:     Size  Location     Type
  3922 ;;  canal           1    6[COMMON] unsigned char 
  3923 ;; Return value:  Size  Location     Type
  3924 ;;                  1    wreg      void 
  3925 ;; Registers used:
  3926 ;;		wreg, fsr0l, fsr0h, status,2, status,0
  3927 ;; Tracked objects:
  3928 ;;		On entry : 0/0
  3929 ;;		On exit  : 0/0
  3930 ;;		Unchanged: 0/0
  3931 ;; Data sizes:     COMMON   BANK0   BANK1   BANK3   BANK2
  3932 ;;      Params:         1       0       0       0       0
  3933 ;;      Locals:         1       0       0       0       0
  3934 ;;      Temps:          2       0       0       0       0
  3935 ;;      Totals:         4       0       0       0       0
  3936 ;;Total ram usage:        4 bytes
  3937 ;; Hardware stack levels used:    1
  3938 ;; Hardware stack levels required when called:    1
  3939 ;; This function calls:
  3940 ;;		Nothing
  3941 ;; This function is called by:
  3942 ;;		_configuracion
  3943 ;; This function uses a non-reentrant model
  3944 ;;
  3945                           
  3946                           
  3947                           ;psect for function _ADCconfig
  3948  0D60                     _ADCconfig:
  3949                           
  3950                           ;incstack = 0
  3951                           ; Regs used in _ADCconfig: [wreg-fsr0h+status,2+status,0]
  3952                           ;ADCconfig@canal stored from wreg
  3953  0D60  00F6               	movwf	ADCconfig@canal
  3954  0D61                     l1852:
  3955                           
  3956                           ;ADC.c: 15:     switch(OSCCONbits.IRCF){
  3957  0D61  2D7A               	goto	l1864
  3958  0D62                     l1854:
  3959                           
  3960                           ;ADC.c: 17:             ADCON0bits.ADCS = 0b000;
  3961  0D62  303F               	movlw	-193
  3962  0D63  1283               	bcf	3,5	;RP0=0, select bank0
  3963  0D64  1303               	bcf	3,6	;RP1=0, select bank0
  3964  0D65  059F               	andwf	31,f	;volatile
  3965                           
  3966                           ;ADC.c: 18:             break;
  3967  0D66  2D90               	goto	l1866
  3968  0D67                     l1856:
  3969                           
  3970                           ;ADC.c: 20:             ADCON0bits.ADCS = 0b001;
  3971  0D67  1283               	bcf	3,5	;RP0=0, select bank0
  3972  0D68  1303               	bcf	3,6	;RP1=0, select bank0
  3973  0D69  081F               	movf	31,w	;volatile
  3974  0D6A  393F               	andlw	-193
  3975  0D6B  3840               	iorlw	64
  3976  0D6C  009F               	movwf	31	;volatile
  3977                           
  3978                           ;ADC.c: 21:             break;
  3979  0D6D  2D90               	goto	l1866
  3980  0D6E                     l1858:
  3981                           
  3982                           ;ADC.c: 23:             ADCON0bits.ADCS = 0b010;
  3983  0D6E  1283               	bcf	3,5	;RP0=0, select bank0
  3984  0D6F  1303               	bcf	3,6	;RP1=0, select bank0
  3985  0D70  081F               	movf	31,w	;volatile
  3986  0D71  393F               	andlw	-193
  3987  0D72  3880               	iorlw	128
  3988  0D73  009F               	movwf	31	;volatile
  3989                           
  3990                           ;ADC.c: 24:             break;
  3991  0D74  2D90               	goto	l1866
  3992  0D75                     l1860:
  3993                           
  3994                           ;ADC.c: 26:             ADCON0bits.ADCS = 0b11;
  3995  0D75  30C0               	movlw	192
  3996  0D76  1283               	bcf	3,5	;RP0=0, select bank0
  3997  0D77  1303               	bcf	3,6	;RP1=0, select bank0
  3998  0D78  049F               	iorwf	31,f	;volatile
  3999                           
  4000                           ;ADC.c: 27:             break;
  4001  0D79  2D90               	goto	l1866
  4002  0D7A                     l1864:
  4003  0D7A  1683               	bsf	3,5	;RP0=1, select bank1
  4004  0D7B  1303               	bcf	3,6	;RP1=0, select bank1
  4005  0D7C  0E0F               	swapf	15,w	;volatile
  4006  0D7D  3907               	andlw	7
  4007  0D7E  00F4               	movwf	??_ADCconfig
  4008  0D7F  01F5               	clrf	??_ADCconfig+1
  4009                           
  4010                           ; Switch on 2 bytes has been partitioned into a top level switch of size 1, and 1 sub-sw
      +                          itches
  4011                           ; Switch size 1, requested type "simple"
  4012                           ; Number of cases is 1, Range of values is 0 to 0
  4013                           ; switch strategies available:
  4014                           ; Name         Instructions Cycles
  4015                           ; simple_byte            4     3 (average)
  4016                           ; direct_byte           11     8 (fixed)
  4017                           ; jumptable            260     6 (fixed)
  4018                           ;	Chosen strategy is simple_byte
  4019  0D80  0875               	movf	??_ADCconfig+1,w
  4020  0D81  3A00               	xorlw	0	; case 0
  4021  0D82  1903               	skipnz
  4022  0D83  2D85               	goto	l2918
  4023  0D84  2D75               	goto	l1860
  4024  0D85                     l2918:
  4025                           
  4026                           ; Switch size 1, requested type "simple"
  4027                           ; Number of cases is 3, Range of values is 4 to 7
  4028                           ; switch strategies available:
  4029                           ; Name         Instructions Cycles
  4030                           ; simple_byte           10     6 (average)
  4031                           ; direct_byte           23    11 (fixed)
  4032                           ; jumptable            263     9 (fixed)
  4033                           ;	Chosen strategy is simple_byte
  4034  0D85  0874               	movf	??_ADCconfig,w
  4035  0D86  3A04               	xorlw	4	; case 4
  4036  0D87  1903               	skipnz
  4037  0D88  2D62               	goto	l1854
  4038  0D89  3A02               	xorlw	2	; case 6
  4039  0D8A  1903               	skipnz
  4040  0D8B  2D67               	goto	l1856
  4041  0D8C  3A01               	xorlw	1	; case 7
  4042  0D8D  1903               	skipnz
  4043  0D8E  2D6E               	goto	l1858
  4044  0D8F  2D75               	goto	l1860
  4045  0D90                     l1866:
  4046                           
  4047                           ;ADC.c: 29:     ADCON0bits.CHS = canal;
  4048  0D90  0876               	movf	ADCconfig@canal,w
  4049  0D91  00F4               	movwf	??_ADCconfig
  4050  0D92  0DF4               	rlf	??_ADCconfig,f
  4051  0D93  0DF4               	rlf	??_ADCconfig,f
  4052  0D94  081F               	movf	31,w	;volatile
  4053  0D95  0674               	xorwf	??_ADCconfig,w
  4054  0D96  39C3               	andlw	-61
  4055  0D97  0674               	xorwf	??_ADCconfig,w
  4056  0D98  009F               	movwf	31	;volatile
  4057  0D99                     l1868:
  4058                           
  4059                           ;ADC.c: 30:     ADCON0bits.GO = 0b0;
  4060  0D99  109F               	bcf	31,1	;volatile
  4061  0D9A                     l1870:
  4062                           
  4063                           ;ADC.c: 31:     ADCON0bits.ADON = 0b1;
  4064  0D9A  141F               	bsf	31,0	;volatile
  4065  0D9B                     l1872:
  4066                           
  4067                           ;ADC.c: 32:     ADCON1bits.ADFM = just;
  4068  0D9B  0C73               	rrf	ADCconfig@just,w
  4069  0D9C  1683               	bsf	3,5	;RP0=1, select bank1
  4070  0D9D  1303               	bcf	3,6	;RP1=0, select bank1
  4071  0D9E  1C03               	skipc
  4072  0D9F  139F               	bcf	31,7	;volatile
  4073  0DA0  1803               	skipnc
  4074  0DA1  179F               	bsf	31,7	;volatile
  4075  0DA2                     l1874:
  4076                           
  4077                           ;ADC.c: 33:     ADCON1bits.VCFG1 = 0b0;
  4078  0DA2  129F               	bcf	31,5	;volatile
  4079  0DA3                     l1876:
  4080                           
  4081                           ;ADC.c: 34:     ADCON1bits.VCFG0 = 0b0;
  4082  0DA3  121F               	bcf	31,4	;volatile
  4083  0DA4                     l117:
  4084  0DA4  0008               	return
  4085  0DA5                     __end_of_ADCconfig:
  4086                           
  4087                           	psect	text18
  4088  07F7                     __ptext18:	
  4089 ;; *************** function _ClearLCD *****************
  4090 ;; Defined at:
  4091 ;;		line 71 in file "LCDD2.c"
  4092 ;; Parameters:    Size  Location     Type
  4093 ;;		None
  4094 ;; Auto vars:     Size  Location     Type
  4095 ;;		None
  4096 ;; Return value:  Size  Location     Type
  4097 ;;                  1    wreg      void 
  4098 ;; Registers used:
  4099 ;;		wreg, status,2, status,0, pclath, cstack
  4100 ;; Tracked objects:
  4101 ;;		On entry : 0/0
  4102 ;;		On exit  : 0/0
  4103 ;;		Unchanged: 0/0
  4104 ;; Data sizes:     COMMON   BANK0   BANK1   BANK3   BANK2
  4105 ;;      Params:         0       0       0       0       0
  4106 ;;      Locals:         0       0       0       0       0
  4107 ;;      Temps:          0       0       0       0       0
  4108 ;;      Totals:         0       0       0       0       0
  4109 ;;Total ram usage:        0 bytes
  4110 ;; Hardware stack levels used:    1
  4111 ;; Hardware stack levels required when called:    2
  4112 ;; This function calls:
  4113 ;;		_comandoLCD
  4114 ;; This function is called by:
  4115 ;;		_main
  4116 ;; This function uses a non-reentrant model
  4117 ;;
  4118                           
  4119                           
  4120                           ;psect for function _ClearLCD
  4121  07F7                     _ClearLCD:
  4122  07F7                     l2232:	
  4123                           ;incstack = 0
  4124                           ; Regs used in _ClearLCD: [wreg+status,2+status,0+pclath+cstack]
  4125                           
  4126                           
  4127                           ;LCDD2.c: 72:     comandoLCD(0X01);
  4128  07F7  3001               	movlw	1
  4129  07F8  120A  158A  2400  120A  118A  	fcall	_comandoLCD
  4130  07FD                     l200:
  4131  07FD  0008               	return
  4132  07FE                     __end_of_ClearLCD:
  4133                           
  4134                           	psect	text19
  4135  0C00                     __ptext19:	
  4136 ;; *************** function _comandoLCD *****************
  4137 ;; Defined at:
  4138 ;;		line 63 in file "LCDD2.c"
  4139 ;; Parameters:    Size  Location     Type
  4140 ;;  cmd             1    wreg     unsigned char 
  4141 ;; Auto vars:     Size  Location     Type
  4142 ;;  cmd             1    5[COMMON] unsigned char 
  4143 ;; Return value:  Size  Location     Type
  4144 ;;                  1    wreg      void 
  4145 ;; Registers used:
  4146 ;;		wreg
  4147 ;; Tracked objects:
  4148 ;;		On entry : 0/0
  4149 ;;		On exit  : 0/0
  4150 ;;		Unchanged: 0/0
  4151 ;; Data sizes:     COMMON   BANK0   BANK1   BANK3   BANK2
  4152 ;;      Params:         0       0       0       0       0
  4153 ;;      Locals:         1       0       0       0       0
  4154 ;;      Temps:          2       0       0       0       0
  4155 ;;      Totals:         3       0       0       0       0
  4156 ;;Total ram usage:        3 bytes
  4157 ;; Hardware stack levels used:    1
  4158 ;; Hardware stack levels required when called:    1
  4159 ;; This function calls:
  4160 ;;		Nothing
  4161 ;; This function is called by:
  4162 ;;		_initLCD
  4163 ;;		_cursorLCD
  4164 ;;		_ClearLCD
  4165 ;; This function uses a non-reentrant model
  4166 ;;
  4167                           
  4168                           
  4169                           ;psect for function _comandoLCD
  4170  0C00                     _comandoLCD:
  4171                           
  4172                           ;incstack = 0
  4173                           ; Regs used in _comandoLCD: [wreg]
  4174                           ;comandoLCD@cmd stored from wreg
  4175  0C00  00F5               	movwf	comandoLCD@cmd
  4176  0C01                     l1912:
  4177                           
  4178                           ;LCDD2.c: 64:     RC0 = 0;
  4179  0C01  1283               	bcf	3,5	;RP0=0, select bank0
  4180  0C02  1303               	bcf	3,6	;RP1=0, select bank0
  4181  0C03  1007               	bcf	7,0	;volatile
  4182  0C04                     l1914:
  4183                           
  4184                           ;LCDD2.c: 65:     PORTD = cmd;
  4185  0C04  0875               	movf	comandoLCD@cmd,w
  4186  0C05  0088               	movwf	8	;volatile
  4187  0C06                     l1916:
  4188                           
  4189                           ;LCDD2.c: 66:     RC1 = 1;
  4190  0C06  1487               	bsf	7,1	;volatile
  4191                           
  4192                           ;LCDD2.c: 67:     _delay((unsigned long)((4)*(8000000/4000.0)));
  4193  0C07  300B               	movlw	11
  4194  0C08  00F4               	movwf	??_comandoLCD+1
  4195  0C09  3062               	movlw	98
  4196  0C0A  00F3               	movwf	??_comandoLCD
  4197  0C0B                     u4087:
  4198  0C0B  0BF3               	decfsz	??_comandoLCD,f
  4199  0C0C  2C0B               	goto	u4087
  4200  0C0D  0BF4               	decfsz	??_comandoLCD+1,f
  4201  0C0E  2C0B               	goto	u4087
  4202  0C0F  0000               	nop
  4203  0C10                     l1918:
  4204                           
  4205                           ;LCDD2.c: 68:     RC1 = 0;
  4206  0C10  1283               	bcf	3,5	;RP0=0, select bank0
  4207  0C11  1303               	bcf	3,6	;RP1=0, select bank0
  4208  0C12  1087               	bcf	7,1	;volatile
  4209  0C13                     l197:
  4210  0C13  0008               	return
  4211  0C14                     __end_of_comandoLCD:
  4212                           
  4213                           	psect	text20
  4214  0D1F                     __ptext20:	
  4215 ;; *************** function _CONVdec *****************
  4216 ;; Defined at:
  4217 ;;		line 52 in file "ADC.c"
  4218 ;; Parameters:    Size  Location     Type
  4219 ;;  lectura         1    wreg     PTR unsigned char 
  4220 ;;		 -> pot2(1), pot1(1), 
  4221 ;;  equiv           1   36[BANK0 ] PTR float 
  4222 ;;		 -> val2(4), val1(4), 
  4223 ;; Auto vars:     Size  Location     Type
  4224 ;;  lectura         1    7[COMMON] PTR unsigned char 
  4225 ;;		 -> pot2(1), pot1(1), 
  4226 ;; Return value:  Size  Location     Type
  4227 ;;                  1    wreg      void 
  4228 ;; Registers used:
  4229 ;;		wreg, fsr0l, fsr0h, status,2, status,0, btemp+1, pclath, cstack
  4230 ;; Tracked objects:
  4231 ;;		On entry : 0/0
  4232 ;;		On exit  : 0/0
  4233 ;;		Unchanged: 0/0
  4234 ;; Data sizes:     COMMON   BANK0   BANK1   BANK3   BANK2
  4235 ;;      Params:         0       1       0       0       0
  4236 ;;      Locals:         1       0       0       0       0
  4237 ;;      Temps:          0       4       0       0       0
  4238 ;;      Totals:         1       5       0       0       0
  4239 ;;Total ram usage:        6 bytes
  4240 ;; Hardware stack levels used:    1
  4241 ;; Hardware stack levels required when called:    3
  4242 ;; This function calls:
  4243 ;;		___flmul
  4244 ;;		___xxtofl
  4245 ;; This function is called by:
  4246 ;;		_main
  4247 ;; This function uses a non-reentrant model
  4248 ;;
  4249                           
  4250                           
  4251                           ;psect for function _CONVdec
  4252  0D1F                     _CONVdec:
  4253                           
  4254                           ;incstack = 0
  4255                           ; Regs used in _CONVdec: [wreg-fsr0h+status,2+status,0+btemp+1+pclath+cstack]
  4256                           ;CONVdec@lectura stored from wreg
  4257  0D1F  00F7               	movwf	CONVdec@lectura
  4258  0D20                     l2850:
  4259                           
  4260                           ;ADC.c: 54:     *equiv = (float)(0.01961)*(*lectura);
  4261  0D20  303C               	movlw	60
  4262  0D21  1283               	bcf	3,5	;RP0=0, select bank0
  4263  0D22  1303               	bcf	3,6	;RP1=0, select bank0
  4264  0D23  00AD               	movwf	___flmul@b+3
  4265  0D24  30A0               	movlw	160
  4266  0D25  00AC               	movwf	___flmul@b+2
  4267  0D26  30A5               	movlw	165
  4268  0D27  00AB               	movwf	___flmul@b+1
  4269  0D28  3027               	movlw	39
  4270  0D29  00AA               	movwf	___flmul@b
  4271  0D2A  0877               	movf	CONVdec@lectura,w
  4272  0D2B  0084               	movwf	4
  4273  0D2C  1383               	bcf	3,7	;select IRP bank0
  4274  0D2D  0800               	movf	0,w
  4275  0D2E  00C5               	movwf	??_CONVdec
  4276  0D2F  01C6               	clrf	??_CONVdec+1
  4277  0D30  01C7               	clrf	??_CONVdec+2
  4278  0D31  01C8               	clrf	??_CONVdec+3
  4279  0D32  0848               	movf	??_CONVdec+3,w
  4280  0D33  00F6               	movwf	___xxtofl@val+3
  4281  0D34  0847               	movf	??_CONVdec+2,w
  4282  0D35  00F5               	movwf	___xxtofl@val+2
  4283  0D36  0846               	movf	??_CONVdec+1,w
  4284  0D37  00F4               	movwf	___xxtofl@val+1
  4285  0D38  0845               	movf	??_CONVdec,w
  4286  0D39  00F3               	movwf	___xxtofl@val
  4287  0D3A  3001               	movlw	1
  4288  0D3B  120A  118A  2615  120A  158A  	fcall	___xxtofl
  4289  0D40  0876               	movf	?___xxtofl+3,w
  4290  0D41  1283               	bcf	3,5	;RP0=0, select bank0
  4291  0D42  1303               	bcf	3,6	;RP1=0, select bank0
  4292  0D43  00B1               	movwf	___flmul@a+3
  4293  0D44  0875               	movf	?___xxtofl+2,w
  4294  0D45  00B0               	movwf	___flmul@a+2
  4295  0D46  0874               	movf	?___xxtofl+1,w
  4296  0D47  00AF               	movwf	___flmul@a+1
  4297  0D48  0873               	movf	?___xxtofl,w
  4298  0D49  00AE               	movwf	___flmul@a
  4299  0D4A  120A  118A  2024  120A  158A  	fcall	___flmul
  4300  0D4F  1283               	bcf	3,5	;RP0=0, select bank0
  4301  0D50  1303               	bcf	3,6	;RP1=0, select bank0
  4302  0D51  0844               	movf	CONVdec@equiv,w
  4303  0D52  0084               	movwf	4
  4304  0D53  082A               	movf	?___flmul,w
  4305  0D54  1383               	bcf	3,7	;select IRP bank0
  4306  0D55  0080               	movwf	0
  4307  0D56  0A84               	incf	4,f
  4308  0D57  082B               	movf	?___flmul+1,w
  4309  0D58  0080               	movwf	0
  4310  0D59  0A84               	incf	4,f
  4311  0D5A  082C               	movf	?___flmul+2,w
  4312  0D5B  0080               	movwf	0
  4313  0D5C  0A84               	incf	4,f
  4314  0D5D  082D               	movf	?___flmul+3,w
  4315  0D5E  0080               	movwf	0
  4316  0D5F                     l123:
  4317  0D5F  0008               	return
  4318  0D60                     __end_of_CONVdec:
  4319                           
  4320                           	psect	text21
  4321  0615                     __ptext21:	
  4322 ;; *************** function ___xxtofl *****************
  4323 ;; Defined at:
  4324 ;;		line 10 in file "C:\Program Files\Microchip\xc8\v2.31\pic\sources\c90\common\xxtofl.c"
  4325 ;; Parameters:    Size  Location     Type
  4326 ;;  sign            1    wreg     unsigned char 
  4327 ;;  val             4    3[COMMON] long 
  4328 ;; Auto vars:     Size  Location     Type
  4329 ;;  sign            1    4[BANK0 ] unsigned char 
  4330 ;;  arg             4    6[BANK0 ] unsigned long 
  4331 ;;  exp             1    5[BANK0 ] unsigned char 
  4332 ;; Return value:  Size  Location     Type
  4333 ;;                  4    3[COMMON] unsigned char 
  4334 ;; Registers used:
  4335 ;;		wreg, status,2, status,0
  4336 ;; Tracked objects:
  4337 ;;		On entry : 0/0
  4338 ;;		On exit  : 0/0
  4339 ;;		Unchanged: 0/0
  4340 ;; Data sizes:     COMMON   BANK0   BANK1   BANK3   BANK2
  4341 ;;      Params:         4       0       0       0       0
  4342 ;;      Locals:         0       6       0       0       0
  4343 ;;      Temps:          0       4       0       0       0
  4344 ;;      Totals:         4      10       0       0       0
  4345 ;;Total ram usage:       14 bytes
  4346 ;; Hardware stack levels used:    1
  4347 ;; Hardware stack levels required when called:    1
  4348 ;; This function calls:
  4349 ;;		Nothing
  4350 ;; This function is called by:
  4351 ;;		_CONVdec
  4352 ;;		_sendfloat
  4353 ;; This function uses a non-reentrant model
  4354 ;;
  4355                           
  4356                           
  4357                           ;psect for function ___xxtofl
  4358  0615                     ___xxtofl:
  4359                           
  4360                           ;incstack = 0
  4361                           ; Regs used in ___xxtofl: [wreg+status,2+status,0]
  4362                           ;___xxtofl@sign stored from wreg
  4363  0615  1283               	bcf	3,5	;RP0=0, select bank0
  4364  0616  1303               	bcf	3,6	;RP1=0, select bank0
  4365  0617  00A4               	movwf	___xxtofl@sign
  4366  0618                     l2806:
  4367  0618  0824               	movf	___xxtofl@sign,w
  4368  0619  1903               	btfsc	3,2
  4369  061A  2E1C               	goto	u3891
  4370  061B  2E1D               	goto	u3890
  4371  061C                     u3891:
  4372  061C  2E31               	goto	l2812
  4373  061D                     u3890:
  4374  061D                     l2808:
  4375  061D  1FF6               	btfss	___xxtofl@val+3,7
  4376  061E  2E20               	goto	u3901
  4377  061F  2E21               	goto	u3900
  4378  0620                     u3901:
  4379  0620  2E31               	goto	l2812
  4380  0621                     u3900:
  4381  0621                     l2810:
  4382  0621  0973               	comf	___xxtofl@val,w
  4383  0622  00A6               	movwf	___xxtofl@arg
  4384  0623  0974               	comf	___xxtofl@val+1,w
  4385  0624  00A7               	movwf	___xxtofl@arg+1
  4386  0625  0975               	comf	___xxtofl@val+2,w
  4387  0626  00A8               	movwf	___xxtofl@arg+2
  4388  0627  0976               	comf	___xxtofl@val+3,w
  4389  0628  00A9               	movwf	___xxtofl@arg+3
  4390  0629  0AA6               	incf	___xxtofl@arg,f
  4391  062A  1903               	skipnz
  4392  062B  0AA7               	incf	___xxtofl@arg+1,f
  4393  062C  1903               	skipnz
  4394  062D  0AA8               	incf	___xxtofl@arg+2,f
  4395  062E  1903               	skipnz
  4396  062F  0AA9               	incf	___xxtofl@arg+3,f
  4397  0630  2E39               	goto	l719
  4398  0631                     l2812:
  4399  0631  0876               	movf	___xxtofl@val+3,w
  4400  0632  00A9               	movwf	___xxtofl@arg+3
  4401  0633  0875               	movf	___xxtofl@val+2,w
  4402  0634  00A8               	movwf	___xxtofl@arg+2
  4403  0635  0874               	movf	___xxtofl@val+1,w
  4404  0636  00A7               	movwf	___xxtofl@arg+1
  4405  0637  0873               	movf	___xxtofl@val,w
  4406  0638  00A6               	movwf	___xxtofl@arg
  4407  0639                     l719:
  4408  0639  0876               	movf	___xxtofl@val+3,w
  4409  063A  0475               	iorwf	___xxtofl@val+2,w
  4410  063B  0474               	iorwf	___xxtofl@val+1,w
  4411  063C  0473               	iorwf	___xxtofl@val,w
  4412  063D  1D03               	skipz
  4413  063E  2E40               	goto	u3911
  4414  063F  2E41               	goto	u3910
  4415  0640                     u3911:
  4416  0640  2E4A               	goto	l2818
  4417  0641                     u3910:
  4418  0641                     l2814:
  4419  0641  3000               	movlw	0
  4420  0642  00F6               	movwf	?___xxtofl+3
  4421  0643  3000               	movlw	0
  4422  0644  00F5               	movwf	?___xxtofl+2
  4423  0645  3000               	movlw	0
  4424  0646  00F4               	movwf	?___xxtofl+1
  4425  0647  3000               	movlw	0
  4426  0648  00F3               	movwf	?___xxtofl
  4427  0649  2ED0               	goto	l721
  4428  064A                     l2818:
  4429  064A  3096               	movlw	150
  4430  064B  00A0               	movwf	??___xxtofl
  4431  064C  0820               	movf	??___xxtofl,w
  4432  064D  00A5               	movwf	___xxtofl@exp
  4433  064E  2E5C               	goto	l2822
  4434  064F                     l2820:
  4435  064F  3001               	movlw	1
  4436  0650  00A0               	movwf	??___xxtofl
  4437  0651  0820               	movf	??___xxtofl,w
  4438  0652  07A5               	addwf	___xxtofl@exp,f
  4439  0653  3001               	movlw	1
  4440  0654                     u3925:
  4441  0654  1003               	clrc
  4442  0655  0CA9               	rrf	___xxtofl@arg+3,f
  4443  0656  0CA8               	rrf	___xxtofl@arg+2,f
  4444  0657  0CA7               	rrf	___xxtofl@arg+1,f
  4445  0658  0CA6               	rrf	___xxtofl@arg,f
  4446  0659  3EFF               	addlw	-1
  4447  065A  1D03               	skipz
  4448  065B  2E54               	goto	u3925
  4449  065C                     l2822:
  4450  065C  30FE               	movlw	254
  4451  065D  0529               	andwf	___xxtofl@arg+3,w
  4452  065E  1D03               	btfss	3,2
  4453  065F  2E61               	goto	u3931
  4454  0660  2E62               	goto	u3930
  4455  0661                     u3931:
  4456  0661  2E4F               	goto	l2820
  4457  0662                     u3930:
  4458  0662  2E7E               	goto	l725
  4459  0663                     l2824:
  4460  0663  3001               	movlw	1
  4461  0664  00A0               	movwf	??___xxtofl
  4462  0665  0820               	movf	??___xxtofl,w
  4463  0666  07A5               	addwf	___xxtofl@exp,f
  4464  0667                     l2826:
  4465  0667  3001               	movlw	1
  4466  0668  07A6               	addwf	___xxtofl@arg,f
  4467  0669  3000               	movlw	0
  4468  066A  1803               	skipnc
  4469  066B  3001               	movlw	1
  4470  066C  07A7               	addwf	___xxtofl@arg+1,f
  4471  066D  3000               	movlw	0
  4472  066E  1803               	skipnc
  4473  066F  3001               	movlw	1
  4474  0670  07A8               	addwf	___xxtofl@arg+2,f
  4475  0671  3000               	movlw	0
  4476  0672  1803               	skipnc
  4477  0673  3001               	movlw	1
  4478  0674  07A9               	addwf	___xxtofl@arg+3,f
  4479  0675                     l2828:
  4480  0675  3001               	movlw	1
  4481  0676                     u3945:
  4482  0676  1003               	clrc
  4483  0677  0CA9               	rrf	___xxtofl@arg+3,f
  4484  0678  0CA8               	rrf	___xxtofl@arg+2,f
  4485  0679  0CA7               	rrf	___xxtofl@arg+1,f
  4486  067A  0CA6               	rrf	___xxtofl@arg,f
  4487  067B  3EFF               	addlw	-1
  4488  067C  1D03               	skipz
  4489  067D  2E76               	goto	u3945
  4490  067E                     l725:
  4491  067E  30FF               	movlw	255
  4492  067F  0529               	andwf	___xxtofl@arg+3,w
  4493  0680  1D03               	btfss	3,2
  4494  0681  2E83               	goto	u3951
  4495  0682  2E84               	goto	u3950
  4496  0683                     u3951:
  4497  0683  2E63               	goto	l2824
  4498  0684                     u3950:
  4499  0684  2E90               	goto	l2832
  4500  0685                     l2830:
  4501  0685  3001               	movlw	1
  4502  0686  02A5               	subwf	___xxtofl@exp,f
  4503  0687  3001               	movlw	1
  4504  0688  00A0               	movwf	??___xxtofl
  4505  0689                     u3965:
  4506  0689  1003               	clrc
  4507  068A  0DA6               	rlf	___xxtofl@arg,f
  4508  068B  0DA7               	rlf	___xxtofl@arg+1,f
  4509  068C  0DA8               	rlf	___xxtofl@arg+2,f
  4510  068D  0DA9               	rlf	___xxtofl@arg+3,f
  4511  068E  0BA0               	decfsz	??___xxtofl,f
  4512  068F  2E89               	goto	u3965
  4513  0690                     l2832:
  4514  0690  1BA8               	btfsc	___xxtofl@arg+2,7
  4515  0691  2E93               	goto	u3971
  4516  0692  2E94               	goto	u3970
  4517  0693                     u3971:
  4518  0693  2E9A               	goto	l732
  4519  0694                     u3970:
  4520  0694                     l2834:
  4521  0694  3002               	movlw	2
  4522  0695  0225               	subwf	___xxtofl@exp,w
  4523  0696  1803               	skipnc
  4524  0697  2E99               	goto	u3981
  4525  0698  2E9A               	goto	u3980
  4526  0699                     u3981:
  4527  0699  2E85               	goto	l2830
  4528  069A                     u3980:
  4529  069A                     l732:
  4530  069A  1825               	btfsc	___xxtofl@exp,0
  4531  069B  2E9D               	goto	u3991
  4532  069C  2E9E               	goto	u3990
  4533  069D                     u3991:
  4534  069D  2EA6               	goto	l733
  4535  069E                     u3990:
  4536  069E                     l2836:
  4537  069E  30FF               	movlw	255
  4538  069F  05A6               	andwf	___xxtofl@arg,f
  4539  06A0  30FF               	movlw	255
  4540  06A1  05A7               	andwf	___xxtofl@arg+1,f
  4541  06A2  307F               	movlw	127
  4542  06A3  05A8               	andwf	___xxtofl@arg+2,f
  4543  06A4  30FF               	movlw	255
  4544  06A5  05A9               	andwf	___xxtofl@arg+3,f
  4545  06A6                     l733:
  4546  06A6  1003               	clrc
  4547  06A7  0CA5               	rrf	___xxtofl@exp,f
  4548  06A8                     l2838:
  4549  06A8  0825               	movf	___xxtofl@exp,w
  4550  06A9  00A0               	movwf	??___xxtofl
  4551  06AA  01A1               	clrf	??___xxtofl+1
  4552  06AB  01A2               	clrf	??___xxtofl+2
  4553  06AC  01A3               	clrf	??___xxtofl+3
  4554  06AD  3018               	movlw	24
  4555  06AE                     u4005:
  4556  06AE  1003               	clrc
  4557  06AF  0DA0               	rlf	??___xxtofl,f
  4558  06B0  0DA1               	rlf	??___xxtofl+1,f
  4559  06B1  0DA2               	rlf	??___xxtofl+2,f
  4560  06B2  0DA3               	rlf	??___xxtofl+3,f
  4561  06B3                     u4000:
  4562  06B3  3EFF               	addlw	-1
  4563  06B4  1D03               	skipz
  4564  06B5  2EAE               	goto	u4005
  4565  06B6  0820               	movf	??___xxtofl,w
  4566  06B7  04A6               	iorwf	___xxtofl@arg,f
  4567  06B8  0821               	movf	??___xxtofl+1,w
  4568  06B9  04A7               	iorwf	___xxtofl@arg+1,f
  4569  06BA  0822               	movf	??___xxtofl+2,w
  4570  06BB  04A8               	iorwf	___xxtofl@arg+2,f
  4571  06BC  0823               	movf	??___xxtofl+3,w
  4572  06BD  04A9               	iorwf	___xxtofl@arg+3,f
  4573  06BE                     l2840:
  4574  06BE  0824               	movf	___xxtofl@sign,w
  4575  06BF  1903               	btfsc	3,2
  4576  06C0  2EC2               	goto	u4011
  4577  06C1  2EC3               	goto	u4010
  4578  06C2                     u4011:
  4579  06C2  2EC8               	goto	l2846
  4580  06C3                     u4010:
  4581  06C3                     l2842:
  4582  06C3  1FF6               	btfss	___xxtofl@val+3,7
  4583  06C4  2EC6               	goto	u4021
  4584  06C5  2EC7               	goto	u4020
  4585  06C6                     u4021:
  4586  06C6  2EC8               	goto	l2846
  4587  06C7                     u4020:
  4588  06C7                     l2844:
  4589  06C7  17A9               	bsf	___xxtofl@arg+3,7
  4590  06C8                     l2846:
  4591  06C8  0829               	movf	___xxtofl@arg+3,w
  4592  06C9  00F6               	movwf	?___xxtofl+3
  4593  06CA  0828               	movf	___xxtofl@arg+2,w
  4594  06CB  00F5               	movwf	?___xxtofl+2
  4595  06CC  0827               	movf	___xxtofl@arg+1,w
  4596  06CD  00F4               	movwf	?___xxtofl+1
  4597  06CE  0826               	movf	___xxtofl@arg,w
  4598  06CF  00F3               	movwf	?___xxtofl
  4599  06D0                     l721:
  4600  06D0  0008               	return
  4601  06D1                     __end_of___xxtofl:
  4602                           
  4603                           	psect	text22
  4604  0024                     __ptext22:	
  4605 ;; *************** function ___flmul *****************
  4606 ;; Defined at:
  4607 ;;		line 8 in file "C:\Program Files\Microchip\xc8\v2.31\pic\sources\c90\common\sprcmul.c"
  4608 ;; Parameters:    Size  Location     Type
  4609 ;;  b               4   10[BANK0 ] unsigned char 
  4610 ;;  a               4   14[BANK0 ] unsigned char 
  4611 ;; Auto vars:     Size  Location     Type
  4612 ;;  prod            4   30[BANK0 ] struct .
  4613 ;;  grs             4   25[BANK0 ] unsigned long 
  4614 ;;  temp            2   34[BANK0 ] struct .
  4615 ;;  bexp            1   29[BANK0 ] unsigned char 
  4616 ;;  aexp            1   24[BANK0 ] unsigned char 
  4617 ;;  sign            1   23[BANK0 ] unsigned char 
  4618 ;; Return value:  Size  Location     Type
  4619 ;;                  4   10[BANK0 ] unsigned char 
  4620 ;; Registers used:
  4621 ;;		wreg, status,2, status,0, btemp+1, pclath, cstack
  4622 ;; Tracked objects:
  4623 ;;		On entry : 0/0
  4624 ;;		On exit  : 0/0
  4625 ;;		Unchanged: 0/0
  4626 ;; Data sizes:     COMMON   BANK0   BANK1   BANK3   BANK2
  4627 ;;      Params:         0       8       0       0       0
  4628 ;;      Locals:         0      13       0       0       0
  4629 ;;      Temps:          0       5       0       0       0
  4630 ;;      Totals:         0      26       0       0       0
  4631 ;;Total ram usage:       26 bytes
  4632 ;; Hardware stack levels used:    1
  4633 ;; Hardware stack levels required when called:    2
  4634 ;; This function calls:
  4635 ;;		__Umul8_16
  4636 ;; This function is called by:
  4637 ;;		_CONVdec
  4638 ;;		_sendfloat
  4639 ;; This function uses a non-reentrant model
  4640 ;;
  4641                           
  4642                           
  4643                           ;psect for function ___flmul
  4644  0024                     ___flmul:
  4645  0024                     l2666:	
  4646                           ;incstack = 0
  4647                           ; Regs used in ___flmul: [wreg+status,2+status,0+btemp+1+pclath+cstack]
  4648                           
  4649  0024  1283               	bcf	3,5	;RP0=0, select bank0
  4650  0025  1303               	bcf	3,6	;RP1=0, select bank0
  4651  0026  082D               	movf	___flmul@b+3,w
  4652  0027  3980               	andlw	128
  4653  0028  00B2               	movwf	??___flmul
  4654  0029  0832               	movf	??___flmul,w
  4655  002A  00B7               	movwf	___flmul@sign
  4656  002B                     l2668:
  4657  002B  082D               	movf	___flmul@b+3,w
  4658  002C  00B2               	movwf	??___flmul
  4659  002D  0732               	addwf	??___flmul,w
  4660  002E  00B3               	movwf	??___flmul+1
  4661  002F  0833               	movf	??___flmul+1,w
  4662  0030  00BD               	movwf	___flmul@bexp
  4663  0031                     l2670:
  4664  0031  1FAC               	btfss	___flmul@b+2,7
  4665  0032  2834               	goto	u3521
  4666  0033  2835               	goto	u3520
  4667  0034                     u3521:
  4668  0034  2836               	goto	l2674
  4669  0035                     u3520:
  4670  0035                     l2672:
  4671  0035  143D               	bsf	___flmul@bexp,0
  4672  0036                     l2674:
  4673  0036  083D               	movf	___flmul@bexp,w
  4674  0037  1903               	btfsc	3,2
  4675  0038  283A               	goto	u3531
  4676  0039  283B               	goto	u3530
  4677  003A                     u3531:
  4678  003A  284A               	goto	l2682
  4679  003B                     u3530:
  4680  003B                     l2676:
  4681  003B  0A3D               	incf	___flmul@bexp,w
  4682  003C  1D03               	btfss	3,2
  4683  003D  283F               	goto	u3541
  4684  003E  2840               	goto	u3540
  4685  003F                     u3541:
  4686  003F  2848               	goto	l2680
  4687  0040                     u3540:
  4688  0040                     l2678:
  4689  0040  3000               	movlw	0
  4690  0041  00AD               	movwf	___flmul@b+3
  4691  0042  3000               	movlw	0
  4692  0043  00AC               	movwf	___flmul@b+2
  4693  0044  3000               	movlw	0
  4694  0045  00AB               	movwf	___flmul@b+1
  4695  0046  3000               	movlw	0
  4696  0047  00AA               	movwf	___flmul@b
  4697  0048                     l2680:
  4698  0048  17AC               	bsf	___flmul@b+2,7
  4699  0049  2852               	goto	l2684
  4700  004A                     l2682:
  4701  004A  3000               	movlw	0
  4702  004B  00AD               	movwf	___flmul@b+3
  4703  004C  3000               	movlw	0
  4704  004D  00AC               	movwf	___flmul@b+2
  4705  004E  3000               	movlw	0
  4706  004F  00AB               	movwf	___flmul@b+1
  4707  0050  3000               	movlw	0
  4708  0051  00AA               	movwf	___flmul@b
  4709  0052                     l2684:
  4710  0052  0831               	movf	___flmul@a+3,w
  4711  0053  3980               	andlw	128
  4712  0054  00B2               	movwf	??___flmul
  4713  0055  0832               	movf	??___flmul,w
  4714  0056  06B7               	xorwf	___flmul@sign,f
  4715  0057                     l2686:
  4716  0057  0831               	movf	___flmul@a+3,w
  4717  0058  00B2               	movwf	??___flmul
  4718  0059  0732               	addwf	??___flmul,w
  4719  005A  00B3               	movwf	??___flmul+1
  4720  005B  0833               	movf	??___flmul+1,w
  4721  005C  00B8               	movwf	___flmul@aexp
  4722  005D                     l2688:
  4723  005D  1FB0               	btfss	___flmul@a+2,7
  4724  005E  2860               	goto	u3551
  4725  005F  2861               	goto	u3550
  4726  0060                     u3551:
  4727  0060  2862               	goto	l2692
  4728  0061                     u3550:
  4729  0061                     l2690:
  4730  0061  1438               	bsf	___flmul@aexp,0
  4731  0062                     l2692:
  4732  0062  0838               	movf	___flmul@aexp,w
  4733  0063  1903               	btfsc	3,2
  4734  0064  2866               	goto	u3561
  4735  0065  2867               	goto	u3560
  4736  0066                     u3561:
  4737  0066  2876               	goto	l2700
  4738  0067                     u3560:
  4739  0067                     l2694:
  4740  0067  0A38               	incf	___flmul@aexp,w
  4741  0068  1D03               	btfss	3,2
  4742  0069  286B               	goto	u3571
  4743  006A  286C               	goto	u3570
  4744  006B                     u3571:
  4745  006B  2874               	goto	l2698
  4746  006C                     u3570:
  4747  006C                     l2696:
  4748  006C  3000               	movlw	0
  4749  006D  00B1               	movwf	___flmul@a+3
  4750  006E  3000               	movlw	0
  4751  006F  00B0               	movwf	___flmul@a+2
  4752  0070  3000               	movlw	0
  4753  0071  00AF               	movwf	___flmul@a+1
  4754  0072  3000               	movlw	0
  4755  0073  00AE               	movwf	___flmul@a
  4756  0074                     l2698:
  4757  0074  17B0               	bsf	___flmul@a+2,7
  4758  0075  287E               	goto	l2702
  4759  0076                     l2700:
  4760  0076  3000               	movlw	0
  4761  0077  00B1               	movwf	___flmul@a+3
  4762  0078  3000               	movlw	0
  4763  0079  00B0               	movwf	___flmul@a+2
  4764  007A  3000               	movlw	0
  4765  007B  00AF               	movwf	___flmul@a+1
  4766  007C  3000               	movlw	0
  4767  007D  00AE               	movwf	___flmul@a
  4768  007E                     l2702:
  4769  007E  0838               	movf	___flmul@aexp,w
  4770  007F  1903               	btfsc	3,2
  4771  0080  2882               	goto	u3581
  4772  0081  2883               	goto	u3580
  4773  0082                     u3581:
  4774  0082  2888               	goto	l2706
  4775  0083                     u3580:
  4776  0083                     l2704:
  4777  0083  083D               	movf	___flmul@bexp,w
  4778  0084  1D03               	btfss	3,2
  4779  0085  2887               	goto	u3591
  4780  0086  2888               	goto	u3590
  4781  0087                     u3591:
  4782  0087  2891               	goto	l2710
  4783  0088                     u3590:
  4784  0088                     l2706:
  4785  0088  3000               	movlw	0
  4786  0089  00AD               	movwf	?___flmul+3
  4787  008A  3000               	movlw	0
  4788  008B  00AC               	movwf	?___flmul+2
  4789  008C  3000               	movlw	0
  4790  008D  00AB               	movwf	?___flmul+1
  4791  008E  3000               	movlw	0
  4792  008F  00AA               	movwf	?___flmul
  4793  0090  2B84               	goto	l675
  4794  0091                     l2710:
  4795  0091  082A               	movf	___flmul@b,w
  4796  0092  00B2               	movwf	??___flmul
  4797  0093  0832               	movf	??___flmul,w
  4798  0094  00F3               	movwf	__Umul8_16@multiplicand
  4799  0095  0830               	movf	___flmul@a+2,w
  4800  0096  120A  158A  248F  120A  118A  	fcall	__Umul8_16
  4801  009B  0874               	movf	?__Umul8_16+1,w
  4802  009C  1283               	bcf	3,5	;RP0=0, select bank0
  4803  009D  1303               	bcf	3,6	;RP1=0, select bank0
  4804  009E  00C3               	movwf	___flmul@temp+1
  4805  009F  0873               	movf	?__Umul8_16,w
  4806  00A0  00C2               	movwf	___flmul@temp
  4807  00A1                     l2712:
  4808  00A1  0842               	movf	___flmul@temp,w
  4809  00A2  00B2               	movwf	??___flmul
  4810  00A3  01B3               	clrf	??___flmul+1
  4811  00A4  01B4               	clrf	??___flmul+2
  4812  00A5  01B5               	clrf	??___flmul+3
  4813  00A6  0835               	movf	??___flmul+3,w
  4814  00A7  00BC               	movwf	___flmul@grs+3
  4815  00A8  0834               	movf	??___flmul+2,w
  4816  00A9  00BB               	movwf	___flmul@grs+2
  4817  00AA  0833               	movf	??___flmul+1,w
  4818  00AB  00BA               	movwf	___flmul@grs+1
  4819  00AC  0832               	movf	??___flmul,w
  4820  00AD  00B9               	movwf	___flmul@grs
  4821  00AE                     l2714:
  4822  00AE  0843               	movf	___flmul@temp+1,w
  4823  00AF  00B2               	movwf	??___flmul
  4824  00B0  01B3               	clrf	??___flmul+1
  4825  00B1  01B4               	clrf	??___flmul+2
  4826  00B2  01B5               	clrf	??___flmul+3
  4827  00B3  0835               	movf	??___flmul+3,w
  4828  00B4  00C1               	movwf	___flmul@prod+3
  4829  00B5  0834               	movf	??___flmul+2,w
  4830  00B6  00C0               	movwf	___flmul@prod+2
  4831  00B7  0833               	movf	??___flmul+1,w
  4832  00B8  00BF               	movwf	___flmul@prod+1
  4833  00B9  0832               	movf	??___flmul,w
  4834  00BA  00BE               	movwf	___flmul@prod
  4835  00BB  082B               	movf	___flmul@b+1,w
  4836  00BC  00B2               	movwf	??___flmul
  4837  00BD  0832               	movf	??___flmul,w
  4838  00BE  00F3               	movwf	__Umul8_16@multiplicand
  4839  00BF  082F               	movf	___flmul@a+1,w
  4840  00C0  120A  158A  248F  120A  118A  	fcall	__Umul8_16
  4841  00C5  0874               	movf	?__Umul8_16+1,w
  4842  00C6  1283               	bcf	3,5	;RP0=0, select bank0
  4843  00C7  1303               	bcf	3,6	;RP1=0, select bank0
  4844  00C8  00C3               	movwf	___flmul@temp+1
  4845  00C9  0873               	movf	?__Umul8_16,w
  4846  00CA  00C2               	movwf	___flmul@temp
  4847  00CB                     l2716:
  4848  00CB  0842               	movf	___flmul@temp,w
  4849  00CC  00B2               	movwf	??___flmul
  4850  00CD  01B3               	clrf	??___flmul+1
  4851  00CE  01B4               	clrf	??___flmul+2
  4852  00CF  01B5               	clrf	??___flmul+3
  4853  00D0  0832               	movf	??___flmul,w
  4854  00D1  07B9               	addwf	___flmul@grs,f
  4855  00D2  0833               	movf	??___flmul+1,w
  4856  00D3  1103               	clrz
  4857  00D4  1803               	skipnc
  4858  00D5  3E01               	addlw	1
  4859  00D6  1903               	skipnz
  4860  00D7  28D9               	goto	u3601
  4861  00D8  07BA               	addwf	___flmul@grs+1,f
  4862  00D9                     u3601:
  4863  00D9  0834               	movf	??___flmul+2,w
  4864  00DA  1103               	clrz
  4865  00DB  1803               	skipnc
  4866  00DC  3E01               	addlw	1
  4867  00DD  1903               	skipnz
  4868  00DE  28E0               	goto	u3602
  4869  00DF  07BB               	addwf	___flmul@grs+2,f
  4870  00E0                     u3602:
  4871  00E0  0835               	movf	??___flmul+3,w
  4872  00E1  1103               	clrz
  4873  00E2  1803               	skipnc
  4874  00E3  3E01               	addlw	1
  4875  00E4  1903               	skipnz
  4876  00E5  28E7               	goto	u3603
  4877  00E6  07BC               	addwf	___flmul@grs+3,f
  4878  00E7                     u3603:
  4879  00E7                     l2718:
  4880  00E7  0843               	movf	___flmul@temp+1,w
  4881  00E8  00B2               	movwf	??___flmul
  4882  00E9  01B3               	clrf	??___flmul+1
  4883  00EA  01B4               	clrf	??___flmul+2
  4884  00EB  01B5               	clrf	??___flmul+3
  4885  00EC  0832               	movf	??___flmul,w
  4886  00ED  07BE               	addwf	___flmul@prod,f
  4887  00EE  0833               	movf	??___flmul+1,w
  4888  00EF  1103               	clrz
  4889  00F0  1803               	skipnc
  4890  00F1  3E01               	addlw	1
  4891  00F2  1903               	skipnz
  4892  00F3  28F5               	goto	u3611
  4893  00F4  07BF               	addwf	___flmul@prod+1,f
  4894  00F5                     u3611:
  4895  00F5  0834               	movf	??___flmul+2,w
  4896  00F6  1103               	clrz
  4897  00F7  1803               	skipnc
  4898  00F8  3E01               	addlw	1
  4899  00F9  1903               	skipnz
  4900  00FA  28FC               	goto	u3612
  4901  00FB  07C0               	addwf	___flmul@prod+2,f
  4902  00FC                     u3612:
  4903  00FC  0835               	movf	??___flmul+3,w
  4904  00FD  1103               	clrz
  4905  00FE  1803               	skipnc
  4906  00FF  3E01               	addlw	1
  4907  0100  1903               	skipnz
  4908  0101  2903               	goto	u3613
  4909  0102  07C1               	addwf	___flmul@prod+3,f
  4910  0103                     u3613:
  4911  0103  082C               	movf	___flmul@b+2,w
  4912  0104  00B2               	movwf	??___flmul
  4913  0105  0832               	movf	??___flmul,w
  4914  0106  00F3               	movwf	__Umul8_16@multiplicand
  4915  0107  082E               	movf	___flmul@a,w
  4916  0108  120A  158A  248F  120A  118A  	fcall	__Umul8_16
  4917  010D  0874               	movf	?__Umul8_16+1,w
  4918  010E  1283               	bcf	3,5	;RP0=0, select bank0
  4919  010F  1303               	bcf	3,6	;RP1=0, select bank0
  4920  0110  00C3               	movwf	___flmul@temp+1
  4921  0111  0873               	movf	?__Umul8_16,w
  4922  0112  00C2               	movwf	___flmul@temp
  4923  0113                     l2720:
  4924  0113  0842               	movf	___flmul@temp,w
  4925  0114  00B2               	movwf	??___flmul
  4926  0115  01B3               	clrf	??___flmul+1
  4927  0116  01B4               	clrf	??___flmul+2
  4928  0117  01B5               	clrf	??___flmul+3
  4929  0118  0832               	movf	??___flmul,w
  4930  0119  07B9               	addwf	___flmul@grs,f
  4931  011A  0833               	movf	??___flmul+1,w
  4932  011B  1103               	clrz
  4933  011C  1803               	skipnc
  4934  011D  3E01               	addlw	1
  4935  011E  1903               	skipnz
  4936  011F  2921               	goto	u3621
  4937  0120  07BA               	addwf	___flmul@grs+1,f
  4938  0121                     u3621:
  4939  0121  0834               	movf	??___flmul+2,w
  4940  0122  1103               	clrz
  4941  0123  1803               	skipnc
  4942  0124  3E01               	addlw	1
  4943  0125  1903               	skipnz
  4944  0126  2928               	goto	u3622
  4945  0127  07BB               	addwf	___flmul@grs+2,f
  4946  0128                     u3622:
  4947  0128  0835               	movf	??___flmul+3,w
  4948  0129  1103               	clrz
  4949  012A  1803               	skipnc
  4950  012B  3E01               	addlw	1
  4951  012C  1903               	skipnz
  4952  012D  292F               	goto	u3623
  4953  012E  07BC               	addwf	___flmul@grs+3,f
  4954  012F                     u3623:
  4955  012F                     l2722:
  4956  012F  0843               	movf	___flmul@temp+1,w
  4957  0130  00B2               	movwf	??___flmul
  4958  0131  01B3               	clrf	??___flmul+1
  4959  0132  01B4               	clrf	??___flmul+2
  4960  0133  01B5               	clrf	??___flmul+3
  4961  0134  0832               	movf	??___flmul,w
  4962  0135  07BE               	addwf	___flmul@prod,f
  4963  0136  0833               	movf	??___flmul+1,w
  4964  0137  1103               	clrz
  4965  0138  1803               	skipnc
  4966  0139  3E01               	addlw	1
  4967  013A  1903               	skipnz
  4968  013B  293D               	goto	u3631
  4969  013C  07BF               	addwf	___flmul@prod+1,f
  4970  013D                     u3631:
  4971  013D  0834               	movf	??___flmul+2,w
  4972  013E  1103               	clrz
  4973  013F  1803               	skipnc
  4974  0140  3E01               	addlw	1
  4975  0141  1903               	skipnz
  4976  0142  2944               	goto	u3632
  4977  0143  07C0               	addwf	___flmul@prod+2,f
  4978  0144                     u3632:
  4979  0144  0835               	movf	??___flmul+3,w
  4980  0145  1103               	clrz
  4981  0146  1803               	skipnc
  4982  0147  3E01               	addlw	1
  4983  0148  1903               	skipnz
  4984  0149  294B               	goto	u3633
  4985  014A  07C1               	addwf	___flmul@prod+3,f
  4986  014B                     u3633:
  4987  014B                     l2724:
  4988  014B  3008               	movlw	8
  4989  014C  00B2               	movwf	??___flmul
  4990  014D                     u3645:
  4991  014D  1003               	clrc
  4992  014E  0DB9               	rlf	___flmul@grs,f
  4993  014F  0DBA               	rlf	___flmul@grs+1,f
  4994  0150  0DBB               	rlf	___flmul@grs+2,f
  4995  0151  0DBC               	rlf	___flmul@grs+3,f
  4996  0152  0BB2               	decfsz	??___flmul,f
  4997  0153  294D               	goto	u3645
  4998  0154                     l2726:
  4999  0154  082B               	movf	___flmul@b+1,w
  5000  0155  00B2               	movwf	??___flmul
  5001  0156  0832               	movf	??___flmul,w
  5002  0157  00F3               	movwf	__Umul8_16@multiplicand
  5003  0158  082E               	movf	___flmul@a,w
  5004  0159  120A  158A  248F  120A  118A  	fcall	__Umul8_16
  5005  015E  0874               	movf	?__Umul8_16+1,w
  5006  015F  1283               	bcf	3,5	;RP0=0, select bank0
  5007  0160  1303               	bcf	3,6	;RP1=0, select bank0
  5008  0161  00C3               	movwf	___flmul@temp+1
  5009  0162  0873               	movf	?__Umul8_16,w
  5010  0163  00C2               	movwf	___flmul@temp
  5011  0164                     l2728:
  5012  0164  0842               	movf	___flmul@temp,w
  5013  0165  00B2               	movwf	??___flmul
  5014  0166  0843               	movf	___flmul@temp+1,w
  5015  0167  00B3               	movwf	??___flmul+1
  5016  0168  01B4               	clrf	??___flmul+2
  5017  0169  01B5               	clrf	??___flmul+3
  5018  016A  0832               	movf	??___flmul,w
  5019  016B  07B9               	addwf	___flmul@grs,f
  5020  016C  0833               	movf	??___flmul+1,w
  5021  016D  1103               	clrz
  5022  016E  1803               	skipnc
  5023  016F  3E01               	addlw	1
  5024  0170  1903               	skipnz
  5025  0171  2973               	goto	u3651
  5026  0172  07BA               	addwf	___flmul@grs+1,f
  5027  0173                     u3651:
  5028  0173  0834               	movf	??___flmul+2,w
  5029  0174  1103               	clrz
  5030  0175  1803               	skipnc
  5031  0176  3E01               	addlw	1
  5032  0177  1903               	skipnz
  5033  0178  297A               	goto	u3652
  5034  0179  07BB               	addwf	___flmul@grs+2,f
  5035  017A                     u3652:
  5036  017A  0835               	movf	??___flmul+3,w
  5037  017B  1103               	clrz
  5038  017C  1803               	skipnc
  5039  017D  3E01               	addlw	1
  5040  017E  1903               	skipnz
  5041  017F  2981               	goto	u3653
  5042  0180  07BC               	addwf	___flmul@grs+3,f
  5043  0181                     u3653:
  5044  0181                     l2730:
  5045  0181  082A               	movf	___flmul@b,w
  5046  0182  00B2               	movwf	??___flmul
  5047  0183  0832               	movf	??___flmul,w
  5048  0184  00F3               	movwf	__Umul8_16@multiplicand
  5049  0185  082F               	movf	___flmul@a+1,w
  5050  0186  120A  158A  248F  120A  118A  	fcall	__Umul8_16
  5051  018B  0874               	movf	?__Umul8_16+1,w
  5052  018C  1283               	bcf	3,5	;RP0=0, select bank0
  5053  018D  1303               	bcf	3,6	;RP1=0, select bank0
  5054  018E  00C3               	movwf	___flmul@temp+1
  5055  018F  0873               	movf	?__Umul8_16,w
  5056  0190  00C2               	movwf	___flmul@temp
  5057  0191                     l2732:
  5058  0191  0842               	movf	___flmul@temp,w
  5059  0192  00B2               	movwf	??___flmul
  5060  0193  0843               	movf	___flmul@temp+1,w
  5061  0194  00B3               	movwf	??___flmul+1
  5062  0195  01B4               	clrf	??___flmul+2
  5063  0196  01B5               	clrf	??___flmul+3
  5064  0197  0832               	movf	??___flmul,w
  5065  0198  07B9               	addwf	___flmul@grs,f
  5066  0199  0833               	movf	??___flmul+1,w
  5067  019A  1103               	clrz
  5068  019B  1803               	skipnc
  5069  019C  3E01               	addlw	1
  5070  019D  1903               	skipnz
  5071  019E  29A0               	goto	u3661
  5072  019F  07BA               	addwf	___flmul@grs+1,f
  5073  01A0                     u3661:
  5074  01A0  0834               	movf	??___flmul+2,w
  5075  01A1  1103               	clrz
  5076  01A2  1803               	skipnc
  5077  01A3  3E01               	addlw	1
  5078  01A4  1903               	skipnz
  5079  01A5  29A7               	goto	u3662
  5080  01A6  07BB               	addwf	___flmul@grs+2,f
  5081  01A7                     u3662:
  5082  01A7  0835               	movf	??___flmul+3,w
  5083  01A8  1103               	clrz
  5084  01A9  1803               	skipnc
  5085  01AA  3E01               	addlw	1
  5086  01AB  1903               	skipnz
  5087  01AC  29AE               	goto	u3663
  5088  01AD  07BC               	addwf	___flmul@grs+3,f
  5089  01AE                     u3663:
  5090  01AE                     l2734:
  5091  01AE  3008               	movlw	8
  5092  01AF  00B2               	movwf	??___flmul
  5093  01B0                     u3675:
  5094  01B0  1003               	clrc
  5095  01B1  0DB9               	rlf	___flmul@grs,f
  5096  01B2  0DBA               	rlf	___flmul@grs+1,f
  5097  01B3  0DBB               	rlf	___flmul@grs+2,f
  5098  01B4  0DBC               	rlf	___flmul@grs+3,f
  5099  01B5  0BB2               	decfsz	??___flmul,f
  5100  01B6  29B0               	goto	u3675
  5101  01B7  082A               	movf	___flmul@b,w
  5102  01B8  00B2               	movwf	??___flmul
  5103  01B9  0832               	movf	??___flmul,w
  5104  01BA  00F3               	movwf	__Umul8_16@multiplicand
  5105  01BB  082E               	movf	___flmul@a,w
  5106  01BC  120A  158A  248F  120A  118A  	fcall	__Umul8_16
  5107  01C1  0874               	movf	?__Umul8_16+1,w
  5108  01C2  1283               	bcf	3,5	;RP0=0, select bank0
  5109  01C3  1303               	bcf	3,6	;RP1=0, select bank0
  5110  01C4  00C3               	movwf	___flmul@temp+1
  5111  01C5  0873               	movf	?__Umul8_16,w
  5112  01C6  00C2               	movwf	___flmul@temp
  5113  01C7                     l2736:
  5114  01C7  0842               	movf	___flmul@temp,w
  5115  01C8  00B2               	movwf	??___flmul
  5116  01C9  0843               	movf	___flmul@temp+1,w
  5117  01CA  00B3               	movwf	??___flmul+1
  5118  01CB  01B4               	clrf	??___flmul+2
  5119  01CC  01B5               	clrf	??___flmul+3
  5120  01CD  0832               	movf	??___flmul,w
  5121  01CE  07B9               	addwf	___flmul@grs,f
  5122  01CF  0833               	movf	??___flmul+1,w
  5123  01D0  1103               	clrz
  5124  01D1  1803               	skipnc
  5125  01D2  3E01               	addlw	1
  5126  01D3  1903               	skipnz
  5127  01D4  29D6               	goto	u3681
  5128  01D5  07BA               	addwf	___flmul@grs+1,f
  5129  01D6                     u3681:
  5130  01D6  0834               	movf	??___flmul+2,w
  5131  01D7  1103               	clrz
  5132  01D8  1803               	skipnc
  5133  01D9  3E01               	addlw	1
  5134  01DA  1903               	skipnz
  5135  01DB  29DD               	goto	u3682
  5136  01DC  07BB               	addwf	___flmul@grs+2,f
  5137  01DD                     u3682:
  5138  01DD  0835               	movf	??___flmul+3,w
  5139  01DE  1103               	clrz
  5140  01DF  1803               	skipnc
  5141  01E0  3E01               	addlw	1
  5142  01E1  1903               	skipnz
  5143  01E2  29E4               	goto	u3683
  5144  01E3  07BC               	addwf	___flmul@grs+3,f
  5145  01E4                     u3683:
  5146  01E4                     l2738:
  5147  01E4  082B               	movf	___flmul@b+1,w
  5148  01E5  00B2               	movwf	??___flmul
  5149  01E6  0832               	movf	??___flmul,w
  5150  01E7  00F3               	movwf	__Umul8_16@multiplicand
  5151  01E8  0830               	movf	___flmul@a+2,w
  5152  01E9  120A  158A  248F  120A  118A  	fcall	__Umul8_16
  5153  01EE  0874               	movf	?__Umul8_16+1,w
  5154  01EF  1283               	bcf	3,5	;RP0=0, select bank0
  5155  01F0  1303               	bcf	3,6	;RP1=0, select bank0
  5156  01F1  00C3               	movwf	___flmul@temp+1
  5157  01F2  0873               	movf	?__Umul8_16,w
  5158  01F3  00C2               	movwf	___flmul@temp
  5159  01F4  0842               	movf	___flmul@temp,w
  5160  01F5  00B2               	movwf	??___flmul
  5161  01F6  0843               	movf	___flmul@temp+1,w
  5162  01F7  00B3               	movwf	??___flmul+1
  5163  01F8  01B4               	clrf	??___flmul+2
  5164  01F9  01B5               	clrf	??___flmul+3
  5165  01FA  0832               	movf	??___flmul,w
  5166  01FB  07BE               	addwf	___flmul@prod,f
  5167  01FC  0833               	movf	??___flmul+1,w
  5168  01FD  1103               	clrz
  5169  01FE  1803               	skipnc
  5170  01FF  3E01               	addlw	1
  5171  0200  1903               	skipnz
  5172  0201  2A03               	goto	u3691
  5173  0202  07BF               	addwf	___flmul@prod+1,f
  5174  0203                     u3691:
  5175  0203  0834               	movf	??___flmul+2,w
  5176  0204  1103               	clrz
  5177  0205  1803               	skipnc
  5178  0206  3E01               	addlw	1
  5179  0207  1903               	skipnz
  5180  0208  2A0A               	goto	u3692
  5181  0209  07C0               	addwf	___flmul@prod+2,f
  5182  020A                     u3692:
  5183  020A  0835               	movf	??___flmul+3,w
  5184  020B  1103               	clrz
  5185  020C  1803               	skipnc
  5186  020D  3E01               	addlw	1
  5187  020E  1903               	skipnz
  5188  020F  2A11               	goto	u3693
  5189  0210  07C1               	addwf	___flmul@prod+3,f
  5190  0211                     u3693:
  5191  0211                     l2740:
  5192  0211  082C               	movf	___flmul@b+2,w
  5193  0212  00B2               	movwf	??___flmul
  5194  0213  0832               	movf	??___flmul,w
  5195  0214  00F3               	movwf	__Umul8_16@multiplicand
  5196  0215  082F               	movf	___flmul@a+1,w
  5197  0216  120A  158A  248F  120A  118A  	fcall	__Umul8_16
  5198  021B  0874               	movf	?__Umul8_16+1,w
  5199  021C  1283               	bcf	3,5	;RP0=0, select bank0
  5200  021D  1303               	bcf	3,6	;RP1=0, select bank0
  5201  021E  00C3               	movwf	___flmul@temp+1
  5202  021F  0873               	movf	?__Umul8_16,w
  5203  0220  00C2               	movwf	___flmul@temp
  5204  0221                     l2742:
  5205  0221  0842               	movf	___flmul@temp,w
  5206  0222  00B2               	movwf	??___flmul
  5207  0223  0843               	movf	___flmul@temp+1,w
  5208  0224  00B3               	movwf	??___flmul+1
  5209  0225  01B4               	clrf	??___flmul+2
  5210  0226  01B5               	clrf	??___flmul+3
  5211  0227  0832               	movf	??___flmul,w
  5212  0228  07BE               	addwf	___flmul@prod,f
  5213  0229  0833               	movf	??___flmul+1,w
  5214  022A  1103               	clrz
  5215  022B  1803               	skipnc
  5216  022C  3E01               	addlw	1
  5217  022D  1903               	skipnz
  5218  022E  2A30               	goto	u3701
  5219  022F  07BF               	addwf	___flmul@prod+1,f
  5220  0230                     u3701:
  5221  0230  0834               	movf	??___flmul+2,w
  5222  0231  1103               	clrz
  5223  0232  1803               	skipnc
  5224  0233  3E01               	addlw	1
  5225  0234  1903               	skipnz
  5226  0235  2A37               	goto	u3702
  5227  0236  07C0               	addwf	___flmul@prod+2,f
  5228  0237                     u3702:
  5229  0237  0835               	movf	??___flmul+3,w
  5230  0238  1103               	clrz
  5231  0239  1803               	skipnc
  5232  023A  3E01               	addlw	1
  5233  023B  1903               	skipnz
  5234  023C  2A3E               	goto	u3703
  5235  023D  07C1               	addwf	___flmul@prod+3,f
  5236  023E                     u3703:
  5237  023E  082C               	movf	___flmul@b+2,w
  5238  023F  00B2               	movwf	??___flmul
  5239  0240  0832               	movf	??___flmul,w
  5240  0241  00F3               	movwf	__Umul8_16@multiplicand
  5241  0242  0830               	movf	___flmul@a+2,w
  5242  0243  120A  158A  248F  120A  118A  	fcall	__Umul8_16
  5243  0248  0874               	movf	?__Umul8_16+1,w
  5244  0249  1283               	bcf	3,5	;RP0=0, select bank0
  5245  024A  1303               	bcf	3,6	;RP1=0, select bank0
  5246  024B  00C3               	movwf	___flmul@temp+1
  5247  024C  0873               	movf	?__Umul8_16,w
  5248  024D  00C2               	movwf	___flmul@temp
  5249  024E                     l2744:
  5250  024E  0842               	movf	___flmul@temp,w
  5251  024F  00B2               	movwf	??___flmul
  5252  0250  0843               	movf	___flmul@temp+1,w
  5253  0251  00B3               	movwf	??___flmul+1
  5254  0252  01B4               	clrf	??___flmul+2
  5255  0253  01B5               	clrf	??___flmul+3
  5256  0254  3008               	movlw	8
  5257  0255                     u3715:
  5258  0255  1003               	clrc
  5259  0256  0DB2               	rlf	??___flmul,f
  5260  0257  0DB3               	rlf	??___flmul+1,f
  5261  0258  0DB4               	rlf	??___flmul+2,f
  5262  0259  0DB5               	rlf	??___flmul+3,f
  5263  025A                     u3710:
  5264  025A  3EFF               	addlw	-1
  5265  025B  1D03               	skipz
  5266  025C  2A55               	goto	u3715
  5267  025D  0832               	movf	??___flmul,w
  5268  025E  07BE               	addwf	___flmul@prod,f
  5269  025F  0833               	movf	??___flmul+1,w
  5270  0260  1103               	clrz
  5271  0261  1803               	skipnc
  5272  0262  3E01               	addlw	1
  5273  0263  1903               	skipnz
  5274  0264  2A66               	goto	u3721
  5275  0265  07BF               	addwf	___flmul@prod+1,f
  5276  0266                     u3721:
  5277  0266  0834               	movf	??___flmul+2,w
  5278  0267  1103               	clrz
  5279  0268  1803               	skipnc
  5280  0269  3E01               	addlw	1
  5281  026A  1903               	skipnz
  5282  026B  2A6D               	goto	u3722
  5283  026C  07C0               	addwf	___flmul@prod+2,f
  5284  026D                     u3722:
  5285  026D  0835               	movf	??___flmul+3,w
  5286  026E  1103               	clrz
  5287  026F  1803               	skipnc
  5288  0270  3E01               	addlw	1
  5289  0271  1903               	skipnz
  5290  0272  2A74               	goto	u3723
  5291  0273  07C1               	addwf	___flmul@prod+3,f
  5292  0274                     u3723:
  5293  0274                     l2746:
  5294  0274  0839               	movf	___flmul@grs,w
  5295  0275  00B2               	movwf	??___flmul
  5296  0276  083A               	movf	___flmul@grs+1,w
  5297  0277  00B3               	movwf	??___flmul+1
  5298  0278  083B               	movf	___flmul@grs+2,w
  5299  0279  00B4               	movwf	??___flmul+2
  5300  027A  083C               	movf	___flmul@grs+3,w
  5301  027B  00B5               	movwf	??___flmul+3
  5302  027C  3018               	movlw	24
  5303  027D                     u3735:
  5304  027D  1003               	clrc
  5305  027E  0CB5               	rrf	??___flmul+3,f
  5306  027F  0CB4               	rrf	??___flmul+2,f
  5307  0280  0CB3               	rrf	??___flmul+1,f
  5308  0281  0CB2               	rrf	??___flmul,f
  5309  0282                     u3730:
  5310  0282  3EFF               	addlw	-1
  5311  0283  1D03               	skipz
  5312  0284  2A7D               	goto	u3735
  5313  0285  0832               	movf	??___flmul,w
  5314  0286  07BE               	addwf	___flmul@prod,f
  5315  0287  0833               	movf	??___flmul+1,w
  5316  0288  1103               	clrz
  5317  0289  1803               	skipnc
  5318  028A  3E01               	addlw	1
  5319  028B  1903               	skipnz
  5320  028C  2A8E               	goto	u3741
  5321  028D  07BF               	addwf	___flmul@prod+1,f
  5322  028E                     u3741:
  5323  028E  0834               	movf	??___flmul+2,w
  5324  028F  1103               	clrz
  5325  0290  1803               	skipnc
  5326  0291  3E01               	addlw	1
  5327  0292  1903               	skipnz
  5328  0293  2A95               	goto	u3742
  5329  0294  07C0               	addwf	___flmul@prod+2,f
  5330  0295                     u3742:
  5331  0295  0835               	movf	??___flmul+3,w
  5332  0296  1103               	clrz
  5333  0297  1803               	skipnc
  5334  0298  3E01               	addlw	1
  5335  0299  1903               	skipnz
  5336  029A  2A9C               	goto	u3743
  5337  029B  07C1               	addwf	___flmul@prod+3,f
  5338  029C                     u3743:
  5339  029C                     l2748:
  5340  029C  3008               	movlw	8
  5341  029D  00B2               	movwf	??___flmul
  5342  029E                     u3755:
  5343  029E  1003               	clrc
  5344  029F  0DB9               	rlf	___flmul@grs,f
  5345  02A0  0DBA               	rlf	___flmul@grs+1,f
  5346  02A1  0DBB               	rlf	___flmul@grs+2,f
  5347  02A2  0DBC               	rlf	___flmul@grs+3,f
  5348  02A3  0BB2               	decfsz	??___flmul,f
  5349  02A4  2A9E               	goto	u3755
  5350  02A5                     l2750:
  5351  02A5  083D               	movf	___flmul@bexp,w
  5352  02A6  0738               	addwf	___flmul@aexp,w
  5353  02A7  00B2               	movwf	??___flmul
  5354  02A8  01B3               	clrf	??___flmul+1
  5355  02A9  0DB3               	rlf	??___flmul+1,f
  5356  02AA  0832               	movf	??___flmul,w
  5357  02AB  3E82               	addlw	130
  5358  02AC  00C2               	movwf	___flmul@temp
  5359  02AD  0833               	movf	??___flmul+1,w
  5360  02AE  1803               	skipnc
  5361  02AF  3E01               	addlw	1
  5362  02B0  3EFF               	addlw	255
  5363  02B1  00C3               	movwf	___flmul@temp+1
  5364  02B2  2AD0               	goto	l2762
  5365  02B3                     l2752:
  5366  02B3  3001               	movlw	1
  5367  02B4  00B2               	movwf	??___flmul
  5368  02B5                     u3765:
  5369  02B5  1003               	clrc
  5370  02B6  0DBE               	rlf	___flmul@prod,f
  5371  02B7  0DBF               	rlf	___flmul@prod+1,f
  5372  02B8  0DC0               	rlf	___flmul@prod+2,f
  5373  02B9  0DC1               	rlf	___flmul@prod+3,f
  5374  02BA  0BB2               	decfsz	??___flmul,f
  5375  02BB  2AB5               	goto	u3765
  5376  02BC                     l2754:
  5377  02BC  1FBC               	btfss	___flmul@grs+3,7
  5378  02BD  2ABF               	goto	u3771
  5379  02BE  2AC0               	goto	u3770
  5380  02BF                     u3771:
  5381  02BF  2AC1               	goto	l2758
  5382  02C0                     u3770:
  5383  02C0                     l2756:
  5384  02C0  143E               	bsf	___flmul@prod,0
  5385  02C1                     l2758:
  5386  02C1  3001               	movlw	1
  5387  02C2  00B2               	movwf	??___flmul
  5388  02C3                     u3785:
  5389  02C3  1003               	clrc
  5390  02C4  0DB9               	rlf	___flmul@grs,f
  5391  02C5  0DBA               	rlf	___flmul@grs+1,f
  5392  02C6  0DBB               	rlf	___flmul@grs+2,f
  5393  02C7  0DBC               	rlf	___flmul@grs+3,f
  5394  02C8  0BB2               	decfsz	??___flmul,f
  5395  02C9  2AC3               	goto	u3785
  5396  02CA                     l2760:
  5397  02CA  30FF               	movlw	255
  5398  02CB  07C2               	addwf	___flmul@temp,f
  5399  02CC  1803               	skipnc
  5400  02CD  0AC3               	incf	___flmul@temp+1,f
  5401  02CE  30FF               	movlw	255
  5402  02CF  07C3               	addwf	___flmul@temp+1,f
  5403  02D0                     l2762:
  5404  02D0  1FC0               	btfss	___flmul@prod+2,7
  5405  02D1  2AD3               	goto	u3791
  5406  02D2  2AD4               	goto	u3790
  5407  02D3                     u3791:
  5408  02D3  2AB3               	goto	l2752
  5409  02D4                     u3790:
  5410  02D4                     l2764:
  5411  02D4  01B8               	clrf	___flmul@aexp
  5412  02D5                     l2766:
  5413  02D5  1FBC               	btfss	___flmul@grs+3,7
  5414  02D6  2AD8               	goto	u3801
  5415  02D7  2AD9               	goto	u3800
  5416  02D8                     u3801:
  5417  02D8  2AF5               	goto	l2774
  5418  02D9                     u3800:
  5419  02D9                     l2768:
  5420  02D9  30FF               	movlw	255
  5421  02DA  0539               	andwf	___flmul@grs,w
  5422  02DB  00B2               	movwf	??___flmul
  5423  02DC  30FF               	movlw	255
  5424  02DD  053A               	andwf	___flmul@grs+1,w
  5425  02DE  00B3               	movwf	??___flmul+1
  5426  02DF  30FF               	movlw	255
  5427  02E0  053B               	andwf	___flmul@grs+2,w
  5428  02E1  00B4               	movwf	??___flmul+2
  5429  02E2  307F               	movlw	127
  5430  02E3  053C               	andwf	___flmul@grs+3,w
  5431  02E4  00B5               	movwf	??___flmul+3
  5432  02E5  0835               	movf	??___flmul+3,w
  5433  02E6  0434               	iorwf	??___flmul+2,w
  5434  02E7  0433               	iorwf	??___flmul+1,w
  5435  02E8  0432               	iorwf	??___flmul,w
  5436  02E9  1903               	skipnz
  5437  02EA  2AEC               	goto	u3811
  5438  02EB  2AED               	goto	u3810
  5439  02EC                     u3811:
  5440  02EC  2AF0               	goto	l681
  5441  02ED                     u3810:
  5442  02ED                     l2770:
  5443  02ED  01B8               	clrf	___flmul@aexp
  5444  02EE  0AB8               	incf	___flmul@aexp,f
  5445  02EF  2AF5               	goto	l2774
  5446  02F0                     l681:
  5447  02F0  1C3E               	btfss	___flmul@prod,0
  5448  02F1  2AF3               	goto	u3821
  5449  02F2  2AF4               	goto	u3820
  5450  02F3                     u3821:
  5451  02F3  2AF5               	goto	l2774
  5452  02F4                     u3820:
  5453  02F4  2AED               	goto	l2770
  5454  02F5                     l2774:
  5455  02F5  0838               	movf	___flmul@aexp,w
  5456  02F6  1903               	btfsc	3,2
  5457  02F7  2AF9               	goto	u3831
  5458  02F8  2AFA               	goto	u3830
  5459  02F9                     u3831:
  5460  02F9  2B2B               	goto	l2784
  5461  02FA                     u3830:
  5462  02FA                     l2776:
  5463  02FA  3001               	movlw	1
  5464  02FB  07BE               	addwf	___flmul@prod,f
  5465  02FC  3000               	movlw	0
  5466  02FD  1803               	skipnc
  5467  02FE  3001               	movlw	1
  5468  02FF  07BF               	addwf	___flmul@prod+1,f
  5469  0300  3000               	movlw	0
  5470  0301  1803               	skipnc
  5471  0302  3001               	movlw	1
  5472  0303  07C0               	addwf	___flmul@prod+2,f
  5473  0304  3000               	movlw	0
  5474  0305  1803               	skipnc
  5475  0306  3001               	movlw	1
  5476  0307  07C1               	addwf	___flmul@prod+3,f
  5477  0308                     l2778:
  5478  0308  1C41               	btfss	___flmul@prod+3,0
  5479  0309  2B0B               	goto	u3841
  5480  030A  2B0C               	goto	u3840
  5481  030B                     u3841:
  5482  030B  2B2B               	goto	l2784
  5483  030C                     u3840:
  5484  030C                     l2780:
  5485  030C  083E               	movf	___flmul@prod,w
  5486  030D  00B2               	movwf	??___flmul
  5487  030E  083F               	movf	___flmul@prod+1,w
  5488  030F  00B3               	movwf	??___flmul+1
  5489  0310  0840               	movf	___flmul@prod+2,w
  5490  0311  00B4               	movwf	??___flmul+2
  5491  0312  0841               	movf	___flmul@prod+3,w
  5492  0313  00B5               	movwf	??___flmul+3
  5493  0314  3001               	movlw	1
  5494  0315  00B6               	movwf	??___flmul+4
  5495  0316                     u3855:
  5496  0316  0D35               	rlf	??___flmul+3,w
  5497  0317  0CB5               	rrf	??___flmul+3,f
  5498  0318  0CB4               	rrf	??___flmul+2,f
  5499  0319  0CB3               	rrf	??___flmul+1,f
  5500  031A  0CB2               	rrf	??___flmul,f
  5501  031B                     u3850:
  5502  031B  0BB6               	decfsz	??___flmul+4,f
  5503  031C  2B16               	goto	u3855
  5504  031D  0835               	movf	??___flmul+3,w
  5505  031E  00C1               	movwf	___flmul@prod+3
  5506  031F  0834               	movf	??___flmul+2,w
  5507  0320  00C0               	movwf	___flmul@prod+2
  5508  0321  0833               	movf	??___flmul+1,w
  5509  0322  00BF               	movwf	___flmul@prod+1
  5510  0323  0832               	movf	??___flmul,w
  5511  0324  00BE               	movwf	___flmul@prod
  5512  0325                     l2782:
  5513  0325  3001               	movlw	1
  5514  0326  07C2               	addwf	___flmul@temp,f
  5515  0327  1803               	skipnc
  5516  0328  0AC3               	incf	___flmul@temp+1,f
  5517  0329  3000               	movlw	0
  5518  032A  07C3               	addwf	___flmul@temp+1,f
  5519  032B                     l2784:
  5520  032B  0843               	movf	___flmul@temp+1,w
  5521  032C  3A80               	xorlw	128
  5522  032D  00FF               	movwf	btemp+1
  5523  032E  3080               	movlw	128
  5524  032F  027F               	subwf	btemp+1,w
  5525  0330  1D03               	skipz
  5526  0331  2B34               	goto	u3865
  5527  0332  30FF               	movlw	255
  5528  0333  0242               	subwf	___flmul@temp,w
  5529  0334                     u3865:
  5530  0334  1C03               	skipc
  5531  0335  2B37               	goto	u3861
  5532  0336  2B38               	goto	u3860
  5533  0337                     u3861:
  5534  0337  2B43               	goto	l2788
  5535  0338                     u3860:
  5536  0338                     l2786:
  5537  0338  307F               	movlw	127
  5538  0339  1283               	bcf	3,5	;RP0=0, select bank0
  5539  033A  1303               	bcf	3,6	;RP1=0, select bank0
  5540  033B  00C1               	movwf	___flmul@prod+3
  5541  033C  3080               	movlw	128
  5542  033D  00C0               	movwf	___flmul@prod+2
  5543  033E  3000               	movlw	0
  5544  033F  00BF               	movwf	___flmul@prod+1
  5545  0340  3000               	movlw	0
  5546  0341  00BE               	movwf	___flmul@prod
  5547  0342  2B78               	goto	l687
  5548  0343                     l2788:
  5549  0343  1283               	bcf	3,5	;RP0=0, select bank0
  5550  0344  1303               	bcf	3,6	;RP1=0, select bank0
  5551  0345  0843               	movf	___flmul@temp+1,w
  5552  0346  3A80               	xorlw	128
  5553  0347  00FF               	movwf	btemp+1
  5554  0348  3080               	movlw	128
  5555  0349  027F               	subwf	btemp+1,w
  5556  034A  1D03               	skipz
  5557  034B  2B4E               	goto	u3875
  5558  034C  3001               	movlw	1
  5559  034D  0242               	subwf	___flmul@temp,w
  5560  034E                     u3875:
  5561  034E  1803               	skipnc
  5562  034F  2B51               	goto	u3871
  5563  0350  2B52               	goto	u3870
  5564  0351                     u3871:
  5565  0351  2B5E               	goto	l2794
  5566  0352                     u3870:
  5567  0352                     l2790:
  5568  0352  3000               	movlw	0
  5569  0353  1283               	bcf	3,5	;RP0=0, select bank0
  5570  0354  1303               	bcf	3,6	;RP1=0, select bank0
  5571  0355  00C1               	movwf	___flmul@prod+3
  5572  0356  3000               	movlw	0
  5573  0357  00C0               	movwf	___flmul@prod+2
  5574  0358  3000               	movlw	0
  5575  0359  00BF               	movwf	___flmul@prod+1
  5576  035A  3000               	movlw	0
  5577  035B  00BE               	movwf	___flmul@prod
  5578  035C                     l2792:
  5579  035C  01B7               	clrf	___flmul@sign
  5580  035D  2B78               	goto	l687
  5581  035E                     l2794:
  5582  035E  1283               	bcf	3,5	;RP0=0, select bank0
  5583  035F  1303               	bcf	3,6	;RP1=0, select bank0
  5584  0360  0842               	movf	___flmul@temp,w
  5585  0361  00B2               	movwf	??___flmul
  5586  0362  0832               	movf	??___flmul,w
  5587  0363  00BD               	movwf	___flmul@bexp
  5588  0364  30FF               	movlw	255
  5589  0365  05BE               	andwf	___flmul@prod,f
  5590  0366  30FF               	movlw	255
  5591  0367  05BF               	andwf	___flmul@prod+1,f
  5592  0368  307F               	movlw	127
  5593  0369  05C0               	andwf	___flmul@prod+2,f
  5594  036A  3000               	movlw	0
  5595  036B  05C1               	andwf	___flmul@prod+3,f
  5596  036C                     l2796:
  5597  036C  1C3D               	btfss	___flmul@bexp,0
  5598  036D  2B6F               	goto	u3881
  5599  036E  2B70               	goto	u3880
  5600  036F                     u3881:
  5601  036F  2B71               	goto	l2800
  5602  0370                     u3880:
  5603  0370                     l2798:
  5604  0370  17C0               	bsf	___flmul@prod+2,7
  5605  0371                     l2800:
  5606  0371  083D               	movf	___flmul@bexp,w
  5607  0372  00B2               	movwf	??___flmul
  5608  0373  1003               	clrc
  5609  0374  0C32               	rrf	??___flmul,w
  5610  0375  00B3               	movwf	??___flmul+1
  5611  0376  0833               	movf	??___flmul+1,w
  5612  0377  00C1               	movwf	___flmul@prod+3
  5613  0378                     l687:
  5614  0378  0837               	movf	___flmul@sign,w
  5615  0379  00B2               	movwf	??___flmul
  5616  037A  0832               	movf	??___flmul,w
  5617  037B  04C1               	iorwf	___flmul@prod+3,f
  5618  037C                     l2802:
  5619  037C  0841               	movf	___flmul@prod+3,w
  5620  037D  00AD               	movwf	?___flmul+3
  5621  037E  0840               	movf	___flmul@prod+2,w
  5622  037F  00AC               	movwf	?___flmul+2
  5623  0380  083F               	movf	___flmul@prod+1,w
  5624  0381  00AB               	movwf	?___flmul+1
  5625  0382  083E               	movf	___flmul@prod,w
  5626  0383  00AA               	movwf	?___flmul
  5627  0384                     l675:
  5628  0384  0008               	return
  5629  0385                     __end_of___flmul:
  5630                           
  5631                           	psect	text23
  5632  0C8F                     __ptext23:	
  5633 ;; *************** function __Umul8_16 *****************
  5634 ;; Defined at:
  5635 ;;		line 4 in file "C:\Program Files\Microchip\xc8\v2.31\pic\sources\c90\common\Umul8_16.c"
  5636 ;; Parameters:    Size  Location     Type
  5637 ;;  multiplier      1    wreg     unsigned char 
  5638 ;;  multiplicand    1    3[COMMON] unsigned char 
  5639 ;; Auto vars:     Size  Location     Type
  5640 ;;  multiplier      1    4[BANK0 ] unsigned char 
  5641 ;;  word_mpld       2    2[BANK0 ] unsigned int 
  5642 ;;  product         2    0[BANK0 ] unsigned int 
  5643 ;; Return value:  Size  Location     Type
  5644 ;;                  2    3[COMMON] unsigned int 
  5645 ;; Registers used:
  5646 ;;		wreg, status,2, status,0
  5647 ;; Tracked objects:
  5648 ;;		On entry : 0/0
  5649 ;;		On exit  : 0/0
  5650 ;;		Unchanged: 0/0
  5651 ;; Data sizes:     COMMON   BANK0   BANK1   BANK3   BANK2
  5652 ;;      Params:         2       0       0       0       0
  5653 ;;      Locals:         0       5       0       0       0
  5654 ;;      Temps:          2       0       0       0       0
  5655 ;;      Totals:         4       5       0       0       0
  5656 ;;Total ram usage:        9 bytes
  5657 ;; Hardware stack levels used:    1
  5658 ;; Hardware stack levels required when called:    1
  5659 ;; This function calls:
  5660 ;;		Nothing
  5661 ;; This function is called by:
  5662 ;;		___flmul
  5663 ;; This function uses a non-reentrant model
  5664 ;;
  5665                           
  5666                           
  5667                           ;psect for function __Umul8_16
  5668  0C8F                     __Umul8_16:
  5669                           
  5670                           ;incstack = 0
  5671                           ; Regs used in __Umul8_16: [wreg+status,2+status,0]
  5672                           ;__Umul8_16@multiplier stored from wreg
  5673  0C8F  1283               	bcf	3,5	;RP0=0, select bank0
  5674  0C90  1303               	bcf	3,6	;RP1=0, select bank0
  5675  0C91  00A4               	movwf	__Umul8_16@multiplier
  5676  0C92                     l2580:
  5677  0C92  01A0               	clrf	__Umul8_16@product
  5678  0C93  01A1               	clrf	__Umul8_16@product+1
  5679  0C94                     l2582:
  5680  0C94  0873               	movf	__Umul8_16@multiplicand,w
  5681  0C95  00F5               	movwf	??__Umul8_16
  5682  0C96  01F6               	clrf	??__Umul8_16+1
  5683  0C97  0875               	movf	??__Umul8_16,w
  5684  0C98  00A2               	movwf	__Umul8_16@word_mpld
  5685  0C99  0876               	movf	??__Umul8_16+1,w
  5686  0C9A  00A3               	movwf	__Umul8_16@word_mpld+1
  5687  0C9B                     l2584:
  5688  0C9B  1C24               	btfss	__Umul8_16@multiplier,0
  5689  0C9C  2C9E               	goto	u3361
  5690  0C9D  2C9F               	goto	u3360
  5691  0C9E                     u3361:
  5692  0C9E  2CA5               	goto	l694
  5693  0C9F                     u3360:
  5694  0C9F                     l2586:
  5695  0C9F  0822               	movf	__Umul8_16@word_mpld,w
  5696  0CA0  07A0               	addwf	__Umul8_16@product,f
  5697  0CA1  1803               	skipnc
  5698  0CA2  0AA1               	incf	__Umul8_16@product+1,f
  5699  0CA3  0823               	movf	__Umul8_16@word_mpld+1,w
  5700  0CA4  07A1               	addwf	__Umul8_16@product+1,f
  5701  0CA5                     l694:
  5702  0CA5  3001               	movlw	1
  5703  0CA6                     u3375:
  5704  0CA6  1003               	clrc
  5705  0CA7  0DA2               	rlf	__Umul8_16@word_mpld,f
  5706  0CA8  0DA3               	rlf	__Umul8_16@word_mpld+1,f
  5707  0CA9  3EFF               	addlw	-1
  5708  0CAA  1D03               	skipz
  5709  0CAB  2CA6               	goto	u3375
  5710  0CAC  1003               	clrc
  5711  0CAD  0CA4               	rrf	__Umul8_16@multiplier,f
  5712  0CAE                     l2588:
  5713  0CAE  0824               	movf	__Umul8_16@multiplier,w
  5714  0CAF  1D03               	btfss	3,2
  5715  0CB0  2CB2               	goto	u3381
  5716  0CB1  2CB3               	goto	u3380
  5717  0CB2                     u3381:
  5718  0CB2  2C9B               	goto	l2584
  5719  0CB3                     u3380:
  5720  0CB3                     l2590:
  5721  0CB3  0821               	movf	__Umul8_16@product+1,w
  5722  0CB4  00F4               	movwf	?__Umul8_16+1
  5723  0CB5  0820               	movf	__Umul8_16@product,w
  5724  0CB6  00F3               	movwf	?__Umul8_16
  5725  0CB7                     l696:
  5726  0CB7  0008               	return
  5727  0CB8                     __end_of__Umul8_16:
  5728                           
  5729                           	psect	text24
  5730  0E37                     __ptext24:	
  5731 ;; *************** function _interrupcion *****************
  5732 ;; Defined at:
  5733 ;;		line 50 in file "main.c"
  5734 ;; Parameters:    Size  Location     Type
  5735 ;;		None
  5736 ;; Auto vars:     Size  Location     Type
  5737 ;;		None
  5738 ;; Return value:  Size  Location     Type
  5739 ;;                  1    wreg      void 
  5740 ;; Registers used:
  5741 ;;		wreg, status,2, status,0
  5742 ;; Tracked objects:
  5743 ;;		On entry : 0/0
  5744 ;;		On exit  : 0/0
  5745 ;;		Unchanged: 0/0
  5746 ;; Data sizes:     COMMON   BANK0   BANK1   BANK3   BANK2
  5747 ;;      Params:         0       0       0       0       0
  5748 ;;      Locals:         0       0       0       0       0
  5749 ;;      Temps:          3       0       0       0       0
  5750 ;;      Totals:         3       0       0       0       0
  5751 ;;Total ram usage:        3 bytes
  5752 ;; Hardware stack levels used:    1
  5753 ;; This function calls:
  5754 ;;		Nothing
  5755 ;; This function is called by:
  5756 ;;		Interrupt level 1
  5757 ;; This function uses a non-reentrant model
  5758 ;;
  5759                           
  5760                           
  5761                           ;psect for function _interrupcion
  5762  0E37                     _interrupcion:
  5763  0E37                     i1l2254:
  5764                           
  5765                           ;main.c: 52:     if(PIR1bits.RCIF){
  5766  0E37  1283               	bcf	3,5	;RP0=0, select bank0
  5767  0E38  1303               	bcf	3,6	;RP1=0, select bank0
  5768  0E39  1E8C               	btfss	12,5	;volatile
  5769  0E3A  2E3C               	goto	u269_21
  5770  0E3B  2E3D               	goto	u269_20
  5771  0E3C                     u269_21:
  5772  0E3C  2E54               	goto	i1l2266
  5773  0E3D                     u269_20:
  5774  0E3D                     i1l2256:
  5775                           
  5776                           ;main.c: 53:         UARTdat = RCREG;
  5777  0E3D  081A               	movf	26,w	;volatile
  5778  0E3E  00F0               	movwf	??_interrupcion
  5779  0E3F  0870               	movf	??_interrupcion,w
  5780  0E40  00FA               	movwf	_UARTdat
  5781  0E41                     i1l2258:
  5782                           
  5783                           ;main.c: 54:         if(UARTdat == 0X2B)UARTval++;
  5784  0E41  302B               	movlw	43
  5785  0E42  067A               	xorwf	_UARTdat,w
  5786  0E43  1D03               	btfss	3,2
  5787  0E44  2E46               	goto	u270_21
  5788  0E45  2E47               	goto	u270_20
  5789  0E46                     u270_21:
  5790  0E46  2E4B               	goto	i1l84
  5791  0E47                     u270_20:
  5792  0E47                     i1l2260:
  5793  0E47  3001               	movlw	1
  5794  0E48  00F0               	movwf	??_interrupcion
  5795  0E49  0870               	movf	??_interrupcion,w
  5796  0E4A  07E2               	addwf	_UARTval,f
  5797  0E4B                     i1l84:
  5798                           
  5799                           ;main.c: 55:         if(UARTdat == 0X2D)UARTval--;
  5800  0E4B  302D               	movlw	45
  5801  0E4C  067A               	xorwf	_UARTdat,w
  5802  0E4D  1D03               	btfss	3,2
  5803  0E4E  2E50               	goto	u271_21
  5804  0E4F  2E51               	goto	u271_20
  5805  0E50                     u271_21:
  5806  0E50  2E53               	goto	i1l2264
  5807  0E51                     u271_20:
  5808  0E51                     i1l2262:
  5809  0E51  3001               	movlw	1
  5810  0E52  02E2               	subwf	_UARTval,f
  5811  0E53                     i1l2264:
  5812                           
  5813                           ;main.c: 56:         PIR1bits.RCIF = 0;
  5814  0E53  128C               	bcf	12,5	;volatile
  5815  0E54                     i1l2266:
  5816                           
  5817                           ;main.c: 59:     if(PIR1bits.ADIF){
  5818  0E54  1F0C               	btfss	12,6	;volatile
  5819  0E55  2E57               	goto	u272_21
  5820  0E56  2E58               	goto	u272_20
  5821  0E57                     u272_21:
  5822  0E57  2E73               	goto	i1l2278
  5823  0E58                     u272_20:
  5824  0E58                     i1l2268:
  5825                           
  5826                           ;main.c: 60:         ADCON0bits.CHS0 = ~ADCON0bits.CHS0;
  5827  0E58  1003               	clrc
  5828  0E59  1D1F               	btfss	31,2	;volatile
  5829  0E5A  1403               	setc
  5830  0E5B  1803               	btfsc	3,0
  5831  0E5C  2E5E               	goto	u273_21
  5832  0E5D  2E62               	goto	u273_20
  5833  0E5E                     u273_21:
  5834  0E5E  1283               	bcf	3,5	;RP0=0, select bank0
  5835  0E5F  1303               	bcf	3,6	;RP1=0, select bank0
  5836  0E60  151F               	bsf	31,2	;volatile
  5837  0E61  2E65               	goto	u274_24
  5838  0E62                     u273_20:
  5839  0E62  1283               	bcf	3,5	;RP0=0, select bank0
  5840  0E63  1303               	bcf	3,6	;RP1=0, select bank0
  5841  0E64  111F               	bcf	31,2	;volatile
  5842  0E65                     u274_24:
  5843  0E65                     i1l2270:
  5844                           
  5845                           ;main.c: 61:         PIR1bits.ADIF = 0;
  5846  0E65  130C               	bcf	12,6	;volatile
  5847  0E66                     i1l2272:
  5848                           
  5849                           ;main.c: 62:         if(ADCON0bits.CHS0)pot1 = ADRESH;
  5850  0E66  1D1F               	btfss	31,2	;volatile
  5851  0E67  2E69               	goto	u275_21
  5852  0E68  2E6A               	goto	u275_20
  5853  0E69                     u275_21:
  5854  0E69  2E6F               	goto	i1l2276
  5855  0E6A                     u275_20:
  5856  0E6A                     i1l2274:
  5857  0E6A  081E               	movf	30,w	;volatile
  5858  0E6B  00F0               	movwf	??_interrupcion
  5859  0E6C  0870               	movf	??_interrupcion,w
  5860  0E6D  00EC               	movwf	_pot1
  5861  0E6E  2E73               	goto	i1l2278
  5862  0E6F                     i1l2276:
  5863  0E6F  081E               	movf	30,w	;volatile
  5864  0E70  00F0               	movwf	??_interrupcion
  5865  0E71  0870               	movf	??_interrupcion,w
  5866  0E72  00EB               	movwf	_pot2
  5867  0E73                     i1l2278:
  5868                           
  5869                           ;main.c: 66:     if(INTCONbits.T0IF){
  5870  0E73  1D0B               	btfss	11,2	;volatile
  5871  0E74  2E76               	goto	u276_21
  5872  0E75  2E77               	goto	u276_20
  5873  0E76                     u276_21:
  5874  0E76  2E7D               	goto	i1l91
  5875  0E77                     u276_20:
  5876  0E77                     i1l2280:
  5877                           
  5878                           ;main.c: 67:         if(!ADCON0bits.GO)ADCON0bits.GO = 1;
  5879  0E77  189F               	btfsc	31,1	;volatile
  5880  0E78  2E7A               	goto	u277_21
  5881  0E79  2E7B               	goto	u277_20
  5882  0E7A                     u277_21:
  5883  0E7A  2E7C               	goto	i1l90
  5884  0E7B                     u277_20:
  5885  0E7B                     i1l2282:
  5886  0E7B  149F               	bsf	31,1	;volatile
  5887  0E7C                     i1l90:
  5888                           
  5889                           ;main.c: 68:         INTCONbits.T0IF = 0;
  5890  0E7C  110B               	bcf	11,2	;volatile
  5891  0E7D                     i1l91:
  5892  0E7D  0872               	movf	??_interrupcion+2,w
  5893  0E7E  008A               	movwf	10
  5894  0E7F  0E71               	swapf	??_interrupcion+1,w
  5895  0E80  0083               	movwf	3
  5896  0E81  0EFE               	swapf	btemp,f
  5897  0E82  0E7E               	swapf	btemp,w
  5898  0E83  0009               	retfie
  5899  0E84                     __end_of_interrupcion:
  5900  007E                     btemp	set	126	;btemp
  5901  007E                     wtemp0	set	126
  5902                           
  5903                           	psect	intentry
  5904  0004                     __pintentry:	
  5905                           ;incstack = 0
  5906                           ; Regs used in _interrupcion: [wreg+status,2+status,0]
  5907                           
  5908  0004                     interrupt_function:
  5909  007E                     saved_w	set	btemp
  5910  0004  00FE               	movwf	btemp
  5911  0005  0E03               	swapf	3,w
  5912  0006  00F1               	movwf	??_interrupcion+1
  5913  0007  080A               	movf	10,w
  5914  0008  00F2               	movwf	??_interrupcion+2
  5915  0009  120A  158A  2E37   	ljmp	_interrupcion
  5916                           
  5917                           	psect	config
  5918                           
  5919                           ;Config register CONFIG1 @ 0x2007
  5920                           ;	Oscillator Selection bits
  5921                           ;	FOSC = INTRC_NOCLKOUT, INTOSCIO oscillator: I/O function on RA6/OSC2/CLKOUT pin, I/O f
      +                          unction on RA7/OSC1/CLKIN
  5922                           ;	Watchdog Timer Enable bit
  5923                           ;	WDTE = OFF, WDT disabled and can be enabled by SWDTEN bit of the WDTCON register
  5924                           ;	Power-up Timer Enable bit
  5925                           ;	PWRTE = OFF, PWRT disabled
  5926                           ;	RE3/MCLR pin function select bit
  5927                           ;	MCLRE = ON, RE3/MCLR pin function is MCLR
  5928                           ;	Code Protection bit
  5929                           ;	CP = OFF, Program memory code protection is disabled
  5930                           ;	Data Code Protection bit
  5931                           ;	CPD = OFF, Data memory code protection is disabled
  5932                           ;	Brown Out Reset Selection bits
  5933                           ;	BOREN = OFF, BOR disabled
  5934                           ;	Internal External Switchover bit
  5935                           ;	IESO = OFF, Internal/External Switchover mode is disabled
  5936                           ;	Fail-Safe Clock Monitor Enabled bit
  5937                           ;	FCMEN = OFF, Fail-Safe Clock Monitor is disabled
  5938                           ;	Low Voltage Programming Enable bit
  5939                           ;	LVP = OFF, RB3 pin has digital I/O, HV on MCLR must be used for programming
  5940                           ;	In-Circuit Debugger Mode bit
  5941                           ;	DEBUG = 0x1, unprogrammed default
  5942  2007                     	org	8199
  5943  2007  20F4               	dw	8436
  5944                           
  5945                           ;Config register CONFIG2 @ 0x2008
  5946                           ;	Brown-out Reset Selection bit
  5947                           ;	BOR4V = BOR40V, Brown-out Reset set to 4.0V
  5948                           ;	Flash Program Memory Self Write Enable bits
  5949                           ;	WRT = OFF, Write protection off
  5950  2008                     	org	8200
  5951  2008  3FFF               	dw	16383

Data Sizes:
    Strings     32
    Constant    0
    Data        0
    BSS         15
    Persistent  0
    Stack       0

Auto Spaces:
    Space          Size  Autos    Used
    COMMON           14     10      11
    BANK0            80     63      77
    BANK1            80      0       0
    BANK3            96      0       0
    BANK2            96      0       0

Pointer List with Targets:

    divisiondecimal@cent	PTR unsigned char  size(1) Largest target is 1
		 -> sendhex@centena(BANK0[1]), 

    divisiondecimal@dec	PTR unsigned char  size(1) Largest target is 1
		 -> sendhex@decena(BANK0[1]), 

    divisiondecimal@un	PTR unsigned char  size(1) Largest target is 1
		 -> sendhex@unidad(BANK0[1]), 

    division@dec	PTR unsigned char  size(1) Largest target is 1
		 -> sendfloat@digdecimal(BANK0[1]), 

    division@un	PTR unsigned char  size(1) Largest target is 1
		 -> sendfloat@digdecimal(BANK0[1]), 

    sendString@mensaje	PTR unsigned char  size(1) Largest target is 8
		 -> STR_6(CODE[2]), STR_5(CODE[2]), STR_4(CODE[6]), STR_3(CODE[8]), 
		 -> STR_2(CODE[8]), STR_1(CODE[8]), 

    CONVdec@lectura	PTR unsigned char  size(1) Largest target is 1
		 -> pot2(BANK0[1]), pot1(BANK0[1]), 

    CONVdec@equiv	PTR float  size(1) Largest target is 4
		 -> val2(BANK0[4]), val1(BANK0[4]), 


Critical Paths under _main in COMMON

    _main->_cursorLCD
    _sendhex->_divisiondecimal
    _divisiondecimal->___awdiv
    _sendfloat->_division
    _sendString->_send1dato
    _division->___awdiv
    ___flsub->___fladd
    ___flsub->___xxtofl
    _initLCD->_comandoLCD
    _cursorLCD->_comandoLCD
    _configuracion->_ADCconfig
    _ClearLCD->_comandoLCD
    _CONVdec->___xxtofl
    ___flmul->__Umul8_16
    ___flmul->___xxtofl

Critical Paths under _interrupcion in COMMON

    None.

Critical Paths under _main in BANK0

    _main->_sendfloat
    _sendhex->_divisiondecimal
    _divisiondecimal->___awdiv
    _sendfloat->___fltol
    _division->___awdiv
    ___fltol->___flmul
    ___flsub->___fladd
    _CONVdec->___flmul
    ___flmul->___xxtofl

Critical Paths under _interrupcion in BANK0

    None.

Critical Paths under _main in BANK1

    None.

Critical Paths under _interrupcion in BANK1

    None.

Critical Paths under _main in BANK3

    None.

Critical Paths under _interrupcion in BANK3

    None.

Critical Paths under _main in BANK2

    None.

Critical Paths under _interrupcion in BANK2

    None.

Call Graph Tables:

 ---------------------------------------------------------------------------------
 (Depth) Function   	        Calls       Base Space   Used Autos Params    Refs
 ---------------------------------------------------------------------------------
 (0) _main                                                 3     3      0   18485
                                             60 BANK0      3     3      0
                            _CONVdec
                           _ClearLCD
                      _configuracion
                          _cursorLCD
                           _dispCHAR
                            _initLCD
                         _sendString
                          _sendfloat
                            _sendhex
 ---------------------------------------------------------------------------------
 (1) _sendhex                                              7     7      0    2447
                                             10 BANK0      7     7      0
                    _divisiondecimal
                          _send1dato
 ---------------------------------------------------------------------------------
 (2) _divisiondecimal                                      8     5      3    2166
                                              8 COMMON     2     2      0
                                              4 BANK0      6     3      3
                            ___awdiv
                             ___bmul
 ---------------------------------------------------------------------------------
 (1) _sendfloat                                           15    11      4   10776
                                             45 BANK0     15    11      4
                            ___flmul
                            ___flsub
                            ___fltol
                           ___xxtofl
                           _division
                          _send1dato
                         _sendString
 ---------------------------------------------------------------------------------
 (2) _sendString                                           2     2      0     265
                                              4 COMMON     2     2      0
                          _send1dato
 ---------------------------------------------------------------------------------
 (2) _send1dato                                            1     1      0      22
                                              3 COMMON     1     1      0
 ---------------------------------------------------------------------------------
 (2) _division                                             7     5      2    1887
                                              8 COMMON     2     0      2
                                              4 BANK0      5     5      0
                            ___awdiv
                             ___bmul
 ---------------------------------------------------------------------------------
 (3) ___bmul                                               4     3      1     406
                                              3 COMMON     4     3      1
 ---------------------------------------------------------------------------------
 (3) ___awdiv                                              9     5      4     985
                                              3 COMMON     5     1      4
                                              0 BANK0      4     4      0
 ---------------------------------------------------------------------------------
 (2) ___fltol                                             11     7      4     517
                                              7 COMMON     2     2      0
                                             36 BANK0      9     5      4
                            ___flmul (ARG)
 ---------------------------------------------------------------------------------
 (2) ___flsub                                              8     0      8    3367
                                             16 BANK0      8     0      8
                            ___fladd
                           ___xxtofl (ARG)
 ---------------------------------------------------------------------------------
 (3) ___fladd                                             20    12      8    3122
                                              3 COMMON     4     4      0
                                              0 BANK0     16     8      8
 ---------------------------------------------------------------------------------
 (1) _initLCD                                              2     2      0      22
                                              6 COMMON     2     2      0
                         _comandoLCD
 ---------------------------------------------------------------------------------
 (1) _dispCHAR                                             2     2      0      22
                                              3 COMMON     2     2      0
 ---------------------------------------------------------------------------------
 (1) _cursorLCD                                            4     3      1     308
                                              6 COMMON     4     3      1
                         _comandoLCD
 ---------------------------------------------------------------------------------
 (1) _configuracion                                        0     0      0     120
                          _ADCconfig
                         _configUART
 ---------------------------------------------------------------------------------
 (2) _configUART                                           0     0      0       0
 ---------------------------------------------------------------------------------
 (2) _ADCconfig                                            4     3      1     120
                                              3 COMMON     4     3      1
 ---------------------------------------------------------------------------------
 (1) _ClearLCD                                             0     0      0      22
                         _comandoLCD
 ---------------------------------------------------------------------------------
 (2) _comandoLCD                                           3     3      0      22
                                              3 COMMON     3     3      0
 ---------------------------------------------------------------------------------
 (1) _CONVdec                                              6     5      1    4503
                                              7 COMMON     1     1      0
                                             36 BANK0      5     4      1
                            ___flmul
                           ___xxtofl
 ---------------------------------------------------------------------------------
 (2) ___xxtofl                                            14    10      4     656
                                              3 COMMON     4     0      4
                                              0 BANK0     10    10      0
 ---------------------------------------------------------------------------------
 (2) ___flmul                                             26    18      8    3533
                                             10 BANK0     26    18      8
                          __Umul8_16
                           ___xxtofl (ARG)
 ---------------------------------------------------------------------------------
 (3) __Umul8_16                                            9     7      2     980
                                              3 COMMON     4     2      2
                                              0 BANK0      5     5      0
 ---------------------------------------------------------------------------------
 Estimated maximum stack depth 3
 ---------------------------------------------------------------------------------
 (Depth) Function   	        Calls       Base Space   Used Autos Params    Refs
 ---------------------------------------------------------------------------------
 (4) _interrupcion                                         3     3      0       0
                                              0 COMMON     3     3      0
 ---------------------------------------------------------------------------------
 Estimated maximum stack depth 4
 ---------------------------------------------------------------------------------

 Call Graph Graphs:

 _main (ROOT)
   _CONVdec
     ___flmul
       __Umul8_16
       ___xxtofl (ARG)
     ___xxtofl
   _ClearLCD
     _comandoLCD
   _configuracion
     _ADCconfig
     _configUART
   _cursorLCD
     _comandoLCD
   _dispCHAR
   _initLCD
     _comandoLCD
   _sendString
     _send1dato
   _sendfloat
     ___flmul
       __Umul8_16
       ___xxtofl (ARG)
     ___flsub
       ___fladd
       ___xxtofl (ARG)
     ___fltol
       ___flmul (ARG)
         __Umul8_16
         ___xxtofl (ARG)
     ___xxtofl
     _division
       ___awdiv
       ___bmul
     _send1dato
     _sendString
       _send1dato
   _sendhex
     _divisiondecimal
       ___awdiv
       ___bmul
     _send1dato

 _interrupcion (ROOT)

 Address spaces:
Name               Size   Autos  Total    Cost      Usage
BITCOMMON            E      0       0       0        0.0%
EEDATA             100      0       0       0        0.0%
NULL                 0      0       0       0        0.0%
CODE                 0      0       0       0        0.0%
COMMON               E      A       B       1       78.6%
BITSFR0              0      0       0       1        0.0%
SFR0                 0      0       0       1        0.0%
BITSFR1              0      0       0       2        0.0%
SFR1                 0      0       0       2        0.0%
STACK                0      0       0       2        0.0%
ABS                  0      0      58       3        0.0%
BITBANK0            50      0       0       4        0.0%
BITSFR3              0      0       0       4        0.0%
SFR3                 0      0       0       4        0.0%
BANK0               50     3F      4D       5       96.2%
BITSFR2              0      0       0       5        0.0%
SFR2                 0      0       0       5        0.0%
BITBANK1            50      0       0       6        0.0%
BANK1               50      0       0       7        0.0%
BITBANK3            60      0       0       8        0.0%
BANK3               60      0       0       9        0.0%
BITBANK2            60      0       0      10        0.0%
BANK2               60      0       0      11        0.0%
DATA                 0      0      58      12        0.0%


Microchip Technology PIC Macro Assembler V2.31 build 20201012212115 
Symbol Table                                                                                   Fri Jul 23 11:44:22 2021

                       pc 0002            ___bmul@product 0075              ___awdiv@sign 0021  
          ?_configuracion 0070                        fsr 0004       __Umul8_16@word_mpld 0022  
                     l102 0D1E                       l200 07FD                       l123 0D5F  
                     l140 0BFF                       l117 0DA4                       l143 0BD7  
                     l312 0C28                       l152 0C47                       l146 0BDD  
                     l155 0779                       l164 0DEC                       l173 07F6  
                     l158 0CE8                       l600 0562                       l194 0C6A  
                     l186 0E36                       l610 05A8                       l604 0586  
                     l197 0C13                       l189 0BED                       l621 0608  
                     l613 05E6                       l622 0614                       l439 0EEC  
                     l472 0F68                       l721 06D0                       l625 0C8E  
                     l482 0F68                       l732 069A                       l733 06A6  
                     l725 067E                       l719 0639                       l583 0491  
                     l479 0F53                       l592 0614                       l681 02F0  
                     l585 0466                       l675 0384                       l579 03E8  
                     l694 0CA5                       l687 0378                       l696 0CB7  
      __size_of_ADCconfig 0045                       _RC0 0038                       _RC1 0039  
                     fsr0 0004                       indf 0000              ___flmul@aexp 0038  
            ___flmul@bexp 003D              ___flmul@sign 0037              ___flmul@temp 0042  
            ___flmul@prod 003E           __end_of_CONVdec 0D60              ___fltol@exp1 0078  
                    l2200 0E1E                      l2202 0E24                      l2204 0E2A  
                    l2150 0CEE                      l2206 0E30                      l2232 07F7  
                    l2160 0D08                      l2152 0CFD                      l2240 0C59  
                    l2400 03A9                      l2170 0D0D                      l2162 0D09  
                    l2154 0D02                      l2146 0CE9                      l2242 0C5F  
                    l2234 0C49                      l2250 0BE4                      l2410 03BF  
                    l2402 03AA                      l2330 0C16                      l2180 0D18  
                    l2172 0D0E                      l2164 0D0A                      l2156 0D06  
                    l2148 0CED                      l2244 0C64                      l2236 0C4E  
                    l2252 0BEA                      l2500 04D1                      l2420 03D0  
                    l2412 03C0                      l2404 03AC                      l2332 0C1A  
                    l2182 0D1B                      l2174 0D0F                      l2166 0D0B  
                    l2158 0D07                      l2238 0C53                      l2246 0BDF  
                    l2190 0DFA                      l2510 04FC                      l2502 04D5  
                    l2430 03EE                      l2422 03D5                      l2414 03C6  
                    l2406 03B4                      l2350 0E92                      l2342 0E84  
                    l2334 0C1E                      l2176 0D10                      l2168 0D0C  
                    l2248 0BE2                      l2192 0E00                      l2184 0DED  
                    l2520 056A                      l2512 053A                      l2504 04D6  
                    l2440 0402                      l2432 03F2                      l2424 03DD  
                    l2416 03CA                      l2408 03B9                      l2360 0EA7  
                    l2352 0E96                      l2344 0E87                      l2336 0C20  
                    l2328 0C15                      l2600 0DB4                      l2178 0D11  
                    l2194 0E09                      l2186 0DF0                      l2530 0585  
                    l2522 056F                      l2514 0540                      l2506 04DF  
                    l2450 0416                      l2442 0406                      l2434 03F6  
                    l2426 03DE                      l2418 03CB                      l2370 0ECA  
                    l2362 0EAA                      l2354 0E9B                      l2346 0E8B  
                    l2338 0C27                      l2602 0DDF                      l1562 0BD3  
                    l2610 0785                      l2700 0076                      l2196 0E0F  
                    l2188 0DF1                      l2532 058A                      l2540 0596  
                    l2516 0545                      l2508 04E4                      l2460 042A  
                    l2452 041A                      l2444 040A                      l2436 03FA  
                    l2428 03E0                      l2380 0EE3                      l2372 0ED0  
                    l2364 0EB1                      l2356 0E9F                      l2348 0E90  
                    l2604 0DE5                      l2620 07E9                      l2612 0788  
                    l2710 0091                      l2702 007E                      l2198 0E18  
                    l2534 058D                      l2526 0578                      l2518 0554  
                    l2542 059A                      l2470 046A                      l2462 042E  
                    l2454 041E                      l2446 040E                      l2438 03FE  
                    l2390 0392                      l2630 0F03                      l2382 0EE8  
                    l2374 0ED1                      l2366 0EB5                      l2358 0EA1  
                    l1830 0C2A                      l2622 07EF                      l2614 078C  
                    l2606 077B                      l2800 0371                      l2720 0113  
                    l2712 00A1                      l2704 0083                      l1912 0C01  
                    l1840 0BF2                      l2560 05E2                      l2552 05AD  
                    l2544 059B                      l2536 058F                      l2528 0581  
                    l2480 0487                      l2472 0475                      l2456 0422  
                    l2448 0412                      l2464 0432                      l2392 0396  
                    l2640 0F27                      l2632 0F18                      l2624 0EED  
                    l2376 0ED8                      l2368 0EB9                      l1832 0C2B  
                    l2616 07B7                      l2608 0781                      l2802 037C  
                    l2730 0181                      l2722 012F                      l2714 00AE  
                    l2706 0088                      l2810 0621                      l1914 0C04  
                    l1850 0BFC                      l1842 0BF4                      l2570 05FE  
                    l2562 05EB                      l2554 05B2                      l2546 059F  
                    l2538 0594                      l2490 04A5                      l2474 0477  
                    l2482 048B                      l2466 0433                      l2458 0426  
                    l2394 0397                      l2386 0385                      l2634 0F19  
                    l2626 0EFA                      l2378 0EDE                      l1834 0C37  
                    l2618 07BE                      l2580 0C92                      l2740 0211  
                    l2732 0191                      l2724 014B                      l2716 00CB  
                    l2820 064F                      l2812 0631                      l1916 0C06  
                    l1860 0D75                      l1852 0D61                      l1844 0BF5  
                    l2572 0602                      l2564 05F0                      l2556 05C0  
                    l2548 05A5                      l2492 04BE                      l2484 0495  
                    l2476 047D                      l2468 044A                      l2396 039C  
                    l2388 038C                      l2660 0C6B                      l2636 0F21  
                    l1836 0C3B                      l2590 0CB3                      l2582 0C94  
                    l2750 02A5                      l2742 0221                      l2734 01AE  
                    l2726 0154                      l2718 00E7                      l2670 0031  
                    l2830 0685                      l2822 065C                      l2814 0641  
                    l2806 0618                      l1918 0C10                      l1870 0D9A  
                    l1854 0D62                      l1846 0BF6                      l1838 0BEE  
                    l2574 0604                      l2566 05F8                      l2558 05C4  
                    l2494 04C2                      l2486 049A                      l2478 047E  
                    l2398 03A1                      l2662 0C6F                      l2654 0F48  
                    l2646 0F2F                      l2638 0F23                      l2584 0C9B  
                    l2760 02CA                      l2752 02B3                      l2744 024E  
                    l2736 01C7                      l2728 0164                      l2680 0048  
                    l2672 0035                      l2840 06BE                      l2832 0690  
                    l2824 0663                      l2808 061D                      l1872 0D9B  
                    l1856 0D67                      l1864 0D7A                      l1848 0BF9  
                    l2576 060F                      l2568 05FD                      l2496 04C6  
                    l2656 0F58                      l2648 0F41                      l2586 0C9F  
                    l2770 02ED                      l2754 02BC                      l2762 02D0  
                    l2746 0274                      l2738 01E4                      l2690 0061  
                    l2682 004A                      l2674 0036                      l2666 0024  
                    l2842 06C3                      l2834 0694                      l2826 0667  
                    l2818 064A                      l2850 0D20                      l1874 0DA2  
                    l1858 0D6E                      l1866 0D90                      l2578 0613  
                    l2498 04CF                      l2658 0F5D                      l2594 0DA8  
                    l2588 0CAE                      l2780 030C                      l2764 02D4  
                    l2756 02C0                      l2748 029C                      l2692 0062  
                    l2684 0052                      l2676 003B                      l2668 002B  
                    l2844 06C7                      l2836 069E                      l2828 0675  
                    l1876 0DA3                      l1868 0D99                      l2596 0DAC  
                    l2860 0752                      l2852 06D1                      l2790 0352  
                    l2782 0325                      l2774 02F5                      l2766 02D5  
                    l2758 02C1                      l2694 0067                      l2686 0057  
                    l2678 0040                      l2846 06C8                      l2838 06A8  
                    l2918 0D85                      l2598 0DB0                      l2862 0761  
                    l2854 06E6                      l2870 0CD6                      l2792 035C  
                    l2776 02FA                      l2784 032B                      l2768 02D9  
                    l2696 006C                      l2688 005D                      l2864 076A  
                    l2856 071A                      l2872 0CDF                      l2880 0F79  
                    l2794 035E                      l2786 0338                      l2778 0308  
                    l2698 0074                      l2858 0744                      l2866 0CBB  
                    l2890 0FB5                      l2882 0F85                      l2874 0F69  
                    l2796 036C                      l2788 0343                      l2868 0CCD  
                    l2892 0FBB                      l2884 0F94                      l2876 0F6E  
                    l2798 0370                      l2894 0FC3                      l2886 0F9A  
                    l2878 0F73                      l2896 0FEE                      l2888 0FA6  
                    STR_1 0806                      STR_2 080E                      STR_3 0816  
                    STR_4 081E                      STR_5 0824                      STR_6 0822  
                    u2020 0C47                      u2021 0C46                      u3000 0455  
                    u1400 0BDD                      u3001 0453                      u1401 0BDC  
                    u3010 0456                      u3100 04C6                      u3020 046A  
                    u3101 04C5                      u3021 0469                      u3110 04D5  
                    u3030 047D                      u3111 04D4                      u3031 047C  
                    u4000 06B3                      u3200 0585                      u3201 0584  
                    u4010 06C3                      u3210 058A                      u3130 04FC  
                    u3050 0491                      u4011 06C2                      u3211 0589  
                    u3131 04FB                      u3051 0490                      u4020 06C7  
                    u3300 05E2                      u3220 0594                      u3060 0495  
                    u4021 06C6                      u4005 06AE                      u3301 05E1  
                    u3221 0593                      u3141 0513                      u3133 04F8  
                    u3125 04D8                      u3061 0494                      u3045 0480  
                    u3310 05EB                      u3230 059A                      u3150 0527  
                    u3142 0514                      u3070 049A                      u3311 05EA  
                    u3231 0599                      u3151 0528                      u3143 0519  
                    u3071 0499                      u3320 05F0                      u3240 059F  
                    u3160 0545                      u3152 052D                      u3144 051A  
                    u3400 07BD                      u3321 05EF                      u3241 059E  
                    u3161 0544                      u3153 052E                      u3145 051F  
                    u3081 04B0                      u3401 07BC                      u3330 05FD  
                    u3250 05A5                      u3170 056A                      u3146 0520  
                    u3090 04C2                      u3082 04B7                      u3410 07EF  
                    u3331 05FC                      u3251 05A4                      u3171 0569  
                    u3091 04C1                      u3083 04BE                      u3411 07EE  
                    u3340 0602                      u3260 05AC                      u3180 056F  
                    u3500 0F58                      u3420 0EFA                      u3341 0601  
                    u3261 05AB                      u3181 056E                      u3501 0F57  
                    u3421 0EF9                      u4037 0FF6                      u3350 0613  
                    u3270 05B2                      u3510 0F5D                      u3430 0F11  
                    u4047 0DF5                      u3351 0612                      u3271 05B1  
                    u3511 0F5C                      u3360 0C9F                      u3520 0035  
                    u3280 05C4                      u3440 0F27                      u2800 0E8B  
                    u3361 0C9E                      u3601 00D9                      u3521 0034  
                    u4057 0E04                      u3281 05C3                      u3441 0F26  
                    u2801 0E8A                      u3602 00E0                      u3530 003B  
                    u3290 05D3                      u3450 0F2E                      u2810 0E96  
                    u3611 00F5                      u3603 00E7                      u3531 003A  
                    u4067 0E13                      u3195 057A                      u3451 0F2D  
                    u3435 0F0C                      u2811 0E95                      u3380 0CB3  
                    u3612 00FC                      u3540 0040                      u2900 0396  
                    u2820 0EA7                      u3381 0CB2                      u3701 0230  
                    u3621 0121                      u3613 0103                      u3541 003F  
                    u4077 0BE7                      u2901 0395                      u2821 0EA6  
                    u3710 025A                      u3702 0237                      u3622 0128  
                    u3550 0061                      u2670 0C4E                      u2910 039C  
                    u3470 0F40                      u3390 0DE5                      u3375 0CA6  
                    u3703 023E                      u3631 013D                      u3623 012F  
                    u3551 0060                      u4087 0C0B                      u2671 0C4D  
                    u3295 05CE                      u2911 039B                      u3471 0F3F  
                    u3391 0DE4                      u3800 02D9                      u3632 0144  
                    u3560 0067                      u2680 0C5F                      u2920 03A1  
                    u3480 0F47                      u2840 0EB9                      u3801 02D8  
                    u3721 0266                      u3633 014B                      u3561 0066  
                    u2681 0C5E                      u2921 03A0                      u3481 0F46  
                    u3465 0F30                      u2841 0EB8                      u3810 02ED  
                    u3730 0282                      u3722 026D                      u3570 006C  
                    u2930 03BF                      u3811 02EC                      u3723 0274  
                    u3715 0255                      u3651 0173                      u3571 006B  
                    u2931 03BE                      u2835 0EAB                      u3820 02F4  
                    u3652 017A                      u3580 0083                      u3900 0621  
                    u2940 03CA                      u2860 0ECA                      u2780 0C1A  
                    u3821 02F3                      u3741 028E                      u3661 01A0  
                    u3653 0181                      u3645 014D                      u3581 0082  
                    u3901 0620                      u2941 03C9                      u2861 0EC9  
                    u2781 0C19                      u3830 02FA                      u3742 0295  
                    u3662 01A7                      u3590 0088                      u3910 0641  
                    u2950 03D0                      u2790 0C27                      u3831 02F9  
                    u3743 029C                      u3735 027D                      u3663 01AE  
                    u3591 0087                      u3911 0640                      u2951 03CF  
                    u3495 0F4A                      u2855 0EBA                      u2791 0C26  
                    u3840 030C                      u2960 03D5                      u2880 0EDE  
                    u3841 030B                      u3681 01D6                      u2961 03D4  
                    u2881 0EDD                      u2865 0EC6                      u3850 031B  
                    u3770 02C0                      u3682 01DD                      u3930 0662  
                    u2970 03EE                      u2890 0EE3                      u3771 02BF  
                    u3755 029E                      u3691 0203                      u3683 01E4  
                    u3675 01B0                      u3931 0661                      u2971 03ED  
                    u2891 0EE2                      u2875 0ED2                      u3860 0338  
                    u3692 020A                      u2980 03F2                      u3861 0337  
                    u3765 02B5                      u3693 0211                      u3925 0654  
                    u2981 03F1                      u3870 0352                      u3790 02D4  
                    u3950 0684                      u2990 044A                      u3871 0351  
                    u3855 0316                      u3791 02D3                      u3951 0683  
                    u2991 0449                      u3880 0370                      u3881 036F  
                    u3865 0334                      u3785 02C3                      u3945 0676  
                    i1l90 0E7C                      u3970 0694                      u3890 061D  
                    i1l91 0E7D                      u3875 034E                      u3971 0693  
                    u3891 061C                      u2995 0446                      i1l84 0E4B  
                    u3980 069A                      u3981 0699                      u3965 0689  
                    u3990 069E                      u3991 069D                      _main 0F69  
                    _val1 0067                      _val2 0063                      _pot1 006C  
                    _pot2 006B                      btemp 007E           _divisiondecimal 077A  
                    start 000C         ___bmul@multiplier 0076               division@dec 0079  
             division@div 0028             ___fltol@sign1 0077           __end_of___fladd 0615  
                   ?_main 0070           __end_of___awdiv 0EED           __end_of___flmul 0385  
         __end_of___flsub 0C8F           __end_of___fltol 0F69                     _ANSEL 0188  
         ___awdiv@divisor 0073           ___awdiv@counter 0020                     _RCREG 001A  
            CONVdec@equiv 0044                     _SPBRG 0099                     _PORTA 0005  
                   _PORTB 0006                     _PORTC 0007                     _PORTD 0008  
                   _PORTE 0009                     _TRISA 0085                     _TRISB 0086  
                   _TRISC 0087                     _TRISD 0088                     _TRISE 0089  
                   _TXREG 0019             send1dato@dato 0073           __end_of_initLCD 0E37  
                   _disp1 005F           __end_of_sendhex 0CE9                     pclath 000A  
                   status 0003                     wtemp0 007E          __end_of_ClearLCD 07FE  
       __end_of_ADCconfig 0DA5            sendhex@centena 002F           __initialization 000F  
            __end_of_main 1000           ??_configuracion 0077                    ??_main 005C  
     divisiondecimal@cent 0026                 ??_CONVdec 0045                    _ADRESH 001E  
        ___awdiv@dividend 0075   __end_of_divisiondecimal 07F7                    _ANSELH 0189  
                  i1l2260 0E47                    i1l2270 0E65                    i1l2262 0E51  
                  i1l2254 0E37                    i1l2280 0E77                    i1l2272 0E66  
                  i1l2264 0E53                    i1l2256 0E3D                    i1l2282 0E7B  
                  i1l2274 0E6A                    i1l2258 0E41                    i1l2266 0E54  
                  i1l2276 0E6F                    i1l2268 0E58                    i1l2278 0E73  
                  u270_20 0E47                    u270_21 0E46                    u271_20 0E51  
                  u271_21 0E50                    u272_20 0E58                    u272_21 0E57  
                  u273_20 0E62                    u273_21 0E5E                    u274_24 0E65  
                  u275_20 0E6A                    u275_21 0E69                    u276_20 0E77  
                  u276_21 0E76                    u277_20 0E7B                    u269_20 0E3D  
                  u277_21 0E7A                    u269_21 0E3C             ADCconfig@just 0073  
          sendfloat@valor 004D          __end_of___xxtofl 06D1          __end_of_dispCHAR 0BEE  
                  ___bmul 0C14          __end_of_division 0DED                 ??___fladd 0028  
               ??___awdiv 0077                 ??___flmul 0032                 ??___flsub 0077  
               ??___fltol 0048          ___awdiv@quotient 0022                 ??_initLCD 0076  
      __size_of__Umul8_16 0029                    saved_w 007E                 ??_sendhex 002A  
            ___xxtofl@arg 0026              ___xxtofl@exp 0025              ___xxtofl@val 0073  
 __end_of__initialization 0020                ___fltol@f1 0044       ___bmul@multiplicand 0073  
          __pcstackCOMMON 0070             ?_interrupcion 0070            _OPTION_REGbits 0081  
               ?_ClearLCD 0070          ?_divisiondecimal 0024                __pbssBANK0 005F  
      __size_of_cursorLCD 0023         __end_of__Umul8_16 0CB8        __size_of_send1dato 000C  
          ??_interrupcion 0070                __pmaintext 0F69                   ?___bmul 0073  
              __pintentry 0004        __size_of_sendfloat 00A9                _comandoLCD 0C00  
                 _CONVdec 0D1F                _configUART 0BEE            ADCconfig@canal 0076  
               ?___xxtofl 0073                ??_ClearLCD 0076            CONVdec@lectura 0077  
               ?_dispCHAR 0070                   _UARTdat 007A           sendfloat@entero 005A  
                 _UARTval 0062                __stringtab 0800                 ?_division 0078  
               _ADCconfig 0D60           __size_of___bmul 0015                   ___fladd 0385  
                 ___awdiv 0E84                   ___flmul 0024                   ___flsub 0C6B  
                 ___fltol 0EED                   __ptext1 0CB8                   __ptext2 077A  
                 __ptext3 06D1                   __ptext4 0C29                   __ptext5 0BD2  
                 __ptext6 0DA5                   __ptext7 0C14                   __ptext8 0E84  
                 __ptext9 0EED                   _initLCD 0DED         __end_of_cursorLCD 0C6B  
              ??___xxtofl 0020                   _sendhex 0CB8                ??_dispCHAR 0073  
       __end_of_send1dato 0BDE      end_of_initialization 0020                ??_division 0024  
       __end_of_sendfloat 077A                _sendString 0C29                 _RCSTAbits 0018  
              ?_ADCconfig 0073     __end_of_configuracion 0D1F               ?_comandoLCD 0070  
             ___fladd@grs 0076               ?_configUART 0070             ___xxtofl@sign 0024  
               _TRISCbits 0087      __end_of_interrupcion 0E84               ___flmul@grs 0039  
               _TXSTAbits 0098                division@un 0078            __end_of___bmul 0C29  
     start_initialization 000F            division@conteo 0027             sendhex@decena 0030  
       __size_of_ClearLCD 0007             sendhex@unidad 002E        divisiondecimal@dec 0025  
      divisiondecimal@div 0079               ?_sendString 0070             sendfloat@temp 0055  
     __size_of_comandoLCD 0014       __size_of_configUART 0012               ??_ADCconfig 0074  
                ??___bmul 0074                 __Umul8_16 0C8F                 ___fladd@a 0024  
               ___fladd@b 0020                  ?_CONVdec 0044     divisiondecimal@conteo 0078  
               ___flmul@a 002E                 ___flmul@b 002A               __pbssCOMMON 007A  
               ___flsub@a 0030                 ___flsub@b 0034                 ___latbits 0002  
           __pcstackBANK0 0020         __size_of___xxtofl 00BC         __size_of_dispCHAR 0010  
       __size_of_division 0048  __size_of_divisiondecimal 007D                  ?___fladd 0020  
                ?___awdiv 0073                  ?___flmul 002A                  ?___flsub 0030  
                ?___fltol 0044                ?__Umul8_16 0073                 __pstrings 0800  
     __size_of_sendString 001F     __size_of_interrupcion 004D                  ?_initLCD 0070  
                ?_sendhex 0070                 _cursorLCD 0C48                 _send1dato 0BD2  
       interrupt_function 0004         sendString@mensaje 0075                  _PIE1bits 008C  
               dispCHAR@b 0074                 _sendfloat 06D1                  _PIR1bits 000C  
        sendfloat@decimal 0059              _interrupcion 0E37                _ADCON0bits 001F  
             __stringbase 0805                _ADCON1bits 009F              ??_comandoLCD 0073  
            ??_configUART 0073                  _ClearLCD 07F7          __size_of_CONVdec 0041  
              ?_cursorLCD 0076                ?_send1dato 0070              sendhex@valor 002D  
       divisiondecimal@un 0024                ?_sendfloat 004D        __end_of_comandoLCD 0C14  
      __end_of_configUART 0C00               ??__Umul8_16 0075          __size_of___fladd 0290  
        __size_of___awdiv 0069          __size_of___flmul 0361          __size_of___flsub 0024  
        __size_of___fltol 007C         ??_divisiondecimal 0027        __end_of__stringtab 0806  
        __size_of_initLCD 004A                  ___xxtofl 0615                  _dispCHAR 0BDE  
        __size_of_sendhex 0031                  __ptext10 0C6B                  __ptext11 0385  
                __ptext20 0D1F                  __ptext12 0DED                  __ptext21 0615  
                __ptext13 0BDE                  __ptext22 0024                  __ptext14 0C48  
                __ptext23 0C8F                  __ptext15 0CE9                  __ptext24 0E37  
                __ptext16 0BEE                  __ptext17 0D60                  __ptext18 07F7  
                __ptext19 0C00                  _division 0DA5              ??_sendString 0074  
  __size_of_configuracion 0036             __size_of_main 0097             cursorLCD@fila 0078  
           cursorLCD@temp 0079       sendfloat@digdecimal 005B        __end_of_sendString 0C48  
              _INTCONbits 000B               ??_cursorLCD 0077                  intlevel1 0000  
             ??_send1dato 0073               ??_sendfloat 0051                 stringcode 0800  
              _OSCCONbits 008F             _configuracion 0CE9          cursorLCD@columna 0076  
  __Umul8_16@multiplicand 0073                  stringdir 0800                  stringtab 0800  
           ___fladd@signs 0073              ___fladd@aexp 0074              ___fladd@bexp 0075  
    __Umul8_16@multiplier 0024         __Umul8_16@product 0020             comandoLCD@cmd 0075  
