

Microchip MPLAB XC8 Assembler V2.31 build 20201012212115 
                                                                                               Fri Jul 23 10:14:50 2021

Microchip MPLAB XC8 C Compiler v2.31 (Free license) build 20201012212115 Og1 
     1                           	processor	16F887
     2                           	pagewidth 120
     3                           	opt	flic
     4                           	psect	strings,global,class=STRING,delta=2,noexec
     5                           	psect	cinit,global,class=CODE,merge=1,delta=2
     6                           	psect	bssCOMMON,global,class=COMMON,space=1,delta=1,noexec
     7                           	psect	bssBANK0,global,class=BANK0,space=1,delta=1,noexec
     8                           	psect	cstackCOMMON,global,class=COMMON,space=1,delta=1,noexec
     9                           	psect	cstackBANK0,global,class=BANK0,space=1,delta=1,noexec
    10                           	psect	maintext,global,class=CODE,split=1,delta=2
    11                           	psect	text1,local,class=CODE,merge=1,delta=2
    12                           	psect	text2,local,class=CODE,merge=1,delta=2
    13                           	psect	text3,local,class=CODE,merge=1,delta=2
    14                           	psect	text4,local,class=CODE,merge=1,delta=2
    15                           	psect	text5,local,class=CODE,merge=1,delta=2
    16                           	psect	text6,local,class=CODE,merge=1,delta=2
    17                           	psect	text7,local,class=CODE,merge=1,delta=2,group=1
    18                           	psect	text8,local,class=CODE,merge=1,delta=2,group=1
    19                           	psect	text9,local,class=CODE,merge=1,delta=2,group=1
    20                           	psect	text10,local,class=CODE,merge=1,delta=2,group=1
    21                           	psect	text11,local,class=CODE,merge=1,delta=2,group=1
    22                           	psect	text12,local,class=CODE,merge=1,delta=2
    23                           	psect	text13,local,class=CODE,merge=1,delta=2
    24                           	psect	text14,local,class=CODE,merge=1,delta=2
    25                           	psect	text15,local,class=CODE,merge=1,delta=2
    26                           	psect	text16,local,class=CODE,merge=1,delta=2
    27                           	psect	text17,local,class=CODE,merge=1,delta=2
    28                           	psect	text18,local,class=CODE,merge=1,delta=2
    29                           	psect	text19,local,class=CODE,merge=1,delta=2
    30                           	psect	text20,local,class=CODE,merge=1,delta=2,group=1
    31                           	psect	text21,local,class=CODE,merge=1,delta=2,group=1
    32                           	psect	text22,local,class=CODE,merge=1,delta=2,group=1
    33                           	psect	text23,local,class=CODE,merge=1,delta=2
    34                           	psect	intentry,global,class=CODE,delta=2
    35                           	psect	config,global,abs,ovrld,class=CONFIG,space=4,delta=2,noexec
    36                           	dabs	1,0x7E,2
    37  0000                     
    38                           ; Version 2.20
    39                           ; Generated 12/02/2020 GMT
    40                           ; 
    41                           ; Copyright © 2020, Microchip Technology Inc. and its subsidiaries ("Microchip")
    42                           ; All rights reserved.
    43                           ; 
    44                           ; This software is developed by Microchip Technology Inc. and its subsidiaries ("Microch
      +                          ip").
    45                           ; 
    46                           ; Redistribution and use in source and binary forms, with or without modification, are
    47                           ; permitted provided that the following conditions are met:
    48                           ; 
    49                           ;     1. Redistributions of source code must retain the above copyright notice, this lis
      +                          t of
    50                           ;        conditions and the following disclaimer.
    51                           ; 
    52                           ;     2. Redistributions in binary form must reproduce the above copyright notice, this 
      +                          list
    53                           ;        of conditions and the following disclaimer in the documentation and/or other
    54                           ;        materials provided with the distribution.
    55                           ; 
    56                           ;     3. Microchip's name may not be used to endorse or promote products derived from th
      +                          is
    57                           ;        software without specific prior written permission.
    58                           ; 
    59                           ; THIS SOFTWARE IS PROVIDED BY MICROCHIP "AS IS" AND ANY EXPRESS OR IMPLIED WARRANTIES,
    60                           ; INCLUDING, BUT NOT LIMITED TO, THE IMPLIED WARRANTIES OF MERCHANTABILITY AND FITNESS F
      +                          OR
    61                           ; PURPOSE ARE DISCLAIMED.  IN NO EVENT SHALL MICROCHIP BE LIABLE FOR ANY DIRECT, INDIREC
      +                          T,
    62                           ; INCIDENTAL, SPECIAL, EXEMPLARY, OR CONSEQUENTIAL DAMAGES (INCLUDING BUT NOT LIMITED TO
    63                           ; PROCUREMENT OF SUBSTITUTE GOODS OR SERVICES; LOSS OF USE, DATA OR PROFITS; OR BUSINESS
    64                           ; INTERRUPTION) HOWSOEVER CAUSED AND ON ANY THEORY OF LIABILITY, WHETHER IN CONTRACT, ST
      +                          RICT
    65                           ; LIABILITY, OR TORT (INCLUDING NEGLIGENCE OR OTHERWISE) ARISING IN ANY WAY OUT OF THE U
      +                          SE OF
    66                           ; THIS SOFTWARE, EVEN IF ADVISED OF THE POSSIBILITY OF SUCH DAMAGE.
    67                           ; 
    68                           ; 
    69                           ; Code-generator required, PIC16F887 Definitions
    70                           ; 
    71                           ; SFR Addresses
    72  0000                     	;# 
    73  0001                     	;# 
    74  0002                     	;# 
    75  0003                     	;# 
    76  0004                     	;# 
    77  0005                     	;# 
    78  0006                     	;# 
    79  0007                     	;# 
    80  0008                     	;# 
    81  0009                     	;# 
    82  000A                     	;# 
    83  000B                     	;# 
    84  000C                     	;# 
    85  000D                     	;# 
    86  000E                     	;# 
    87  000E                     	;# 
    88  000F                     	;# 
    89  0010                     	;# 
    90  0011                     	;# 
    91  0012                     	;# 
    92  0013                     	;# 
    93  0014                     	;# 
    94  0015                     	;# 
    95  0015                     	;# 
    96  0016                     	;# 
    97  0017                     	;# 
    98  0018                     	;# 
    99  0019                     	;# 
   100  001A                     	;# 
   101  001B                     	;# 
   102  001B                     	;# 
   103  001C                     	;# 
   104  001D                     	;# 
   105  001E                     	;# 
   106  001F                     	;# 
   107  0081                     	;# 
   108  0085                     	;# 
   109  0086                     	;# 
   110  0087                     	;# 
   111  0088                     	;# 
   112  0089                     	;# 
   113  008C                     	;# 
   114  008D                     	;# 
   115  008E                     	;# 
   116  008F                     	;# 
   117  0090                     	;# 
   118  0091                     	;# 
   119  0092                     	;# 
   120  0093                     	;# 
   121  0093                     	;# 
   122  0093                     	;# 
   123  0094                     	;# 
   124  0095                     	;# 
   125  0096                     	;# 
   126  0097                     	;# 
   127  0098                     	;# 
   128  0099                     	;# 
   129  009A                     	;# 
   130  009B                     	;# 
   131  009C                     	;# 
   132  009D                     	;# 
   133  009E                     	;# 
   134  009F                     	;# 
   135  0105                     	;# 
   136  0107                     	;# 
   137  0108                     	;# 
   138  0109                     	;# 
   139  010C                     	;# 
   140  010C                     	;# 
   141  010D                     	;# 
   142  010E                     	;# 
   143  010F                     	;# 
   144  0185                     	;# 
   145  0187                     	;# 
   146  0188                     	;# 
   147  0189                     	;# 
   148  018C                     	;# 
   149  018D                     	;# 
   150  0000                     	;# 
   151  0001                     	;# 
   152  0002                     	;# 
   153  0003                     	;# 
   154  0004                     	;# 
   155  0005                     	;# 
   156  0006                     	;# 
   157  0007                     	;# 
   158  0008                     	;# 
   159  0009                     	;# 
   160  000A                     	;# 
   161  000B                     	;# 
   162  000C                     	;# 
   163  000D                     	;# 
   164  000E                     	;# 
   165  000E                     	;# 
   166  000F                     	;# 
   167  0010                     	;# 
   168  0011                     	;# 
   169  0012                     	;# 
   170  0013                     	;# 
   171  0014                     	;# 
   172  0015                     	;# 
   173  0015                     	;# 
   174  0016                     	;# 
   175  0017                     	;# 
   176  0018                     	;# 
   177  0019                     	;# 
   178  001A                     	;# 
   179  001B                     	;# 
   180  001B                     	;# 
   181  001C                     	;# 
   182  001D                     	;# 
   183  001E                     	;# 
   184  001F                     	;# 
   185  0081                     	;# 
   186  0085                     	;# 
   187  0086                     	;# 
   188  0087                     	;# 
   189  0088                     	;# 
   190  0089                     	;# 
   191  008C                     	;# 
   192  008D                     	;# 
   193  008E                     	;# 
   194  008F                     	;# 
   195  0090                     	;# 
   196  0091                     	;# 
   197  0092                     	;# 
   198  0093                     	;# 
   199  0093                     	;# 
   200  0093                     	;# 
   201  0094                     	;# 
   202  0095                     	;# 
   203  0096                     	;# 
   204  0097                     	;# 
   205  0098                     	;# 
   206  0099                     	;# 
   207  009A                     	;# 
   208  009B                     	;# 
   209  009C                     	;# 
   210  009D                     	;# 
   211  009E                     	;# 
   212  009F                     	;# 
   213  0105                     	;# 
   214  0107                     	;# 
   215  0108                     	;# 
   216  0109                     	;# 
   217  010C                     	;# 
   218  010C                     	;# 
   219  010D                     	;# 
   220  010E                     	;# 
   221  010F                     	;# 
   222  0185                     	;# 
   223  0187                     	;# 
   224  0188                     	;# 
   225  0189                     	;# 
   226  018C                     	;# 
   227  018D                     	;# 
   228  0000                     	;# 
   229  0001                     	;# 
   230  0002                     	;# 
   231  0003                     	;# 
   232  0004                     	;# 
   233  0005                     	;# 
   234  0006                     	;# 
   235  0007                     	;# 
   236  0008                     	;# 
   237  0009                     	;# 
   238  000A                     	;# 
   239  000B                     	;# 
   240  000C                     	;# 
   241  000D                     	;# 
   242  000E                     	;# 
   243  000E                     	;# 
   244  000F                     	;# 
   245  0010                     	;# 
   246  0011                     	;# 
   247  0012                     	;# 
   248  0013                     	;# 
   249  0014                     	;# 
   250  0015                     	;# 
   251  0015                     	;# 
   252  0016                     	;# 
   253  0017                     	;# 
   254  0018                     	;# 
   255  0019                     	;# 
   256  001A                     	;# 
   257  001B                     	;# 
   258  001B                     	;# 
   259  001C                     	;# 
   260  001D                     	;# 
   261  001E                     	;# 
   262  001F                     	;# 
   263  0081                     	;# 
   264  0085                     	;# 
   265  0086                     	;# 
   266  0087                     	;# 
   267  0088                     	;# 
   268  0089                     	;# 
   269  008C                     	;# 
   270  008D                     	;# 
   271  008E                     	;# 
   272  008F                     	;# 
   273  0090                     	;# 
   274  0091                     	;# 
   275  0092                     	;# 
   276  0093                     	;# 
   277  0093                     	;# 
   278  0093                     	;# 
   279  0094                     	;# 
   280  0095                     	;# 
   281  0096                     	;# 
   282  0097                     	;# 
   283  0098                     	;# 
   284  0099                     	;# 
   285  009A                     	;# 
   286  009B                     	;# 
   287  009C                     	;# 
   288  009D                     	;# 
   289  009E                     	;# 
   290  009F                     	;# 
   291  0105                     	;# 
   292  0107                     	;# 
   293  0108                     	;# 
   294  0109                     	;# 
   295  010C                     	;# 
   296  010C                     	;# 
   297  010D                     	;# 
   298  010E                     	;# 
   299  010F                     	;# 
   300  0185                     	;# 
   301  0187                     	;# 
   302  0188                     	;# 
   303  0189                     	;# 
   304  018C                     	;# 
   305  018D                     	;# 
   306  0000                     	;# 
   307  0001                     	;# 
   308  0002                     	;# 
   309  0003                     	;# 
   310  0004                     	;# 
   311  0005                     	;# 
   312  0006                     	;# 
   313  0007                     	;# 
   314  0008                     	;# 
   315  0009                     	;# 
   316  000A                     	;# 
   317  000B                     	;# 
   318  000C                     	;# 
   319  000D                     	;# 
   320  000E                     	;# 
   321  000E                     	;# 
   322  000F                     	;# 
   323  0010                     	;# 
   324  0011                     	;# 
   325  0012                     	;# 
   326  0013                     	;# 
   327  0014                     	;# 
   328  0015                     	;# 
   329  0015                     	;# 
   330  0016                     	;# 
   331  0017                     	;# 
   332  0018                     	;# 
   333  0019                     	;# 
   334  001A                     	;# 
   335  001B                     	;# 
   336  001B                     	;# 
   337  001C                     	;# 
   338  001D                     	;# 
   339  001E                     	;# 
   340  001F                     	;# 
   341  0081                     	;# 
   342  0085                     	;# 
   343  0086                     	;# 
   344  0087                     	;# 
   345  0088                     	;# 
   346  0089                     	;# 
   347  008C                     	;# 
   348  008D                     	;# 
   349  008E                     	;# 
   350  008F                     	;# 
   351  0090                     	;# 
   352  0091                     	;# 
   353  0092                     	;# 
   354  0093                     	;# 
   355  0093                     	;# 
   356  0093                     	;# 
   357  0094                     	;# 
   358  0095                     	;# 
   359  0096                     	;# 
   360  0097                     	;# 
   361  0098                     	;# 
   362  0099                     	;# 
   363  009A                     	;# 
   364  009B                     	;# 
   365  009C                     	;# 
   366  009D                     	;# 
   367  009E                     	;# 
   368  009F                     	;# 
   369  0105                     	;# 
   370  0107                     	;# 
   371  0108                     	;# 
   372  0109                     	;# 
   373  010C                     	;# 
   374  010C                     	;# 
   375  010D                     	;# 
   376  010E                     	;# 
   377  010F                     	;# 
   378  0185                     	;# 
   379  0187                     	;# 
   380  0188                     	;# 
   381  0189                     	;# 
   382  018C                     	;# 
   383  018D                     	;# 
   384  0000                     	;# 
   385  0001                     	;# 
   386  0002                     	;# 
   387  0003                     	;# 
   388  0004                     	;# 
   389  0005                     	;# 
   390  0006                     	;# 
   391  0007                     	;# 
   392  0008                     	;# 
   393  0009                     	;# 
   394  000A                     	;# 
   395  000B                     	;# 
   396  000C                     	;# 
   397  000D                     	;# 
   398  000E                     	;# 
   399  000E                     	;# 
   400  000F                     	;# 
   401  0010                     	;# 
   402  0011                     	;# 
   403  0012                     	;# 
   404  0013                     	;# 
   405  0014                     	;# 
   406  0015                     	;# 
   407  0015                     	;# 
   408  0016                     	;# 
   409  0017                     	;# 
   410  0018                     	;# 
   411  0019                     	;# 
   412  001A                     	;# 
   413  001B                     	;# 
   414  001B                     	;# 
   415  001C                     	;# 
   416  001D                     	;# 
   417  001E                     	;# 
   418  001F                     	;# 
   419  0081                     	;# 
   420  0085                     	;# 
   421  0086                     	;# 
   422  0087                     	;# 
   423  0088                     	;# 
   424  0089                     	;# 
   425  008C                     	;# 
   426  008D                     	;# 
   427  008E                     	;# 
   428  008F                     	;# 
   429  0090                     	;# 
   430  0091                     	;# 
   431  0092                     	;# 
   432  0093                     	;# 
   433  0093                     	;# 
   434  0093                     	;# 
   435  0094                     	;# 
   436  0095                     	;# 
   437  0096                     	;# 
   438  0097                     	;# 
   439  0098                     	;# 
   440  0099                     	;# 
   441  009A                     	;# 
   442  009B                     	;# 
   443  009C                     	;# 
   444  009D                     	;# 
   445  009E                     	;# 
   446  009F                     	;# 
   447  0105                     	;# 
   448  0107                     	;# 
   449  0108                     	;# 
   450  0109                     	;# 
   451  010C                     	;# 
   452  010C                     	;# 
   453  010D                     	;# 
   454  010E                     	;# 
   455  010F                     	;# 
   456  0185                     	;# 
   457  0187                     	;# 
   458  0188                     	;# 
   459  0189                     	;# 
   460  018C                     	;# 
   461  018D                     	;# 
   462  0019                     _TXREG	set	25
   463  0018                     _RCSTAbits	set	24
   464  0009                     _PORTE	set	9
   465  0008                     _PORTD	set	8
   466  0007                     _PORTC	set	7
   467  0006                     _PORTB	set	6
   468  0005                     _PORTA	set	5
   469  000B                     _INTCONbits	set	11
   470  001E                     _ADRESH	set	30
   471  001F                     _ADCON0bits	set	31
   472  001A                     _RCREG	set	26
   473  000C                     _PIR1bits	set	12
   474  0039                     _RC1	set	57
   475  0038                     _RC0	set	56
   476  0098                     _TXSTAbits	set	152
   477  0099                     _SPBRG	set	153
   478  0087                     _TRISCbits	set	135
   479  009F                     _ADCON1bits	set	159
   480  0081                     _OPTION_REGbits	set	129
   481  008C                     _PIE1bits	set	140
   482  008F                     _OSCCONbits	set	143
   483  0089                     _TRISE	set	137
   484  0088                     _TRISD	set	136
   485  0087                     _TRISC	set	135
   486  0086                     _TRISB	set	134
   487  0085                     _TRISA	set	133
   488  0189                     _ANSELH	set	393
   489  0188                     _ANSEL	set	392
   490                           
   491                           	psect	strings
   492  0800                     __pstrings:
   493  0800                     stringtab:
   494  0800                     __stringtab:
   495  0800                     stringcode:	
   496                           ;	String table - string pointers are 1 byte each
   497                           
   498  0800                     stringdir:
   499  0800  3008               	movlw	high stringdir
   500  0801  008A               	movwf	10
   501  0802  0804               	movf	4,w
   502  0803  0A84               	incf	4,f
   503  0804  0782               	addwf	2,f
   504  0805                     __stringbase:
   505  0805  3400               	retlw	0
   506  0806                     __end_of__stringtab:
   507  0806                     STR_1:
   508  0806  3450               	retlw	80	;'P'
   509  0807  344F               	retlw	79	;'O'
   510  0808  3454               	retlw	84	;'T'
   511  0809  3431               	retlw	49	;'1'
   512  080A  343A               	retlw	58	;':'
   513  080B  3420               	retlw	32	;' '
   514  080C  340D               	retlw	13
   515  080D  3400               	retlw	0
   516  080E                     STR_2:
   517  080E  3450               	retlw	80	;'P'
   518  080F  344F               	retlw	79	;'O'
   519  0810  3454               	retlw	84	;'T'
   520  0811  3432               	retlw	50	;'2'
   521  0812  343A               	retlw	58	;':'
   522  0813  3420               	retlw	32	;' '
   523  0814  340D               	retlw	13
   524  0815  3400               	retlw	0
   525  0816                     STR_3:
   526  0816  3455               	retlw	85	;'U'
   527  0817  3441               	retlw	65	;'A'
   528  0818  3452               	retlw	82	;'R'
   529  0819  3454               	retlw	84	;'T'
   530  081A  343A               	retlw	58	;':'
   531  081B  3420               	retlw	32	;' '
   532  081C  340D               	retlw	13
   533  081D  3400               	retlw	0
   534  081E                     STR_4:
   535  081E  340D               	retlw	13
   536  081F  340D               	retlw	13
   537  0820  340D               	retlw	13
   538  0821  340D               	retlw	13
   539  0822  340D               	retlw	13
   540  0823  3400               	retlw	0
   541  0824                     STR_6:
   542  0824  342E               	retlw	46	;'.'
   543  0825  3400               	retlw	0
   544  0826                     STR_5:
   545  0826  3461               	retlw	97	;'a'
   546  0827  3400               	retlw	0
   547  0822                     
   548                           	psect	cinit
   549  000F                     start_initialization:	
   550                           ; #config settings
   551                           
   552  000F                     __initialization:
   553                           
   554                           ; Clear objects allocated to COMMON
   555  000F  01FA               	clrf	__pbssCOMMON& (0+127)
   556                           
   557                           ; Clear objects allocated to BANK0
   558  0010  1283               	bcf	3,5	;RP0=0, select bank0
   559  0011  1303               	bcf	3,6	;RP1=0, select bank0
   560  0012  01DF               	clrf	__pbssBANK0& (0+127)
   561  0013  01E0               	clrf	(__pbssBANK0+1)& (0+127)
   562  0014  01E1               	clrf	(__pbssBANK0+2)& (0+127)
   563  0015  01E2               	clrf	(__pbssBANK0+3)& (0+127)
   564  0016  01E3               	clrf	(__pbssBANK0+4)& (0+127)
   565  0017  01E4               	clrf	(__pbssBANK0+5)& (0+127)
   566  0018  01E5               	clrf	(__pbssBANK0+6)& (0+127)
   567  0019  01E6               	clrf	(__pbssBANK0+7)& (0+127)
   568  001A  01E7               	clrf	(__pbssBANK0+8)& (0+127)
   569  001B  01E8               	clrf	(__pbssBANK0+9)& (0+127)
   570  001C  01E9               	clrf	(__pbssBANK0+10)& (0+127)
   571  001D  01EA               	clrf	(__pbssBANK0+11)& (0+127)
   572  001E  01EB               	clrf	(__pbssBANK0+12)& (0+127)
   573  001F  01EC               	clrf	(__pbssBANK0+13)& (0+127)
   574  0020                     end_of_initialization:	
   575                           ;End of C runtime variable initialization code
   576                           
   577  0020                     __end_of__initialization:
   578  0020  0183               	clrf	3
   579  0021  120A  118A  2F7A   	ljmp	_main	;jump to C main() function
   580                           
   581                           	psect	bssCOMMON
   582  007A                     __pbssCOMMON:
   583  007A                     _UARTdat:
   584  007A                     	ds	1
   585                           
   586                           	psect	bssBANK0
   587  005F                     __pbssBANK0:
   588  005F                     _disp1:
   589  005F                     	ds	3
   590  0062                     _UARTval:
   591  0062                     	ds	1
   592  0063                     _val2:
   593  0063                     	ds	4
   594  0067                     _val1:
   595  0067                     	ds	4
   596  006B                     _pot2:
   597  006B                     	ds	1
   598  006C                     _pot1:
   599  006C                     	ds	1
   600                           
   601                           	psect	cstackCOMMON
   602  0070                     __pcstackCOMMON:
   603  0070                     ?_configuracion:
   604  0070                     ?_initLCD:	
   605                           ; 1 bytes @ 0x0
   606                           
   607  0070                     ?_sendString:	
   608                           ; 1 bytes @ 0x0
   609                           
   610  0070                     ?_sendhex:	
   611                           ; 1 bytes @ 0x0
   612                           
   613  0070                     ?_cursorLCD:	
   614                           ; 1 bytes @ 0x0
   615                           
   616  0070                     ?_dispCHAR:	
   617                           ; 1 bytes @ 0x0
   618                           
   619  0070                     ?_configUART:	
   620                           ; 1 bytes @ 0x0
   621                           
   622  0070                     ?_comandoLCD:	
   623                           ; 1 bytes @ 0x0
   624                           
   625  0070                     ?_interrupcion:	
   626                           ; 1 bytes @ 0x0
   627                           
   628  0070                     ??_interrupcion:	
   629                           ; 1 bytes @ 0x0
   630                           
   631  0070                     ?_main:	
   632                           ; 1 bytes @ 0x0
   633                           
   634  0070                     ?_send1dato:	
   635                           ; 1 bytes @ 0x0
   636                           
   637                           
   638                           ; 1 bytes @ 0x0
   639  0070                     	ds	3
   640  0073                     ??_cursorLCD:
   641  0073                     ??_dispCHAR:	
   642                           ; 1 bytes @ 0x3
   643                           
   644  0073                     ??_configUART:	
   645                           ; 1 bytes @ 0x3
   646                           
   647  0073                     ?_ADCconfig:	
   648                           ; 1 bytes @ 0x3
   649                           
   650  0073                     ??_comandoLCD:	
   651                           ; 1 bytes @ 0x3
   652                           
   653  0073                     ??_send1dato:	
   654                           ; 1 bytes @ 0x3
   655                           
   656  0073                     ?___bmul:	
   657                           ; 1 bytes @ 0x3
   658                           
   659  0073                     ?__Umul8_16:	
   660                           ; 1 bytes @ 0x3
   661                           
   662  0073                     ?___awdiv:	
   663                           ; 2 bytes @ 0x3
   664                           
   665  0073                     ?___xxtofl:	
   666                           ; 2 bytes @ 0x3
   667                           
   668  0073                     ADCconfig@just:	
   669                           ; 4 bytes @ 0x3
   670                           
   671  0073                     send1dato@dato:	
   672                           ; 1 bytes @ 0x3
   673                           
   674  0073                     ___bmul@multiplicand:	
   675                           ; 1 bytes @ 0x3
   676                           
   677  0073                     ___fladd@signs:	
   678                           ; 1 bytes @ 0x3
   679                           
   680  0073                     __Umul8_16@multiplicand:	
   681                           ; 1 bytes @ 0x3
   682                           
   683  0073                     ___awdiv@divisor:	
   684                           ; 1 bytes @ 0x3
   685                           
   686  0073                     ___xxtofl@val:	
   687                           ; 2 bytes @ 0x3
   688                           
   689                           
   690                           ; 4 bytes @ 0x3
   691  0073                     	ds	1
   692  0074                     ??_sendString:
   693  0074                     ??_ADCconfig:	
   694                           ; 1 bytes @ 0x4
   695                           
   696  0074                     ??___bmul:	
   697                           ; 1 bytes @ 0x4
   698                           
   699  0074                     ___fladd@aexp:	
   700                           ; 1 bytes @ 0x4
   701                           
   702                           
   703                           ; 1 bytes @ 0x4
   704  0074                     	ds	1
   705  0075                     ??__Umul8_16:
   706  0075                     sendString@mensaje:	
   707                           ; 1 bytes @ 0x5
   708                           
   709  0075                     dispCHAR@b:	
   710                           ; 1 bytes @ 0x5
   711                           
   712  0075                     cursorLCD@pos:	
   713                           ; 1 bytes @ 0x5
   714                           
   715  0075                     comandoLCD@cmd:	
   716                           ; 1 bytes @ 0x5
   717                           
   718  0075                     ___bmul@product:	
   719                           ; 1 bytes @ 0x5
   720                           
   721  0075                     ___fladd@bexp:	
   722                           ; 1 bytes @ 0x5
   723                           
   724  0075                     ___awdiv@dividend:	
   725                           ; 1 bytes @ 0x5
   726                           
   727                           
   728                           ; 2 bytes @ 0x5
   729  0075                     	ds	1
   730  0076                     ??_initLCD:
   731  0076                     ADCconfig@canal:	
   732                           ; 1 bytes @ 0x6
   733                           
   734  0076                     ___bmul@multiplier:	
   735                           ; 1 bytes @ 0x6
   736                           
   737  0076                     ___fladd@grs:	
   738                           ; 1 bytes @ 0x6
   739                           
   740                           
   741                           ; 1 bytes @ 0x6
   742  0076                     	ds	1
   743  0077                     ??_configuracion:
   744  0077                     ??___awdiv:	
   745                           ; 1 bytes @ 0x7
   746                           
   747  0077                     ??___flsub:	
   748                           ; 1 bytes @ 0x7
   749                           
   750  0077                     CONVdec@lectura:	
   751                           ; 1 bytes @ 0x7
   752                           
   753  0077                     ___fltol@sign1:	
   754                           ; 1 bytes @ 0x7
   755                           
   756                           
   757                           ; 1 bytes @ 0x7
   758  0077                     	ds	1
   759  0078                     ?_division:
   760  0078                     division@un:	
   761                           ; 1 bytes @ 0x8
   762                           
   763  0078                     divisiondecimal@conteo:	
   764                           ; 1 bytes @ 0x8
   765                           
   766  0078                     ___fltol@exp1:	
   767                           ; 1 bytes @ 0x8
   768                           
   769                           
   770                           ; 1 bytes @ 0x8
   771  0078                     	ds	1
   772  0079                     division@dec:
   773  0079                     divisiondecimal@div:	
   774                           ; 1 bytes @ 0x9
   775                           
   776                           
   777                           ; 1 bytes @ 0x9
   778  0079                     	ds	1
   779                           
   780                           	psect	cstackBANK0
   781  0020                     __pcstackBANK0:
   782  0020                     ??___xxtofl:
   783  0020                     ?___fladd:	
   784                           ; 1 bytes @ 0x0
   785                           
   786  0020                     ___awdiv@counter:	
   787                           ; 4 bytes @ 0x0
   788                           
   789  0020                     __Umul8_16@product:	
   790                           ; 1 bytes @ 0x0
   791                           
   792  0020                     ___fladd@b:	
   793                           ; 2 bytes @ 0x0
   794                           
   795                           
   796                           ; 4 bytes @ 0x0
   797  0020                     	ds	1
   798  0021                     ___awdiv@sign:
   799                           
   800                           ; 1 bytes @ 0x1
   801  0021                     	ds	1
   802  0022                     ___awdiv@quotient:
   803  0022                     __Umul8_16@word_mpld:	
   804                           ; 2 bytes @ 0x2
   805                           
   806                           
   807                           ; 2 bytes @ 0x2
   808  0022                     	ds	2
   809  0024                     ??_division:
   810  0024                     ?_divisiondecimal:	
   811                           ; 1 bytes @ 0x4
   812                           
   813  0024                     divisiondecimal@un:	
   814                           ; 1 bytes @ 0x4
   815                           
   816  0024                     __Umul8_16@multiplier:	
   817                           ; 1 bytes @ 0x4
   818                           
   819  0024                     ___xxtofl@sign:	
   820                           ; 1 bytes @ 0x4
   821                           
   822  0024                     ___fladd@a:	
   823                           ; 1 bytes @ 0x4
   824                           
   825                           
   826                           ; 4 bytes @ 0x4
   827  0024                     	ds	1
   828  0025                     divisiondecimal@dec:
   829  0025                     ___xxtofl@exp:	
   830                           ; 1 bytes @ 0x5
   831                           
   832                           
   833                           ; 1 bytes @ 0x5
   834  0025                     	ds	1
   835  0026                     divisiondecimal@cent:
   836  0026                     ___xxtofl@arg:	
   837                           ; 1 bytes @ 0x6
   838                           
   839                           
   840                           ; 4 bytes @ 0x6
   841  0026                     	ds	1
   842  0027                     ??_divisiondecimal:
   843  0027                     division@conteo:	
   844                           ; 1 bytes @ 0x7
   845                           
   846                           
   847                           ; 1 bytes @ 0x7
   848  0027                     	ds	1
   849  0028                     ??___fladd:
   850  0028                     division@div:	
   851                           ; 1 bytes @ 0x8
   852                           
   853                           
   854                           ; 1 bytes @ 0x8
   855  0028                     	ds	2
   856  002A                     ??_sendhex:
   857  002A                     ?___flmul:	
   858                           ; 1 bytes @ 0xA
   859                           
   860  002A                     ___flmul@b:	
   861                           ; 4 bytes @ 0xA
   862                           
   863                           
   864                           ; 4 bytes @ 0xA
   865  002A                     	ds	3
   866  002D                     sendhex@valor:
   867                           
   868                           ; 1 bytes @ 0xD
   869  002D                     	ds	1
   870  002E                     sendhex@unidad:
   871  002E                     ___flmul@a:	
   872                           ; 1 bytes @ 0xE
   873                           
   874                           
   875                           ; 4 bytes @ 0xE
   876  002E                     	ds	1
   877  002F                     sendhex@centena:
   878                           
   879                           ; 1 bytes @ 0xF
   880  002F                     	ds	1
   881  0030                     ?___flsub:
   882  0030                     sendhex@decena:	
   883                           ; 4 bytes @ 0x10
   884                           
   885  0030                     ___flsub@a:	
   886                           ; 1 bytes @ 0x10
   887                           
   888                           
   889                           ; 4 bytes @ 0x10
   890  0030                     	ds	2
   891  0032                     ??___flmul:
   892                           
   893                           ; 1 bytes @ 0x12
   894  0032                     	ds	2
   895  0034                     ___flsub@b:
   896                           
   897                           ; 4 bytes @ 0x14
   898  0034                     	ds	3
   899  0037                     ___flmul@sign:
   900                           
   901                           ; 1 bytes @ 0x17
   902  0037                     	ds	1
   903  0038                     ___flmul@aexp:
   904                           
   905                           ; 1 bytes @ 0x18
   906  0038                     	ds	1
   907  0039                     ___flmul@grs:
   908                           
   909                           ; 4 bytes @ 0x19
   910  0039                     	ds	4
   911  003D                     ___flmul@bexp:
   912                           
   913                           ; 1 bytes @ 0x1D
   914  003D                     	ds	1
   915  003E                     ___flmul@prod:
   916                           
   917                           ; 4 bytes @ 0x1E
   918  003E                     	ds	4
   919  0042                     ___flmul@temp:
   920                           
   921                           ; 2 bytes @ 0x22
   922  0042                     	ds	2
   923  0044                     ?_CONVdec:
   924  0044                     ?___fltol:	
   925                           ; 1 bytes @ 0x24
   926                           
   927  0044                     CONVdec@equiv:	
   928                           ; 4 bytes @ 0x24
   929                           
   930  0044                     ___fltol@f1:	
   931                           ; 1 bytes @ 0x24
   932                           
   933                           
   934                           ; 4 bytes @ 0x24
   935  0044                     	ds	1
   936  0045                     ??_CONVdec:
   937                           
   938                           ; 1 bytes @ 0x25
   939  0045                     	ds	3
   940  0048                     ??___fltol:
   941                           
   942                           ; 1 bytes @ 0x28
   943  0048                     	ds	5
   944  004D                     ?_sendfloat:
   945  004D                     sendfloat@valor:	
   946                           ; 1 bytes @ 0x2D
   947                           
   948                           
   949                           ; 4 bytes @ 0x2D
   950  004D                     	ds	4
   951  0051                     ??_sendfloat:
   952                           
   953                           ; 1 bytes @ 0x31
   954  0051                     	ds	4
   955  0055                     sendfloat@temp:
   956                           
   957                           ; 4 bytes @ 0x35
   958  0055                     	ds	4
   959  0059                     sendfloat@decimal:
   960                           
   961                           ; 1 bytes @ 0x39
   962  0059                     	ds	1
   963  005A                     sendfloat@entero:
   964                           
   965                           ; 1 bytes @ 0x3A
   966  005A                     	ds	1
   967  005B                     sendfloat@digdecimal:
   968                           
   969                           ; 1 bytes @ 0x3B
   970  005B                     	ds	1
   971  005C                     ??_main:
   972                           
   973                           ; 1 bytes @ 0x3C
   974  005C                     	ds	3
   975                           
   976                           	psect	maintext
   977  077A                     __pmaintext:	
   978 ;;
   979 ;;Main: autosize = 0, tempsize = 3, incstack = 0, save=0
   980 ;;
   981 ;; *************** function _main *****************
   982 ;; Defined at:
   983 ;;		line 75 in file "main.c"
   984 ;; Parameters:    Size  Location     Type
   985 ;;		None
   986 ;; Auto vars:     Size  Location     Type
   987 ;;		None
   988 ;; Return value:  Size  Location     Type
   989 ;;                  1    wreg      void 
   990 ;; Registers used:
   991 ;;		wreg, fsr0l, fsr0h, status,2, status,0, btemp+1, pclath, cstack
   992 ;; Tracked objects:
   993 ;;		On entry : B00/0
   994 ;;		On exit  : 0/0
   995 ;;		Unchanged: 0/0
   996 ;; Data sizes:     COMMON   BANK0   BANK1   BANK3   BANK2
   997 ;;      Params:         0       0       0       0       0
   998 ;;      Locals:         0       0       0       0       0
   999 ;;      Temps:          0       3       0       0       0
  1000 ;;      Totals:         0       3       0       0       0
  1001 ;;Total ram usage:        3 bytes
  1002 ;; Hardware stack levels required when called:    4
  1003 ;; This function calls:
  1004 ;;		_CONVdec
  1005 ;;		_configuracion
  1006 ;;		_cursorLCD
  1007 ;;		_dispCHAR
  1008 ;;		_initLCD
  1009 ;;		_sendString
  1010 ;;		_sendfloat
  1011 ;;		_sendhex
  1012 ;; This function is called by:
  1013 ;;		Startup code after reset
  1014 ;; This function uses a non-reentrant model
  1015 ;;
  1016                           
  1017                           
  1018                           ;psect for function _main
  1019  077A                     _main:
  1020  077A                     l2855:	
  1021                           ;incstack = 0
  1022                           ; Regs used in _main: [wreg-fsr0h+status,2+status,0+btemp+1+pclath+cstack]
  1023                           
  1024                           
  1025                           ;main.c: 76:     configuracion();
  1026  077A  120A  158A  2504  120A  118A  	fcall	_configuracion
  1027  077F                     l2857:
  1028                           
  1029                           ;main.c: 77:     initLCD();
  1030  077F  120A  158A  2608  120A  118A  	fcall	_initLCD
  1031  0784                     l2859:
  1032                           
  1033                           ;main.c: 79:         sendString("POT1: \r");
  1034  0784  3001               	movlw	(low ((STR_1-__stringbase)| (0+32768)))& (0+255)
  1035  0785  120A  158A  2467  120A  118A  	fcall	_sendString
  1036  078A                     l2861:
  1037                           
  1038                           ;main.c: 80:         CONVdec(&pot1,&val1);
  1039  078A  3067               	movlw	(low (_val1| 0))& (0+255)
  1040  078B  1283               	bcf	3,5	;RP0=0, select bank0
  1041  078C  1303               	bcf	3,6	;RP1=0, select bank0
  1042  078D  00DC               	movwf	??_main
  1043  078E  085C               	movf	??_main,w
  1044  078F  00C4               	movwf	CONVdec@equiv
  1045  0790  306C               	movlw	(low (_pot1| 0))& (0+255)
  1046  0791  120A  158A  253A  120A  118A  	fcall	_CONVdec
  1047  0796                     l2863:
  1048                           
  1049                           ;main.c: 81:         sendfloat(val1);
  1050  0796  1283               	bcf	3,5	;RP0=0, select bank0
  1051  0797  1303               	bcf	3,6	;RP1=0, select bank0
  1052  0798  086A               	movf	_val1+3,w
  1053  0799  00D0               	movwf	sendfloat@valor+3
  1054  079A  0869               	movf	_val1+2,w
  1055  079B  00CF               	movwf	sendfloat@valor+2
  1056  079C  0868               	movf	_val1+1,w
  1057  079D  00CE               	movwf	sendfloat@valor+1
  1058  079E  0867               	movf	_val1,w
  1059  079F  00CD               	movwf	sendfloat@valor
  1060  07A0  120A  118A  26D1  120A  118A  	fcall	_sendfloat
  1061  07A5                     l2865:
  1062                           
  1063                           ;main.c: 82:         sendString("POT2: \r");
  1064  07A5  3009               	movlw	(low ((STR_2-__stringbase)| (0+32768)))& (0+255)
  1065  07A6  120A  158A  2467  120A  118A  	fcall	_sendString
  1066  07AB                     l2867:
  1067                           
  1068                           ;main.c: 83:         CONVdec(&pot2,&val2);
  1069  07AB  3063               	movlw	(low (_val2| 0))& (0+255)
  1070  07AC  1283               	bcf	3,5	;RP0=0, select bank0
  1071  07AD  1303               	bcf	3,6	;RP1=0, select bank0
  1072  07AE  00DC               	movwf	??_main
  1073  07AF  085C               	movf	??_main,w
  1074  07B0  00C4               	movwf	CONVdec@equiv
  1075  07B1  306B               	movlw	(low (_pot2| 0))& (0+255)
  1076  07B2  120A  158A  253A  120A  118A  	fcall	_CONVdec
  1077  07B7                     l2869:
  1078                           
  1079                           ;main.c: 84:         sendfloat(val2);
  1080  07B7  1283               	bcf	3,5	;RP0=0, select bank0
  1081  07B8  1303               	bcf	3,6	;RP1=0, select bank0
  1082  07B9  0866               	movf	_val2+3,w
  1083  07BA  00D0               	movwf	sendfloat@valor+3
  1084  07BB  0865               	movf	_val2+2,w
  1085  07BC  00CF               	movwf	sendfloat@valor+2
  1086  07BD  0864               	movf	_val2+1,w
  1087  07BE  00CE               	movwf	sendfloat@valor+1
  1088  07BF  0863               	movf	_val2,w
  1089  07C0  00CD               	movwf	sendfloat@valor
  1090  07C1  120A  118A  26D1  120A  118A  	fcall	_sendfloat
  1091  07C6                     l2871:
  1092                           
  1093                           ;main.c: 85:         sendString("UART: \r");
  1094  07C6  3011               	movlw	(low ((STR_3-__stringbase)| (0+32768)))& (0+255)
  1095  07C7  120A  158A  2467  120A  118A  	fcall	_sendString
  1096  07CC                     l2873:
  1097                           
  1098                           ;main.c: 86:         sendhex(UARTval);
  1099  07CC  1283               	bcf	3,5	;RP0=0, select bank0
  1100  07CD  1303               	bcf	3,6	;RP1=0, select bank0
  1101  07CE  0862               	movf	_UARTval,w
  1102  07CF  120A  158A  24D3  120A  118A  	fcall	_sendhex
  1103  07D4                     l2875:
  1104                           
  1105                           ;main.c: 87:         sendString("\r\r\r\r\r");
  1106  07D4  3019               	movlw	(low ((STR_4-__stringbase)| (0+32768)))& (0+255)
  1107  07D5  120A  158A  2467  120A  118A  	fcall	_sendString
  1108                           
  1109                           ;main.c: 88:         cursorLCD(0X80);
  1110  07DA  3080               	movlw	128
  1111  07DB  120A  158A  2416  120A  118A  	fcall	_cursorLCD
  1112                           
  1113                           ;main.c: 89:         dispCHAR("a");
  1114  07E0  3021               	movlw	(low ((STR_5-__stringbase)| (0+32768)))& (0+255)
  1115  07E1  120A  158A  242A  120A  118A  	fcall	_dispCHAR
  1116  07E6                     l2877:
  1117                           
  1118                           ;main.c: 90:         _delay((unsigned long)((1000)*(8000000/4000.0)));
  1119  07E6  300B               	movlw	11
  1120  07E7  1283               	bcf	3,5	;RP0=0, select bank0
  1121  07E8  1303               	bcf	3,6	;RP1=0, select bank0
  1122  07E9  00DE               	movwf	??_main+2
  1123  07EA  3026               	movlw	38
  1124  07EB  00DD               	movwf	??_main+1
  1125  07EC  305D               	movlw	93
  1126  07ED  00DC               	movwf	??_main
  1127  07EE                     u3997:
  1128  07EE  0BDC               	decfsz	??_main,f
  1129  07EF  2FEE               	goto	u3997
  1130  07F0  0BDD               	decfsz	??_main+1,f
  1131  07F1  2FEE               	goto	u3997
  1132  07F2  0BDE               	decfsz	??_main+2,f
  1133  07F3  2FEE               	goto	u3997
  1134  07F4  2F84               	goto	l2859
  1135  07F5  120A  118A  280C   	ljmp	start
  1136  07F8                     __end_of_main:
  1137                           
  1138                           	psect	text1
  1139  0CD3                     __ptext1:	
  1140 ;; *************** function _sendhex *****************
  1141 ;; Defined at:
  1142 ;;		line 61 in file "ComSerial.c"
  1143 ;; Parameters:    Size  Location     Type
  1144 ;;  valor           1    wreg     unsigned char 
  1145 ;; Auto vars:     Size  Location     Type
  1146 ;;  valor           1   13[BANK0 ] unsigned char 
  1147 ;;  decena          1   16[BANK0 ] unsigned char 
  1148 ;;  centena         1   15[BANK0 ] unsigned char 
  1149 ;;  unidad          1   14[BANK0 ] unsigned char 
  1150 ;; Return value:  Size  Location     Type
  1151 ;;                  1    wreg      void 
  1152 ;; Registers used:
  1153 ;;		wreg, fsr0l, fsr0h, status,2, status,0, pclath, cstack
  1154 ;; Tracked objects:
  1155 ;;		On entry : 0/0
  1156 ;;		On exit  : 0/0
  1157 ;;		Unchanged: 0/0
  1158 ;; Data sizes:     COMMON   BANK0   BANK1   BANK3   BANK2
  1159 ;;      Params:         0       0       0       0       0
  1160 ;;      Locals:         0       4       0       0       0
  1161 ;;      Temps:          0       3       0       0       0
  1162 ;;      Totals:         0       7       0       0       0
  1163 ;;Total ram usage:        7 bytes
  1164 ;; Hardware stack levels used:    1
  1165 ;; Hardware stack levels required when called:    3
  1166 ;; This function calls:
  1167 ;;		_divisiondecimal
  1168 ;;		_send1dato
  1169 ;; This function is called by:
  1170 ;;		_main
  1171 ;; This function uses a non-reentrant model
  1172 ;;
  1173                           
  1174                           
  1175                           ;psect for function _sendhex
  1176  0CD3                     _sendhex:
  1177                           
  1178                           ;incstack = 0
  1179                           ; Regs used in _sendhex: [wreg-fsr0h+status,2+status,0+pclath+cstack]
  1180                           ;sendhex@valor stored from wreg
  1181  0CD3  1283               	bcf	3,5	;RP0=0, select bank0
  1182  0CD4  1303               	bcf	3,6	;RP1=0, select bank0
  1183  0CD5  00AD               	movwf	sendhex@valor
  1184  0CD6                     l2847:
  1185                           
  1186                           ;ComSerial.c: 62:     uint8_t centena;;ComSerial.c: 63:     uint8_t decena;;ComSerial.c:
      +                           64:     uint8_t unidad;;ComSerial.c: 66:     divisiondecimal(valor,&unidad,&decena,&cen
      +                          tena);
  1187  0CD6  302E               	movlw	(low (sendhex@unidad| 0))& (0+255)
  1188  0CD7  00AA               	movwf	??_sendhex
  1189  0CD8  082A               	movf	??_sendhex,w
  1190  0CD9  00A4               	movwf	divisiondecimal@un
  1191  0CDA  3030               	movlw	(low (sendhex@decena| 0))& (0+255)
  1192  0CDB  00AB               	movwf	??_sendhex+1
  1193  0CDC  082B               	movf	??_sendhex+1,w
  1194  0CDD  00A5               	movwf	divisiondecimal@dec
  1195  0CDE  302F               	movlw	(low (sendhex@centena| 0))& (0+255)
  1196  0CDF  00AC               	movwf	??_sendhex+2
  1197  0CE0  082C               	movf	??_sendhex+2,w
  1198  0CE1  00A6               	movwf	divisiondecimal@cent
  1199  0CE2  082D               	movf	sendhex@valor,w
  1200  0CE3  120A  158A  2783  120A  158A  	fcall	_divisiondecimal
  1201  0CE8                     l2849:
  1202                           
  1203                           ;ComSerial.c: 67:     send1dato(centena +48);
  1204  0CE8  1283               	bcf	3,5	;RP0=0, select bank0
  1205  0CE9  1303               	bcf	3,6	;RP1=0, select bank0
  1206  0CEA  082F               	movf	sendhex@centena,w
  1207  0CEB  3E30               	addlw	48
  1208  0CEC  120A  158A  23F8  120A  158A  	fcall	_send1dato
  1209  0CF1                     l2851:
  1210                           
  1211                           ;ComSerial.c: 68:     send1dato(decena +48);
  1212  0CF1  1283               	bcf	3,5	;RP0=0, select bank0
  1213  0CF2  1303               	bcf	3,6	;RP1=0, select bank0
  1214  0CF3  0830               	movf	sendhex@decena,w
  1215  0CF4  3E30               	addlw	48
  1216  0CF5  120A  158A  23F8  120A  158A  	fcall	_send1dato
  1217  0CFA                     l2853:
  1218                           
  1219                           ;ComSerial.c: 69:     send1dato(unidad +48);
  1220  0CFA  1283               	bcf	3,5	;RP0=0, select bank0
  1221  0CFB  1303               	bcf	3,6	;RP1=0, select bank0
  1222  0CFC  082E               	movf	sendhex@unidad,w
  1223  0CFD  3E30               	addlw	48
  1224  0CFE  120A  158A  23F8  120A  158A  	fcall	_send1dato
  1225  0D03                     l156:
  1226  0D03  0008               	return
  1227  0D04                     __end_of_sendhex:
  1228                           
  1229                           	psect	text2
  1230  0F83                     __ptext2:	
  1231 ;; *************** function _divisiondecimal *****************
  1232 ;; Defined at:
  1233 ;;		line 88 in file "ComSerial.c"
  1234 ;; Parameters:    Size  Location     Type
  1235 ;;  conteo          1    wreg     unsigned char 
  1236 ;;  un              1    4[BANK0 ] PTR unsigned char 
  1237 ;;		 -> sendhex@unidad(1), 
  1238 ;;  dec             1    5[BANK0 ] PTR unsigned char 
  1239 ;;		 -> sendhex@decena(1), 
  1240 ;;  cent            1    6[BANK0 ] PTR unsigned char 
  1241 ;;		 -> sendhex@centena(1), 
  1242 ;; Auto vars:     Size  Location     Type
  1243 ;;  conteo          1    8[COMMON] unsigned char 
  1244 ;;  div             1    9[COMMON] unsigned char 
  1245 ;; Return value:  Size  Location     Type
  1246 ;;                  1    wreg      void 
  1247 ;; Registers used:
  1248 ;;		wreg, fsr0l, fsr0h, status,2, status,0, pclath, cstack
  1249 ;; Tracked objects:
  1250 ;;		On entry : 0/0
  1251 ;;		On exit  : 0/0
  1252 ;;		Unchanged: 0/0
  1253 ;; Data sizes:     COMMON   BANK0   BANK1   BANK3   BANK2
  1254 ;;      Params:         0       3       0       0       0
  1255 ;;      Locals:         2       0       0       0       0
  1256 ;;      Temps:          0       3       0       0       0
  1257 ;;      Totals:         2       6       0       0       0
  1258 ;;Total ram usage:        8 bytes
  1259 ;; Hardware stack levels used:    1
  1260 ;; Hardware stack levels required when called:    2
  1261 ;; This function calls:
  1262 ;;		___awdiv
  1263 ;;		___bmul
  1264 ;; This function is called by:
  1265 ;;		_sendhex
  1266 ;; This function uses a non-reentrant model
  1267 ;;
  1268                           
  1269                           
  1270                           ;psect for function _divisiondecimal
  1271  0F83                     _divisiondecimal:
  1272                           
  1273                           ;incstack = 0
  1274                           ; Regs used in _divisiondecimal: [wreg-fsr0h+status,2+status,0+pclath+cstack]
  1275                           ;divisiondecimal@conteo stored from wreg
  1276  0F83  00F8               	movwf	divisiondecimal@conteo
  1277  0F84                     l2587:
  1278                           
  1279                           ;ComSerial.c: 89:     uint8_t div = conteo;
  1280  0F84  0878               	movf	divisiondecimal@conteo,w
  1281  0F85  1283               	bcf	3,5	;RP0=0, select bank0
  1282  0F86  1303               	bcf	3,6	;RP1=0, select bank0
  1283  0F87  00A7               	movwf	??_divisiondecimal
  1284  0F88  0827               	movf	??_divisiondecimal,w
  1285  0F89  00F9               	movwf	divisiondecimal@div
  1286  0F8A                     l2589:
  1287                           
  1288                           ;ComSerial.c: 90:     *un = 0;
  1289  0F8A  0824               	movf	divisiondecimal@un,w
  1290  0F8B  0084               	movwf	4
  1291  0F8C  1383               	bcf	3,7	;select IRP bank0
  1292  0F8D  0180               	clrf	0
  1293  0F8E                     l2591:
  1294                           
  1295                           ;ComSerial.c: 91:     *dec = 0;
  1296  0F8E  0825               	movf	divisiondecimal@dec,w
  1297  0F8F  0084               	movwf	4
  1298  0F90  0180               	clrf	0
  1299  0F91                     l2593:
  1300                           
  1301                           ;ComSerial.c: 92:     *cent = 0;
  1302  0F91  0826               	movf	divisiondecimal@cent,w
  1303  0F92  0084               	movwf	4
  1304  0F93  0180               	clrf	0
  1305                           
  1306                           ;ComSerial.c: 95:     while(div >= 100){
  1307  0F94  2FC0               	goto	l2597
  1308  0F95                     l2595:
  1309                           
  1310                           ;ComSerial.c: 96:     *cent = div/100;
  1311  0F95  3064               	movlw	100
  1312  0F96  00F3               	movwf	___awdiv@divisor
  1313  0F97  3000               	movlw	0
  1314  0F98  00F4               	movwf	___awdiv@divisor+1
  1315  0F99  0879               	movf	divisiondecimal@div,w
  1316  0F9A  00A7               	movwf	??_divisiondecimal
  1317  0F9B  01A8               	clrf	??_divisiondecimal+1
  1318  0F9C  0827               	movf	??_divisiondecimal,w
  1319  0F9D  00F5               	movwf	___awdiv@dividend
  1320  0F9E  0828               	movf	??_divisiondecimal+1,w
  1321  0F9F  00F6               	movwf	___awdiv@dividend+1
  1322  0FA0  120A  158A  269E  120A  158A  	fcall	___awdiv
  1323  0FA5  0873               	movf	?___awdiv,w
  1324  0FA6  1283               	bcf	3,5	;RP0=0, select bank0
  1325  0FA7  1303               	bcf	3,6	;RP1=0, select bank0
  1326  0FA8  00A9               	movwf	??_divisiondecimal+2
  1327  0FA9  0826               	movf	divisiondecimal@cent,w
  1328  0FAA  0084               	movwf	4
  1329  0FAB  0829               	movf	??_divisiondecimal+2,w
  1330  0FAC  1383               	bcf	3,7	;select IRP bank0
  1331  0FAD  0080               	movwf	0
  1332                           
  1333                           ;ComSerial.c: 97:     div = div - (*cent)*(100);
  1334  0FAE  309C               	movlw	156
  1335  0FAF  00A7               	movwf	??_divisiondecimal
  1336  0FB0  0827               	movf	??_divisiondecimal,w
  1337  0FB1  00F3               	movwf	___bmul@multiplicand
  1338  0FB2  0826               	movf	divisiondecimal@cent,w
  1339  0FB3  0084               	movwf	4
  1340  0FB4  0800               	movf	0,w
  1341  0FB5  120A  158A  2452  120A  158A  	fcall	___bmul
  1342  0FBA  0779               	addwf	divisiondecimal@div,w
  1343  0FBB  1283               	bcf	3,5	;RP0=0, select bank0
  1344  0FBC  1303               	bcf	3,6	;RP1=0, select bank0
  1345  0FBD  00A8               	movwf	??_divisiondecimal+1
  1346  0FBE  0828               	movf	??_divisiondecimal+1,w
  1347  0FBF  00F9               	movwf	divisiondecimal@div
  1348  0FC0                     l2597:
  1349                           
  1350                           ;ComSerial.c: 95:     while(div >= 100){
  1351  0FC0  3064               	movlw	100
  1352  0FC1  0279               	subwf	divisiondecimal@div,w
  1353  0FC2  1803               	skipnc
  1354  0FC3  2FC5               	goto	u3361
  1355  0FC4  2FC6               	goto	u3360
  1356  0FC5                     u3361:
  1357  0FC5  2F95               	goto	l2595
  1358  0FC6                     u3360:
  1359  0FC6  2FF2               	goto	l2601
  1360  0FC7                     l2599:
  1361                           
  1362                           ;ComSerial.c: 101:     *dec = div/10;
  1363  0FC7  300A               	movlw	10
  1364  0FC8  00F3               	movwf	___awdiv@divisor
  1365  0FC9  3000               	movlw	0
  1366  0FCA  00F4               	movwf	___awdiv@divisor+1
  1367  0FCB  0879               	movf	divisiondecimal@div,w
  1368  0FCC  00A7               	movwf	??_divisiondecimal
  1369  0FCD  01A8               	clrf	??_divisiondecimal+1
  1370  0FCE  0827               	movf	??_divisiondecimal,w
  1371  0FCF  00F5               	movwf	___awdiv@dividend
  1372  0FD0  0828               	movf	??_divisiondecimal+1,w
  1373  0FD1  00F6               	movwf	___awdiv@dividend+1
  1374  0FD2  120A  158A  269E  120A  158A  	fcall	___awdiv
  1375  0FD7  0873               	movf	?___awdiv,w
  1376  0FD8  1283               	bcf	3,5	;RP0=0, select bank0
  1377  0FD9  1303               	bcf	3,6	;RP1=0, select bank0
  1378  0FDA  00A9               	movwf	??_divisiondecimal+2
  1379  0FDB  0825               	movf	divisiondecimal@dec,w
  1380  0FDC  0084               	movwf	4
  1381  0FDD  0829               	movf	??_divisiondecimal+2,w
  1382  0FDE  1383               	bcf	3,7	;select IRP bank0
  1383  0FDF  0080               	movwf	0
  1384                           
  1385                           ;ComSerial.c: 102:     div = div - (*dec)*(10);
  1386  0FE0  30F6               	movlw	246
  1387  0FE1  00A7               	movwf	??_divisiondecimal
  1388  0FE2  0827               	movf	??_divisiondecimal,w
  1389  0FE3  00F3               	movwf	___bmul@multiplicand
  1390  0FE4  0825               	movf	divisiondecimal@dec,w
  1391  0FE5  0084               	movwf	4
  1392  0FE6  0800               	movf	0,w
  1393  0FE7  120A  158A  2452  120A  158A  	fcall	___bmul
  1394  0FEC  0779               	addwf	divisiondecimal@div,w
  1395  0FED  1283               	bcf	3,5	;RP0=0, select bank0
  1396  0FEE  1303               	bcf	3,6	;RP1=0, select bank0
  1397  0FEF  00A8               	movwf	??_divisiondecimal+1
  1398  0FF0  0828               	movf	??_divisiondecimal+1,w
  1399  0FF1  00F9               	movwf	divisiondecimal@div
  1400  0FF2                     l2601:
  1401                           
  1402                           ;ComSerial.c: 100:     while (div >= 10){
  1403  0FF2  300A               	movlw	10
  1404  0FF3  0279               	subwf	divisiondecimal@div,w
  1405  0FF4  1803               	skipnc
  1406  0FF5  2FF7               	goto	u3371
  1407  0FF6  2FF8               	goto	u3370
  1408  0FF7                     u3371:
  1409  0FF7  2FC7               	goto	l2599
  1410  0FF8                     u3370:
  1411  0FF8                     l2603:
  1412                           
  1413                           ;ComSerial.c: 105:     *un = div;
  1414  0FF8  0879               	movf	divisiondecimal@div,w
  1415  0FF9  00A7               	movwf	??_divisiondecimal
  1416  0FFA  0824               	movf	divisiondecimal@un,w
  1417  0FFB  0084               	movwf	4
  1418  0FFC  0827               	movf	??_divisiondecimal,w
  1419  0FFD  1383               	bcf	3,7	;select IRP bank0
  1420  0FFE  0080               	movwf	0
  1421  0FFF                     l171:
  1422  0FFF  0008               	return
  1423  1000                     __end_of_divisiondecimal:
  1424                           
  1425                           	psect	text3
  1426  06D1                     __ptext3:	
  1427 ;; *************** function _sendfloat *****************
  1428 ;; Defined at:
  1429 ;;		line 39 in file "ComSerial.c"
  1430 ;; Parameters:    Size  Location     Type
  1431 ;;  valor           4   45[BANK0 ] const float 
  1432 ;; Auto vars:     Size  Location     Type
  1433 ;;  temp            4   53[BANK0 ] float 
  1434 ;;  digdecimal      1   59[BANK0 ] unsigned char [1]
  1435 ;;  entero          1   58[BANK0 ] unsigned char 
  1436 ;;  decimal         1   57[BANK0 ] unsigned char 
  1437 ;; Return value:  Size  Location     Type
  1438 ;;                  1    wreg      void 
  1439 ;; Registers used:
  1440 ;;		wreg, fsr0l, fsr0h, status,2, status,0, btemp+1, pclath, cstack
  1441 ;; Tracked objects:
  1442 ;;		On entry : 0/0
  1443 ;;		On exit  : 0/0
  1444 ;;		Unchanged: 0/0
  1445 ;; Data sizes:     COMMON   BANK0   BANK1   BANK3   BANK2
  1446 ;;      Params:         0       4       0       0       0
  1447 ;;      Locals:         0       7       0       0       0
  1448 ;;      Temps:          0       4       0       0       0
  1449 ;;      Totals:         0      15       0       0       0
  1450 ;;Total ram usage:       15 bytes
  1451 ;; Hardware stack levels used:    1
  1452 ;; Hardware stack levels required when called:    3
  1453 ;; This function calls:
  1454 ;;		___flmul
  1455 ;;		___flsub
  1456 ;;		___fltol
  1457 ;;		___xxtofl
  1458 ;;		_division
  1459 ;;		_send1dato
  1460 ;;		_sendString
  1461 ;; This function is called by:
  1462 ;;		_main
  1463 ;; This function uses a non-reentrant model
  1464 ;;
  1465                           
  1466                           
  1467                           ;psect for function _sendfloat
  1468  06D1                     _sendfloat:
  1469  06D1                     l2833:	
  1470                           ;incstack = 0
  1471                           ; Regs used in _sendfloat: [wreg-fsr0h+status,2+status,0+btemp+1+pclath+cstack]
  1472                           
  1473                           
  1474                           ;ComSerial.c: 40:     uint8_t entero;;ComSerial.c: 41:     uint8_t decimal;;ComSerial.c:
      +                           42:     float temp;;ComSerial.c: 43:     unsigned char digdecimal[1];;ComSerial.c: 49: 
      +                              entero = valor;
  1475  06D1  1283               	bcf	3,5	;RP0=0, select bank0
  1476  06D2  1303               	bcf	3,6	;RP1=0, select bank0
  1477  06D3  0850               	movf	sendfloat@valor+3,w
  1478  06D4  00C7               	movwf	___fltol@f1+3
  1479  06D5  084F               	movf	sendfloat@valor+2,w
  1480  06D6  00C6               	movwf	___fltol@f1+2
  1481  06D7  084E               	movf	sendfloat@valor+1,w
  1482  06D8  00C5               	movwf	___fltol@f1+1
  1483  06D9  084D               	movf	sendfloat@valor,w
  1484  06DA  00C4               	movwf	___fltol@f1
  1485  06DB  120A  158A  2707  120A  118A  	fcall	___fltol
  1486  06E0  1283               	bcf	3,5	;RP0=0, select bank0
  1487  06E1  1303               	bcf	3,6	;RP1=0, select bank0
  1488  06E2  0844               	movf	?___fltol,w
  1489  06E3  00D1               	movwf	??_sendfloat
  1490  06E4  0851               	movf	??_sendfloat,w
  1491  06E5  00DA               	movwf	sendfloat@entero
  1492  06E6                     l2835:
  1493                           
  1494                           ;ComSerial.c: 50:     temp = valor-(float)entero;
  1495  06E6  085A               	movf	sendfloat@entero,w
  1496  06E7  00D1               	movwf	??_sendfloat
  1497  06E8  01D2               	clrf	??_sendfloat+1
  1498  06E9  01D3               	clrf	??_sendfloat+2
  1499  06EA  01D4               	clrf	??_sendfloat+3
  1500  06EB  0854               	movf	??_sendfloat+3,w
  1501  06EC  00F6               	movwf	___xxtofl@val+3
  1502  06ED  0853               	movf	??_sendfloat+2,w
  1503  06EE  00F5               	movwf	___xxtofl@val+2
  1504  06EF  0852               	movf	??_sendfloat+1,w
  1505  06F0  00F4               	movwf	___xxtofl@val+1
  1506  06F1  0851               	movf	??_sendfloat,w
  1507  06F2  00F3               	movwf	___xxtofl@val
  1508  06F3  3000               	movlw	0
  1509  06F4  120A  118A  2615  120A  118A  	fcall	___xxtofl
  1510  06F9  0876               	movf	?___xxtofl+3,w
  1511  06FA  1283               	bcf	3,5	;RP0=0, select bank0
  1512  06FB  1303               	bcf	3,6	;RP1=0, select bank0
  1513  06FC  00B3               	movwf	___flsub@a+3
  1514  06FD  0875               	movf	?___xxtofl+2,w
  1515  06FE  00B2               	movwf	___flsub@a+2
  1516  06FF  0874               	movf	?___xxtofl+1,w
  1517  0700  00B1               	movwf	___flsub@a+1
  1518  0701  0873               	movf	?___xxtofl,w
  1519  0702  00B0               	movwf	___flsub@a
  1520  0703  0850               	movf	sendfloat@valor+3,w
  1521  0704  00B7               	movwf	___flsub@b+3
  1522  0705  084F               	movf	sendfloat@valor+2,w
  1523  0706  00B6               	movwf	___flsub@b+2
  1524  0707  084E               	movf	sendfloat@valor+1,w
  1525  0708  00B5               	movwf	___flsub@b+1
  1526  0709  084D               	movf	sendfloat@valor,w
  1527  070A  00B4               	movwf	___flsub@b
  1528  070B  120A  158A  2486  120A  118A  	fcall	___flsub
  1529  0710  1283               	bcf	3,5	;RP0=0, select bank0
  1530  0711  1303               	bcf	3,6	;RP1=0, select bank0
  1531  0712  0833               	movf	?___flsub+3,w
  1532  0713  00D8               	movwf	sendfloat@temp+3
  1533  0714  0832               	movf	?___flsub+2,w
  1534  0715  00D7               	movwf	sendfloat@temp+2
  1535  0716  0831               	movf	?___flsub+1,w
  1536  0717  00D6               	movwf	sendfloat@temp+1
  1537  0718  0830               	movf	?___flsub,w
  1538  0719  00D5               	movwf	sendfloat@temp
  1539  071A                     l2837:
  1540                           
  1541                           ;ComSerial.c: 51:     decimal = (temp*100);
  1542  071A  0858               	movf	sendfloat@temp+3,w
  1543  071B  00B1               	movwf	___flmul@a+3
  1544  071C  0857               	movf	sendfloat@temp+2,w
  1545  071D  00B0               	movwf	___flmul@a+2
  1546  071E  0856               	movf	sendfloat@temp+1,w
  1547  071F  00AF               	movwf	___flmul@a+1
  1548  0720  0855               	movf	sendfloat@temp,w
  1549  0721  00AE               	movwf	___flmul@a
  1550  0722  3042               	movlw	66
  1551  0723  00AD               	movwf	___flmul@b+3
  1552  0724  30C8               	movlw	200
  1553  0725  00AC               	movwf	___flmul@b+2
  1554  0726  3000               	movlw	0
  1555  0727  00AB               	movwf	___flmul@b+1
  1556  0728  3000               	movlw	0
  1557  0729  00AA               	movwf	___flmul@b
  1558  072A  120A  118A  2024  120A  118A  	fcall	___flmul
  1559  072F  1283               	bcf	3,5	;RP0=0, select bank0
  1560  0730  1303               	bcf	3,6	;RP1=0, select bank0
  1561  0731  082D               	movf	?___flmul+3,w
  1562  0732  00C7               	movwf	___fltol@f1+3
  1563  0733  082C               	movf	?___flmul+2,w
  1564  0734  00C6               	movwf	___fltol@f1+2
  1565  0735  082B               	movf	?___flmul+1,w
  1566  0736  00C5               	movwf	___fltol@f1+1
  1567  0737  082A               	movf	?___flmul,w
  1568  0738  00C4               	movwf	___fltol@f1
  1569  0739  120A  158A  2707  120A  118A  	fcall	___fltol
  1570  073E  1283               	bcf	3,5	;RP0=0, select bank0
  1571  073F  1303               	bcf	3,6	;RP1=0, select bank0
  1572  0740  0844               	movf	?___fltol,w
  1573  0741  00D1               	movwf	??_sendfloat
  1574  0742  0851               	movf	??_sendfloat,w
  1575  0743  00D9               	movwf	sendfloat@decimal
  1576  0744                     l2839:
  1577                           
  1578                           ;ComSerial.c: 52:     division(decimal,&digdecimal[0],&digdecimal[1]);
  1579  0744  305B               	movlw	(low (sendfloat@digdecimal| 0))& (0+255)
  1580  0745  00D1               	movwf	??_sendfloat
  1581  0746  0851               	movf	??_sendfloat,w
  1582  0747  00F8               	movwf	division@un
  1583  0748  305C               	movlw	(low ((sendfloat@digdecimal| 0+1)))& (0+255)
  1584  0749  00D2               	movwf	??_sendfloat+1
  1585  074A  0852               	movf	??_sendfloat+1,w
  1586  074B  00F9               	movwf	division@dec
  1587  074C  0859               	movf	sendfloat@decimal,w
  1588  074D  120A  158A  25C0  120A  118A  	fcall	_division
  1589  0752                     l2841:
  1590                           
  1591                           ;ComSerial.c: 53:     send1dato(entero+48);
  1592  0752  1283               	bcf	3,5	;RP0=0, select bank0
  1593  0753  1303               	bcf	3,6	;RP1=0, select bank0
  1594  0754  085A               	movf	sendfloat@entero,w
  1595  0755  3E30               	addlw	48
  1596  0756  120A  158A  23F8  120A  118A  	fcall	_send1dato
  1597                           
  1598                           ;ComSerial.c: 54:     sendString(".");
  1599  075B  301F               	movlw	(low ((STR_6-__stringbase)| (0+32768)))& (0+255)
  1600  075C  120A  158A  2467  120A  118A  	fcall	_sendString
  1601  0761                     l2843:
  1602                           
  1603                           ;ComSerial.c: 55:     send1dato(digdecimal[1]+48);
  1604  0761  1283               	bcf	3,5	;RP0=0, select bank0
  1605  0762  1303               	bcf	3,6	;RP1=0, select bank0
  1606  0763  085C               	movf	sendfloat@digdecimal+1,w
  1607  0764  3E30               	addlw	48
  1608  0765  120A  158A  23F8  120A  118A  	fcall	_send1dato
  1609  076A                     l2845:
  1610                           
  1611                           ;ComSerial.c: 56:     send1dato(digdecimal[0]+48);
  1612  076A  1283               	bcf	3,5	;RP0=0, select bank0
  1613  076B  1303               	bcf	3,6	;RP1=0, select bank0
  1614  076C  085B               	movf	sendfloat@digdecimal,w
  1615  076D  3E30               	addlw	48
  1616  076E  120A  158A  23F8  120A  118A  	fcall	_send1dato
  1617                           
  1618                           ;ComSerial.c: 57:     sendString("\r");
  1619  0773  301D               	movlw	(low (((STR_4+4)-__stringbase)| (0+32768)))& (0+255)
  1620  0774  120A  158A  2467  120A  118A  	fcall	_sendString
  1621  0779                     l153:
  1622  0779  0008               	return
  1623  077A                     __end_of_sendfloat:
  1624                           
  1625                           	psect	text4
  1626  0C67                     __ptext4:	
  1627 ;; *************** function _sendString *****************
  1628 ;; Defined at:
  1629 ;;		line 31 in file "ComSerial.c"
  1630 ;; Parameters:    Size  Location     Type
  1631 ;;  mensaje         1    wreg     PTR unsigned char 
  1632 ;;		 -> STR_7(2), STR_6(2), STR_4(6), STR_3(8), 
  1633 ;;		 -> STR_2(8), STR_1(8), 
  1634 ;; Auto vars:     Size  Location     Type
  1635 ;;  mensaje         1    5[COMMON] PTR unsigned char 
  1636 ;;		 -> STR_7(2), STR_6(2), STR_4(6), STR_3(8), 
  1637 ;;		 -> STR_2(8), STR_1(8), 
  1638 ;; Return value:  Size  Location     Type
  1639 ;;                  1    wreg      void 
  1640 ;; Registers used:
  1641 ;;		wreg, fsr0l, fsr0h, status,2, status,0, pclath, cstack
  1642 ;; Tracked objects:
  1643 ;;		On entry : 0/0
  1644 ;;		On exit  : 0/0
  1645 ;;		Unchanged: 0/0
  1646 ;; Data sizes:     COMMON   BANK0   BANK1   BANK3   BANK2
  1647 ;;      Params:         0       0       0       0       0
  1648 ;;      Locals:         1       0       0       0       0
  1649 ;;      Temps:          1       0       0       0       0
  1650 ;;      Totals:         2       0       0       0       0
  1651 ;;Total ram usage:        2 bytes
  1652 ;; Hardware stack levels used:    1
  1653 ;; Hardware stack levels required when called:    2
  1654 ;; This function calls:
  1655 ;;		_send1dato
  1656 ;; This function is called by:
  1657 ;;		_main
  1658 ;;		_sendfloat
  1659 ;; This function uses a non-reentrant model
  1660 ;;
  1661                           
  1662                           
  1663                           ;psect for function _sendString
  1664  0C67                     _sendString:
  1665                           
  1666                           ;incstack = 0
  1667                           ; Regs used in _sendString: [wreg-fsr0h+status,2+status,0+pclath+cstack]
  1668                           ;sendString@mensaje stored from wreg
  1669  0C67  00F5               	movwf	sendString@mensaje
  1670  0C68                     l1817:
  1671                           
  1672                           ;ComSerial.c: 32:     while(*mensaje != 0x00){
  1673  0C68  2C79               	goto	l1823
  1674  0C69                     l1819:
  1675                           
  1676                           ;ComSerial.c: 33:         send1dato(*mensaje);
  1677  0C69  0875               	movf	sendString@mensaje,w
  1678  0C6A  0084               	movwf	4
  1679  0C6B  120A  158A  2000  120A  158A  	fcall	stringdir
  1680  0C70  120A  158A  23F8  120A  158A  	fcall	_send1dato
  1681  0C75                     l1821:
  1682                           
  1683                           ;ComSerial.c: 34:         mensaje ++;
  1684  0C75  3001               	movlw	1
  1685  0C76  00F4               	movwf	??_sendString
  1686  0C77  0874               	movf	??_sendString,w
  1687  0C78  07F5               	addwf	sendString@mensaje,f
  1688  0C79                     l1823:
  1689                           
  1690                           ;ComSerial.c: 32:     while(*mensaje != 0x00){
  1691  0C79  0875               	movf	sendString@mensaje,w
  1692  0C7A  0084               	movwf	4
  1693  0C7B  120A  158A  2000  120A  158A  	fcall	stringdir
  1694  0C80  3A00               	xorlw	0
  1695  0C81  1D03               	skipz
  1696  0C82  2C84               	goto	u2001
  1697  0C83  2C85               	goto	u2000
  1698  0C84                     u2001:
  1699  0C84  2C69               	goto	l1819
  1700  0C85                     u2000:
  1701  0C85                     l150:
  1702  0C85  0008               	return
  1703  0C86                     __end_of_sendString:
  1704                           
  1705                           	psect	text5
  1706  0BF8                     __ptext5:	
  1707 ;; *************** function _send1dato *****************
  1708 ;; Defined at:
  1709 ;;		line 26 in file "ComSerial.c"
  1710 ;; Parameters:    Size  Location     Type
  1711 ;;  dato            1    wreg     unsigned char 
  1712 ;; Auto vars:     Size  Location     Type
  1713 ;;  dato            1    3[COMMON] unsigned char 
  1714 ;; Return value:  Size  Location     Type
  1715 ;;                  1    wreg      void 
  1716 ;; Registers used:
  1717 ;;		wreg
  1718 ;; Tracked objects:
  1719 ;;		On entry : 0/0
  1720 ;;		On exit  : 0/0
  1721 ;;		Unchanged: 0/0
  1722 ;; Data sizes:     COMMON   BANK0   BANK1   BANK3   BANK2
  1723 ;;      Params:         0       0       0       0       0
  1724 ;;      Locals:         1       0       0       0       0
  1725 ;;      Temps:          0       0       0       0       0
  1726 ;;      Totals:         1       0       0       0       0
  1727 ;;Total ram usage:        1 bytes
  1728 ;; Hardware stack levels used:    1
  1729 ;; Hardware stack levels required when called:    1
  1730 ;; This function calls:
  1731 ;;		Nothing
  1732 ;; This function is called by:
  1733 ;;		_sendString
  1734 ;;		_sendfloat
  1735 ;;		_sendhex
  1736 ;; This function uses a non-reentrant model
  1737 ;;
  1738                           
  1739                           
  1740                           ;psect for function _send1dato
  1741  0BF8                     _send1dato:
  1742                           
  1743                           ;incstack = 0
  1744                           ; Regs used in _send1dato: [wreg]
  1745                           ;send1dato@dato stored from wreg
  1746  0BF8  00F3               	movwf	send1dato@dato
  1747  0BF9                     l1549:
  1748                           
  1749                           ;ComSerial.c: 27:     TXREG = dato;
  1750  0BF9  0873               	movf	send1dato@dato,w
  1751  0BFA  1283               	bcf	3,5	;RP0=0, select bank0
  1752  0BFB  1303               	bcf	3,6	;RP1=0, select bank0
  1753  0BFC  0099               	movwf	25	;volatile
  1754  0BFD                     l141:	
  1755                           ;ComSerial.c: 28:     while(!TXSTAbits.TRMT);
  1756                           
  1757  0BFD  1683               	bsf	3,5	;RP0=1, select bank1
  1758  0BFE  1303               	bcf	3,6	;RP1=0, select bank1
  1759  0BFF  1C98               	btfss	24,1	;volatile
  1760  0C00  2C02               	goto	u1381
  1761  0C01  2C03               	goto	u1380
  1762  0C02                     u1381:
  1763  0C02  2BFD               	goto	l141
  1764  0C03                     u1380:
  1765  0C03                     l144:
  1766  0C03  0008               	return
  1767  0C04                     __end_of_send1dato:
  1768                           
  1769                           	psect	text6
  1770  0DC0                     __ptext6:	
  1771 ;; *************** function _division *****************
  1772 ;; Defined at:
  1773 ;;		line 74 in file "ComSerial.c"
  1774 ;; Parameters:    Size  Location     Type
  1775 ;;  conteo          1    wreg     unsigned char 
  1776 ;;  un              1    8[COMMON] PTR unsigned char 
  1777 ;;		 -> sendfloat@digdecimal(1), 
  1778 ;;  dec             1    9[COMMON] PTR unsigned char 
  1779 ;;		 -> sendfloat@digdecimal(1), 
  1780 ;; Auto vars:     Size  Location     Type
  1781 ;;  conteo          1    7[BANK0 ] unsigned char 
  1782 ;;  div             1    8[BANK0 ] unsigned char 
  1783 ;; Return value:  Size  Location     Type
  1784 ;;                  1    wreg      void 
  1785 ;; Registers used:
  1786 ;;		wreg, fsr0l, fsr0h, status,2, status,0, pclath, cstack
  1787 ;; Tracked objects:
  1788 ;;		On entry : 0/0
  1789 ;;		On exit  : 0/0
  1790 ;;		Unchanged: 0/0
  1791 ;; Data sizes:     COMMON   BANK0   BANK1   BANK3   BANK2
  1792 ;;      Params:         2       0       0       0       0
  1793 ;;      Locals:         0       2       0       0       0
  1794 ;;      Temps:          0       3       0       0       0
  1795 ;;      Totals:         2       5       0       0       0
  1796 ;;Total ram usage:        7 bytes
  1797 ;; Hardware stack levels used:    1
  1798 ;; Hardware stack levels required when called:    2
  1799 ;; This function calls:
  1800 ;;		___awdiv
  1801 ;;		___bmul
  1802 ;; This function is called by:
  1803 ;;		_sendfloat
  1804 ;; This function uses a non-reentrant model
  1805 ;;
  1806                           
  1807                           
  1808                           ;psect for function _division
  1809  0DC0                     _division:
  1810                           
  1811                           ;incstack = 0
  1812                           ; Regs used in _division: [wreg-fsr0h+status,2+status,0+pclath+cstack]
  1813                           ;division@conteo stored from wreg
  1814  0DC0  1283               	bcf	3,5	;RP0=0, select bank0
  1815  0DC1  1303               	bcf	3,6	;RP1=0, select bank0
  1816  0DC2  00A7               	movwf	division@conteo
  1817  0DC3                     l2575:
  1818                           
  1819                           ;ComSerial.c: 75:     uint8_t div = conteo;
  1820  0DC3  0827               	movf	division@conteo,w
  1821  0DC4  00A4               	movwf	??_division
  1822  0DC5  0824               	movf	??_division,w
  1823  0DC6  00A8               	movwf	division@div
  1824  0DC7                     l2577:
  1825                           
  1826                           ;ComSerial.c: 76:     *un = 0;
  1827  0DC7  0878               	movf	division@un,w
  1828  0DC8  0084               	movwf	4
  1829  0DC9  1383               	bcf	3,7	;select IRP bank0
  1830  0DCA  0180               	clrf	0
  1831  0DCB                     l2579:
  1832                           
  1833                           ;ComSerial.c: 77:     *dec = 0;
  1834  0DCB  0879               	movf	division@dec,w
  1835  0DCC  0084               	movwf	4
  1836  0DCD  0180               	clrf	0
  1837                           
  1838                           ;ComSerial.c: 80:     while (div >= 10){
  1839  0DCE  2DFA               	goto	l2583
  1840  0DCF                     l2581:
  1841                           
  1842                           ;ComSerial.c: 81:     *dec = div/10;
  1843  0DCF  300A               	movlw	10
  1844  0DD0  00F3               	movwf	___awdiv@divisor
  1845  0DD1  3000               	movlw	0
  1846  0DD2  00F4               	movwf	___awdiv@divisor+1
  1847  0DD3  0828               	movf	division@div,w
  1848  0DD4  00A4               	movwf	??_division
  1849  0DD5  01A5               	clrf	??_division+1
  1850  0DD6  0824               	movf	??_division,w
  1851  0DD7  00F5               	movwf	___awdiv@dividend
  1852  0DD8  0825               	movf	??_division+1,w
  1853  0DD9  00F6               	movwf	___awdiv@dividend+1
  1854  0DDA  120A  158A  269E  120A  158A  	fcall	___awdiv
  1855  0DDF  0873               	movf	?___awdiv,w
  1856  0DE0  1283               	bcf	3,5	;RP0=0, select bank0
  1857  0DE1  1303               	bcf	3,6	;RP1=0, select bank0
  1858  0DE2  00A6               	movwf	??_division+2
  1859  0DE3  0879               	movf	division@dec,w
  1860  0DE4  0084               	movwf	4
  1861  0DE5  0826               	movf	??_division+2,w
  1862  0DE6  1383               	bcf	3,7	;select IRP bank0
  1863  0DE7  0080               	movwf	0
  1864                           
  1865                           ;ComSerial.c: 82:     div = div - (*dec)*(10);
  1866  0DE8  30F6               	movlw	246
  1867  0DE9  00A4               	movwf	??_division
  1868  0DEA  0824               	movf	??_division,w
  1869  0DEB  00F3               	movwf	___bmul@multiplicand
  1870  0DEC  0879               	movf	division@dec,w
  1871  0DED  0084               	movwf	4
  1872  0DEE  0800               	movf	0,w
  1873  0DEF  120A  158A  2452  120A  158A  	fcall	___bmul
  1874  0DF4  1283               	bcf	3,5	;RP0=0, select bank0
  1875  0DF5  1303               	bcf	3,6	;RP1=0, select bank0
  1876  0DF6  0728               	addwf	division@div,w
  1877  0DF7  00A5               	movwf	??_division+1
  1878  0DF8  0825               	movf	??_division+1,w
  1879  0DF9  00A8               	movwf	division@div
  1880  0DFA                     l2583:
  1881                           
  1882                           ;ComSerial.c: 80:     while (div >= 10){
  1883  0DFA  300A               	movlw	10
  1884  0DFB  0228               	subwf	division@div,w
  1885  0DFC  1803               	skipnc
  1886  0DFD  2DFF               	goto	u3351
  1887  0DFE  2E00               	goto	u3350
  1888  0DFF                     u3351:
  1889  0DFF  2DCF               	goto	l2581
  1890  0E00                     u3350:
  1891  0E00                     l2585:
  1892                           
  1893                           ;ComSerial.c: 85:     *un = div;
  1894  0E00  0828               	movf	division@div,w
  1895  0E01  00A4               	movwf	??_division
  1896  0E02  0878               	movf	division@un,w
  1897  0E03  0084               	movwf	4
  1898  0E04  0824               	movf	??_division,w
  1899  0E05  1383               	bcf	3,7	;select IRP bank0
  1900  0E06  0080               	movwf	0
  1901  0E07                     l162:
  1902  0E07  0008               	return
  1903  0E08                     __end_of_division:
  1904                           
  1905                           	psect	text7
  1906  0C52                     __ptext7:	
  1907 ;; *************** function ___bmul *****************
  1908 ;; Defined at:
  1909 ;;		line 4 in file "C:\Program Files\Microchip\xc8\v2.31\pic\sources\c90\common\Umul8.c"
  1910 ;; Parameters:    Size  Location     Type
  1911 ;;  multiplier      1    wreg     unsigned char 
  1912 ;;  multiplicand    1    3[COMMON] unsigned char 
  1913 ;; Auto vars:     Size  Location     Type
  1914 ;;  multiplier      1    6[COMMON] unsigned char 
  1915 ;;  product         1    5[COMMON] unsigned char 
  1916 ;; Return value:  Size  Location     Type
  1917 ;;                  1    wreg      unsigned char 
  1918 ;; Registers used:
  1919 ;;		wreg, status,2, status,0
  1920 ;; Tracked objects:
  1921 ;;		On entry : 0/0
  1922 ;;		On exit  : 0/0
  1923 ;;		Unchanged: 0/0
  1924 ;; Data sizes:     COMMON   BANK0   BANK1   BANK3   BANK2
  1925 ;;      Params:         1       0       0       0       0
  1926 ;;      Locals:         2       0       0       0       0
  1927 ;;      Temps:          1       0       0       0       0
  1928 ;;      Totals:         4       0       0       0       0
  1929 ;;Total ram usage:        4 bytes
  1930 ;; Hardware stack levels used:    1
  1931 ;; Hardware stack levels required when called:    1
  1932 ;; This function calls:
  1933 ;;		Nothing
  1934 ;; This function is called by:
  1935 ;;		_division
  1936 ;;		_divisiondecimal
  1937 ;; This function uses a non-reentrant model
  1938 ;;
  1939                           
  1940                           
  1941                           ;psect for function ___bmul
  1942  0C52                     ___bmul:
  1943                           
  1944                           ;incstack = 0
  1945                           ; Regs used in ___bmul: [wreg+status,2+status,0]
  1946                           ;___bmul@multiplier stored from wreg
  1947  0C52  00F6               	movwf	___bmul@multiplier
  1948  0C53                     l2309:
  1949  0C53  01F5               	clrf	___bmul@product
  1950  0C54                     l2311:
  1951  0C54  1C76               	btfss	___bmul@multiplier,0
  1952  0C55  2C57               	goto	u2741
  1953  0C56  2C58               	goto	u2740
  1954  0C57                     u2741:
  1955  0C57  2C5C               	goto	l2315
  1956  0C58                     u2740:
  1957  0C58                     l2313:
  1958  0C58  0873               	movf	___bmul@multiplicand,w
  1959  0C59  00F4               	movwf	??___bmul
  1960  0C5A  0874               	movf	??___bmul,w
  1961  0C5B  07F5               	addwf	___bmul@product,f
  1962  0C5C                     l2315:
  1963  0C5C  1003               	clrc
  1964  0C5D  0DF3               	rlf	___bmul@multiplicand,f
  1965  0C5E                     l2317:
  1966  0C5E  1003               	clrc
  1967  0C5F  0CF6               	rrf	___bmul@multiplier,f
  1968  0C60  0876               	movf	___bmul@multiplier,w
  1969  0C61  1D03               	btfss	3,2
  1970  0C62  2C64               	goto	u2751
  1971  0C63  2C65               	goto	u2750
  1972  0C64                     u2751:
  1973  0C64  2C54               	goto	l2311
  1974  0C65                     u2750:
  1975  0C65                     l2319:
  1976  0C65  0875               	movf	___bmul@product,w
  1977  0C66                     l305:
  1978  0C66  0008               	return
  1979  0C67                     __end_of___bmul:
  1980                           
  1981                           	psect	text8
  1982  0E9E                     __ptext8:	
  1983 ;; *************** function ___awdiv *****************
  1984 ;; Defined at:
  1985 ;;		line 5 in file "C:\Program Files\Microchip\xc8\v2.31\pic\sources\c90\common\awdiv.c"
  1986 ;; Parameters:    Size  Location     Type
  1987 ;;  divisor         2    3[COMMON] int 
  1988 ;;  dividend        2    5[COMMON] int 
  1989 ;; Auto vars:     Size  Location     Type
  1990 ;;  quotient        2    2[BANK0 ] int 
  1991 ;;  sign            1    1[BANK0 ] unsigned char 
  1992 ;;  counter         1    0[BANK0 ] unsigned char 
  1993 ;; Return value:  Size  Location     Type
  1994 ;;                  2    3[COMMON] int 
  1995 ;; Registers used:
  1996 ;;		wreg, status,2, status,0
  1997 ;; Tracked objects:
  1998 ;;		On entry : 0/0
  1999 ;;		On exit  : 0/0
  2000 ;;		Unchanged: 0/0
  2001 ;; Data sizes:     COMMON   BANK0   BANK1   BANK3   BANK2
  2002 ;;      Params:         4       0       0       0       0
  2003 ;;      Locals:         0       4       0       0       0
  2004 ;;      Temps:          1       0       0       0       0
  2005 ;;      Totals:         5       4       0       0       0
  2006 ;;Total ram usage:        9 bytes
  2007 ;; Hardware stack levels used:    1
  2008 ;; Hardware stack levels required when called:    1
  2009 ;; This function calls:
  2010 ;;		Nothing
  2011 ;; This function is called by:
  2012 ;;		_division
  2013 ;;		_divisiondecimal
  2014 ;; This function uses a non-reentrant model
  2015 ;;
  2016                           
  2017                           
  2018                           ;psect for function ___awdiv
  2019  0E9E                     ___awdiv:
  2020  0E9E                     l2323:	
  2021                           ;incstack = 0
  2022                           ; Regs used in ___awdiv: [wreg+status,2+status,0]
  2023                           
  2024  0E9E  1283               	bcf	3,5	;RP0=0, select bank0
  2025  0E9F  1303               	bcf	3,6	;RP1=0, select bank0
  2026  0EA0  01A1               	clrf	___awdiv@sign
  2027  0EA1                     l2325:
  2028  0EA1  1FF4               	btfss	___awdiv@divisor+1,7
  2029  0EA2  2EA4               	goto	u2761
  2030  0EA3  2EA5               	goto	u2760
  2031  0EA4                     u2761:
  2032  0EA4  2EAC               	goto	l2331
  2033  0EA5                     u2760:
  2034  0EA5                     l2327:
  2035  0EA5  09F3               	comf	___awdiv@divisor,f
  2036  0EA6  09F4               	comf	___awdiv@divisor+1,f
  2037  0EA7  0AF3               	incf	___awdiv@divisor,f
  2038  0EA8  1903               	skipnz
  2039  0EA9  0AF4               	incf	___awdiv@divisor+1,f
  2040  0EAA                     l2329:
  2041  0EAA  01A1               	clrf	___awdiv@sign
  2042  0EAB  0AA1               	incf	___awdiv@sign,f
  2043  0EAC                     l2331:
  2044  0EAC  1FF6               	btfss	___awdiv@dividend+1,7
  2045  0EAD  2EAF               	goto	u2771
  2046  0EAE  2EB0               	goto	u2770
  2047  0EAF                     u2771:
  2048  0EAF  2EB9               	goto	l2337
  2049  0EB0                     u2770:
  2050  0EB0                     l2333:
  2051  0EB0  09F5               	comf	___awdiv@dividend,f
  2052  0EB1  09F6               	comf	___awdiv@dividend+1,f
  2053  0EB2  0AF5               	incf	___awdiv@dividend,f
  2054  0EB3  1903               	skipnz
  2055  0EB4  0AF6               	incf	___awdiv@dividend+1,f
  2056  0EB5                     l2335:
  2057  0EB5  3001               	movlw	1
  2058  0EB6  00F7               	movwf	??___awdiv
  2059  0EB7  0877               	movf	??___awdiv,w
  2060  0EB8  06A1               	xorwf	___awdiv@sign,f
  2061  0EB9                     l2337:
  2062  0EB9  01A2               	clrf	___awdiv@quotient
  2063  0EBA  01A3               	clrf	___awdiv@quotient+1
  2064  0EBB                     l2339:
  2065  0EBB  0873               	movf	___awdiv@divisor,w
  2066  0EBC  0474               	iorwf	___awdiv@divisor+1,w
  2067  0EBD  1903               	btfsc	3,2
  2068  0EBE  2EC0               	goto	u2781
  2069  0EBF  2EC1               	goto	u2780
  2070  0EC0                     u2781:
  2071  0EC0  2EF8               	goto	l2359
  2072  0EC1                     u2780:
  2073  0EC1                     l2341:
  2074  0EC1  01A0               	clrf	___awdiv@counter
  2075  0EC2  0AA0               	incf	___awdiv@counter,f
  2076  0EC3  2ECF               	goto	l2347
  2077  0EC4                     l2343:
  2078  0EC4  3001               	movlw	1
  2079  0EC5                     u2795:
  2080  0EC5  1003               	clrc
  2081  0EC6  0DF3               	rlf	___awdiv@divisor,f
  2082  0EC7  0DF4               	rlf	___awdiv@divisor+1,f
  2083  0EC8  3EFF               	addlw	-1
  2084  0EC9  1D03               	skipz
  2085  0ECA  2EC5               	goto	u2795
  2086  0ECB                     l2345:
  2087  0ECB  3001               	movlw	1
  2088  0ECC  00F7               	movwf	??___awdiv
  2089  0ECD  0877               	movf	??___awdiv,w
  2090  0ECE  07A0               	addwf	___awdiv@counter,f
  2091  0ECF                     l2347:
  2092  0ECF  1FF4               	btfss	___awdiv@divisor+1,7
  2093  0ED0  2ED2               	goto	u2801
  2094  0ED1  2ED3               	goto	u2800
  2095  0ED2                     u2801:
  2096  0ED2  2EC4               	goto	l2343
  2097  0ED3                     u2800:
  2098  0ED3                     l2349:
  2099  0ED3  3001               	movlw	1
  2100  0ED4                     u2815:
  2101  0ED4  1003               	clrc
  2102  0ED5  0DA2               	rlf	___awdiv@quotient,f
  2103  0ED6  0DA3               	rlf	___awdiv@quotient+1,f
  2104  0ED7  3EFF               	addlw	-1
  2105  0ED8  1D03               	skipz
  2106  0ED9  2ED4               	goto	u2815
  2107  0EDA  0874               	movf	___awdiv@divisor+1,w
  2108  0EDB  0276               	subwf	___awdiv@dividend+1,w
  2109  0EDC  1D03               	skipz
  2110  0EDD  2EE0               	goto	u2825
  2111  0EDE  0873               	movf	___awdiv@divisor,w
  2112  0EDF  0275               	subwf	___awdiv@dividend,w
  2113  0EE0                     u2825:
  2114  0EE0  1C03               	skipc
  2115  0EE1  2EE3               	goto	u2821
  2116  0EE2  2EE4               	goto	u2820
  2117  0EE3                     u2821:
  2118  0EE3  2EEB               	goto	l2355
  2119  0EE4                     u2820:
  2120  0EE4                     l2351:
  2121  0EE4  0873               	movf	___awdiv@divisor,w
  2122  0EE5  02F5               	subwf	___awdiv@dividend,f
  2123  0EE6  0874               	movf	___awdiv@divisor+1,w
  2124  0EE7  1C03               	skipc
  2125  0EE8  03F6               	decf	___awdiv@dividend+1,f
  2126  0EE9  02F6               	subwf	___awdiv@dividend+1,f
  2127  0EEA                     l2353:
  2128  0EEA  1422               	bsf	___awdiv@quotient,0
  2129  0EEB                     l2355:
  2130  0EEB  3001               	movlw	1
  2131  0EEC                     u2835:
  2132  0EEC  1003               	clrc
  2133  0EED  0CF4               	rrf	___awdiv@divisor+1,f
  2134  0EEE  0CF3               	rrf	___awdiv@divisor,f
  2135  0EEF  3EFF               	addlw	-1
  2136  0EF0  1D03               	skipz
  2137  0EF1  2EEC               	goto	u2835
  2138  0EF2                     l2357:
  2139  0EF2  3001               	movlw	1
  2140  0EF3  02A0               	subwf	___awdiv@counter,f
  2141  0EF4  1D03               	btfss	3,2
  2142  0EF5  2EF7               	goto	u2841
  2143  0EF6  2EF8               	goto	u2840
  2144  0EF7                     u2841:
  2145  0EF7  2ED3               	goto	l2349
  2146  0EF8                     u2840:
  2147  0EF8                     l2359:
  2148  0EF8  0821               	movf	___awdiv@sign,w
  2149  0EF9  1903               	btfsc	3,2
  2150  0EFA  2EFC               	goto	u2851
  2151  0EFB  2EFD               	goto	u2850
  2152  0EFC                     u2851:
  2153  0EFC  2F02               	goto	l2363
  2154  0EFD                     u2850:
  2155  0EFD                     l2361:
  2156  0EFD  09A2               	comf	___awdiv@quotient,f
  2157  0EFE  09A3               	comf	___awdiv@quotient+1,f
  2158  0EFF  0AA2               	incf	___awdiv@quotient,f
  2159  0F00  1903               	skipnz
  2160  0F01  0AA3               	incf	___awdiv@quotient+1,f
  2161  0F02                     l2363:
  2162  0F02  0823               	movf	___awdiv@quotient+1,w
  2163  0F03  00F4               	movwf	?___awdiv+1
  2164  0F04  0822               	movf	___awdiv@quotient,w
  2165  0F05  00F3               	movwf	?___awdiv
  2166  0F06                     l432:
  2167  0F06  0008               	return
  2168  0F07                     __end_of___awdiv:
  2169                           
  2170                           	psect	text9
  2171  0F07                     __ptext9:	
  2172 ;; *************** function ___fltol *****************
  2173 ;; Defined at:
  2174 ;;		line 43 in file "C:\Program Files\Microchip\xc8\v2.31\pic\sources\c90\common\fltol.c"
  2175 ;; Parameters:    Size  Location     Type
  2176 ;;  f1              4   36[BANK0 ] int 
  2177 ;; Auto vars:     Size  Location     Type
  2178 ;;  exp1            1    8[COMMON] unsigned char 
  2179 ;;  sign1           1    7[COMMON] unsigned char 
  2180 ;; Return value:  Size  Location     Type
  2181 ;;                  4   36[BANK0 ] long 
  2182 ;; Registers used:
  2183 ;;		wreg, status,2, status,0
  2184 ;; Tracked objects:
  2185 ;;		On entry : 0/0
  2186 ;;		On exit  : 0/0
  2187 ;;		Unchanged: 0/0
  2188 ;; Data sizes:     COMMON   BANK0   BANK1   BANK3   BANK2
  2189 ;;      Params:         0       4       0       0       0
  2190 ;;      Locals:         2       0       0       0       0
  2191 ;;      Temps:          0       5       0       0       0
  2192 ;;      Totals:         2       9       0       0       0
  2193 ;;Total ram usage:       11 bytes
  2194 ;; Hardware stack levels used:    1
  2195 ;; Hardware stack levels required when called:    1
  2196 ;; This function calls:
  2197 ;;		Nothing
  2198 ;; This function is called by:
  2199 ;;		_sendfloat
  2200 ;; This function uses a non-reentrant model
  2201 ;;
  2202                           
  2203                           
  2204                           ;psect for function ___fltol
  2205  0F07                     ___fltol:
  2206  0F07                     l2605:	
  2207                           ;incstack = 0
  2208                           ; Regs used in ___fltol: [wreg+status,2+status,0]
  2209                           
  2210  0F07  1003               	clrc
  2211  0F08  1283               	bcf	3,5	;RP0=0, select bank0
  2212  0F09  1303               	bcf	3,6	;RP1=0, select bank0
  2213  0F0A  0D46               	rlf	___fltol@f1+2,w
  2214  0F0B  0D47               	rlf	___fltol@f1+3,w
  2215  0F0C  00C8               	movwf	??___fltol
  2216  0F0D  0848               	movf	??___fltol,w
  2217  0F0E  00F8               	movwf	___fltol@exp1
  2218  0F0F  0878               	movf	___fltol@exp1,w
  2219  0F10  1D03               	btfss	3,2
  2220  0F11  2F13               	goto	u3381
  2221  0F12  2F14               	goto	u3380
  2222  0F13                     u3381:
  2223  0F13  2F1D               	goto	l2611
  2224  0F14                     u3380:
  2225  0F14                     l2607:
  2226  0F14  3000               	movlw	0
  2227  0F15  00C7               	movwf	?___fltol+3
  2228  0F16  3000               	movlw	0
  2229  0F17  00C6               	movwf	?___fltol+2
  2230  0F18  3000               	movlw	0
  2231  0F19  00C5               	movwf	?___fltol+1
  2232  0F1A  3000               	movlw	0
  2233  0F1B  00C4               	movwf	?___fltol
  2234  0F1C  2F82               	goto	l465
  2235  0F1D                     l2611:
  2236  0F1D  0844               	movf	___fltol@f1,w
  2237  0F1E  00C8               	movwf	??___fltol
  2238  0F1F  0845               	movf	___fltol@f1+1,w
  2239  0F20  00C9               	movwf	??___fltol+1
  2240  0F21  0846               	movf	___fltol@f1+2,w
  2241  0F22  00CA               	movwf	??___fltol+2
  2242  0F23  0847               	movf	___fltol@f1+3,w
  2243  0F24  00CB               	movwf	??___fltol+3
  2244  0F25  301F               	movlw	31
  2245  0F26                     u3395:
  2246  0F26  1003               	clrc
  2247  0F27  0CCB               	rrf	??___fltol+3,f
  2248  0F28  0CCA               	rrf	??___fltol+2,f
  2249  0F29  0CC9               	rrf	??___fltol+1,f
  2250  0F2A  0CC8               	rrf	??___fltol,f
  2251  0F2B                     u3390:
  2252  0F2B  3EFF               	addlw	-1
  2253  0F2C  1D03               	skipz
  2254  0F2D  2F26               	goto	u3395
  2255  0F2E  0848               	movf	??___fltol,w
  2256  0F2F  00CC               	movwf	??___fltol+4
  2257  0F30  084C               	movf	??___fltol+4,w
  2258  0F31  00F7               	movwf	___fltol@sign1
  2259  0F32                     l2613:
  2260  0F32  17C6               	bsf	___fltol@f1+2,7
  2261  0F33                     l2615:
  2262  0F33  30FF               	movlw	255
  2263  0F34  05C4               	andwf	___fltol@f1,f
  2264  0F35  30FF               	movlw	255
  2265  0F36  05C5               	andwf	___fltol@f1+1,f
  2266  0F37  30FF               	movlw	255
  2267  0F38  05C6               	andwf	___fltol@f1+2,f
  2268  0F39  3000               	movlw	0
  2269  0F3A  05C7               	andwf	___fltol@f1+3,f
  2270  0F3B                     l2617:
  2271  0F3B  3096               	movlw	150
  2272  0F3C  02F8               	subwf	___fltol@exp1,f
  2273  0F3D                     l2619:
  2274  0F3D  1FF8               	btfss	___fltol@exp1,7
  2275  0F3E  2F40               	goto	u3401
  2276  0F3F  2F41               	goto	u3400
  2277  0F40                     u3401:
  2278  0F40  2F5B               	goto	l2629
  2279  0F41                     u3400:
  2280  0F41                     l2621:
  2281  0F41  0878               	movf	___fltol@exp1,w
  2282  0F42  3A80               	xorlw	128
  2283  0F43  3E97               	addlw	151
  2284  0F44  1803               	skipnc
  2285  0F45  2F47               	goto	u3411
  2286  0F46  2F48               	goto	u3410
  2287  0F47                     u3411:
  2288  0F47  2F49               	goto	l2627
  2289  0F48                     u3410:
  2290  0F48  2F14               	goto	l2607
  2291  0F49                     l2627:
  2292  0F49  3001               	movlw	1
  2293  0F4A                     u3425:
  2294  0F4A  1003               	clrc
  2295  0F4B  0CC7               	rrf	___fltol@f1+3,f
  2296  0F4C  0CC6               	rrf	___fltol@f1+2,f
  2297  0F4D  0CC5               	rrf	___fltol@f1+1,f
  2298  0F4E  0CC4               	rrf	___fltol@f1,f
  2299  0F4F  3EFF               	addlw	-1
  2300  0F50  1D03               	skipz
  2301  0F51  2F4A               	goto	u3425
  2302  0F52  3001               	movlw	1
  2303  0F53  00C8               	movwf	??___fltol
  2304  0F54  0848               	movf	??___fltol,w
  2305  0F55  07F8               	addwf	___fltol@exp1,f
  2306  0F56  1D03               	btfss	3,2
  2307  0F57  2F59               	goto	u3431
  2308  0F58  2F5A               	goto	u3430
  2309  0F59                     u3431:
  2310  0F59  2F49               	goto	l2627
  2311  0F5A                     u3430:
  2312  0F5A  2F72               	goto	l2637
  2313  0F5B                     l2629:
  2314  0F5B  3020               	movlw	32
  2315  0F5C  0278               	subwf	___fltol@exp1,w
  2316  0F5D  1C03               	skipc
  2317  0F5E  2F60               	goto	u3441
  2318  0F5F  2F61               	goto	u3440
  2319  0F60                     u3441:
  2320  0F60  2F6D               	goto	l472
  2321  0F61                     u3440:
  2322  0F61  2F14               	goto	l2607
  2323  0F62                     l2635:
  2324  0F62  3001               	movlw	1
  2325  0F63  00C8               	movwf	??___fltol
  2326  0F64                     u3455:
  2327  0F64  1003               	clrc
  2328  0F65  0DC4               	rlf	___fltol@f1,f
  2329  0F66  0DC5               	rlf	___fltol@f1+1,f
  2330  0F67  0DC6               	rlf	___fltol@f1+2,f
  2331  0F68  0DC7               	rlf	___fltol@f1+3,f
  2332  0F69  0BC8               	decfsz	??___fltol,f
  2333  0F6A  2F64               	goto	u3455
  2334  0F6B  3001               	movlw	1
  2335  0F6C  02F8               	subwf	___fltol@exp1,f
  2336  0F6D                     l472:
  2337  0F6D  0878               	movf	___fltol@exp1,w
  2338  0F6E  1D03               	btfss	3,2
  2339  0F6F  2F71               	goto	u3461
  2340  0F70  2F72               	goto	u3460
  2341  0F71                     u3461:
  2342  0F71  2F62               	goto	l2635
  2343  0F72                     u3460:
  2344  0F72                     l2637:
  2345  0F72  0877               	movf	___fltol@sign1,w
  2346  0F73  1903               	btfsc	3,2
  2347  0F74  2F76               	goto	u3471
  2348  0F75  2F77               	goto	u3470
  2349  0F76                     u3471:
  2350  0F76  2F82               	goto	l475
  2351  0F77                     u3470:
  2352  0F77                     l2639:
  2353  0F77  09C4               	comf	___fltol@f1,f
  2354  0F78  09C5               	comf	___fltol@f1+1,f
  2355  0F79  09C6               	comf	___fltol@f1+2,f
  2356  0F7A  09C7               	comf	___fltol@f1+3,f
  2357  0F7B  0AC4               	incf	___fltol@f1,f
  2358  0F7C  1903               	skipnz
  2359  0F7D  0AC5               	incf	___fltol@f1+1,f
  2360  0F7E  1903               	skipnz
  2361  0F7F  0AC6               	incf	___fltol@f1+2,f
  2362  0F80  1903               	skipnz
  2363  0F81  0AC7               	incf	___fltol@f1+3,f
  2364  0F82                     l475:
  2365  0F82                     l465:
  2366  0F82  0008               	return
  2367  0F83                     __end_of___fltol:
  2368                           
  2369                           	psect	text10
  2370  0C86                     __ptext10:	
  2371 ;; *************** function ___flsub *****************
  2372 ;; Defined at:
  2373 ;;		line 242 in file "C:\Program Files\Microchip\xc8\v2.31\pic\sources\c90\common\sprcadd.c"
  2374 ;; Parameters:    Size  Location     Type
  2375 ;;  a               4   16[BANK0 ] long 
  2376 ;;  b               4   20[BANK0 ] long 
  2377 ;; Auto vars:     Size  Location     Type
  2378 ;;		None
  2379 ;; Return value:  Size  Location     Type
  2380 ;;                  4   16[BANK0 ] long 
  2381 ;; Registers used:
  2382 ;;		wreg, status,2, status,0, btemp+1, pclath, cstack
  2383 ;; Tracked objects:
  2384 ;;		On entry : 0/0
  2385 ;;		On exit  : 0/0
  2386 ;;		Unchanged: 0/0
  2387 ;; Data sizes:     COMMON   BANK0   BANK1   BANK3   BANK2
  2388 ;;      Params:         0       8       0       0       0
  2389 ;;      Locals:         0       0       0       0       0
  2390 ;;      Temps:          0       0       0       0       0
  2391 ;;      Totals:         0       8       0       0       0
  2392 ;;Total ram usage:        8 bytes
  2393 ;; Hardware stack levels used:    1
  2394 ;; Hardware stack levels required when called:    2
  2395 ;; This function calls:
  2396 ;;		___fladd
  2397 ;; This function is called by:
  2398 ;;		_sendfloat
  2399 ;; This function uses a non-reentrant model
  2400 ;;
  2401                           
  2402                           
  2403                           ;psect for function ___flsub
  2404  0C86                     ___flsub:
  2405  0C86                     l2641:	
  2406                           ;incstack = 0
  2407                           ; Regs used in ___flsub: [wreg+status,2+status,0+btemp+1+pclath+cstack]
  2408                           
  2409  0C86  3080               	movlw	128
  2410  0C87  1283               	bcf	3,5	;RP0=0, select bank0
  2411  0C88  1303               	bcf	3,6	;RP1=0, select bank0
  2412  0C89  06B3               	xorwf	___flsub@a+3,f
  2413  0C8A                     l2643:
  2414  0C8A  0837               	movf	___flsub@b+3,w
  2415  0C8B  00A3               	movwf	___fladd@b+3
  2416  0C8C  0836               	movf	___flsub@b+2,w
  2417  0C8D  00A2               	movwf	___fladd@b+2
  2418  0C8E  0835               	movf	___flsub@b+1,w
  2419  0C8F  00A1               	movwf	___fladd@b+1
  2420  0C90  0834               	movf	___flsub@b,w
  2421  0C91  00A0               	movwf	___fladd@b
  2422  0C92  0833               	movf	___flsub@a+3,w
  2423  0C93  00A7               	movwf	___fladd@a+3
  2424  0C94  0832               	movf	___flsub@a+2,w
  2425  0C95  00A6               	movwf	___fladd@a+2
  2426  0C96  0831               	movf	___flsub@a+1,w
  2427  0C97  00A5               	movwf	___fladd@a+1
  2428  0C98  0830               	movf	___flsub@a,w
  2429  0C99  00A4               	movwf	___fladd@a
  2430  0C9A  120A  118A  2385  120A  158A  	fcall	___fladd
  2431  0C9F  1283               	bcf	3,5	;RP0=0, select bank0
  2432  0CA0  1303               	bcf	3,6	;RP1=0, select bank0
  2433  0CA1  0823               	movf	?___fladd+3,w
  2434  0CA2  00B3               	movwf	?___flsub+3
  2435  0CA3  0822               	movf	?___fladd+2,w
  2436  0CA4  00B2               	movwf	?___flsub+2
  2437  0CA5  0821               	movf	?___fladd+1,w
  2438  0CA6  00B1               	movwf	?___flsub+1
  2439  0CA7  0820               	movf	?___fladd,w
  2440  0CA8  00B0               	movwf	?___flsub
  2441  0CA9                     l618:
  2442  0CA9  0008               	return
  2443  0CAA                     __end_of___flsub:
  2444                           
  2445                           	psect	text11
  2446  0385                     __ptext11:	
  2447 ;; *************** function ___fladd *****************
  2448 ;; Defined at:
  2449 ;;		line 10 in file "C:\Program Files\Microchip\xc8\v2.31\pic\sources\c90\common\sprcadd.c"
  2450 ;; Parameters:    Size  Location     Type
  2451 ;;  b               4    0[BANK0 ] long 
  2452 ;;  a               4    4[BANK0 ] long 
  2453 ;; Auto vars:     Size  Location     Type
  2454 ;;  grs             1    6[COMMON] unsigned char 
  2455 ;;  bexp            1    5[COMMON] unsigned char 
  2456 ;;  aexp            1    4[COMMON] unsigned char 
  2457 ;;  signs           1    3[COMMON] unsigned char 
  2458 ;; Return value:  Size  Location     Type
  2459 ;;                  4    0[BANK0 ] unsigned char 
  2460 ;; Registers used:
  2461 ;;		wreg, status,2, status,0, btemp+1
  2462 ;; Tracked objects:
  2463 ;;		On entry : 0/0
  2464 ;;		On exit  : 0/0
  2465 ;;		Unchanged: 0/0
  2466 ;; Data sizes:     COMMON   BANK0   BANK1   BANK3   BANK2
  2467 ;;      Params:         0       8       0       0       0
  2468 ;;      Locals:         4       0       0       0       0
  2469 ;;      Temps:          0       8       0       0       0
  2470 ;;      Totals:         4      16       0       0       0
  2471 ;;Total ram usage:       20 bytes
  2472 ;; Hardware stack levels used:    1
  2473 ;; Hardware stack levels required when called:    1
  2474 ;; This function calls:
  2475 ;;		Nothing
  2476 ;; This function is called by:
  2477 ;;		___flsub
  2478 ;; This function uses a non-reentrant model
  2479 ;;
  2480                           
  2481                           
  2482                           ;psect for function ___fladd
  2483  0385                     ___fladd:
  2484  0385                     l2367:	
  2485                           ;incstack = 0
  2486                           ; Regs used in ___fladd: [wreg+status,2+status,0+btemp+1]
  2487                           
  2488  0385  1283               	bcf	3,5	;RP0=0, select bank0
  2489  0386  1303               	bcf	3,6	;RP1=0, select bank0
  2490  0387  0823               	movf	___fladd@b+3,w
  2491  0388  3980               	andlw	128
  2492  0389  00A8               	movwf	??___fladd
  2493  038A  0828               	movf	??___fladd,w
  2494  038B  00F3               	movwf	___fladd@signs
  2495  038C                     l2369:
  2496  038C  0823               	movf	___fladd@b+3,w
  2497  038D  00A8               	movwf	??___fladd
  2498  038E  0728               	addwf	??___fladd,w
  2499  038F  00A9               	movwf	??___fladd+1
  2500  0390  0829               	movf	??___fladd+1,w
  2501  0391  00F5               	movwf	___fladd@bexp
  2502  0392                     l2371:
  2503  0392  1FA2               	btfss	___fladd@b+2,7
  2504  0393  2B95               	goto	u2861
  2505  0394  2B96               	goto	u2860
  2506  0395                     u2861:
  2507  0395  2B97               	goto	l2375
  2508  0396                     u2860:
  2509  0396                     l2373:
  2510  0396  1475               	bsf	___fladd@bexp,0
  2511  0397                     l2375:
  2512  0397  0875               	movf	___fladd@bexp,w
  2513  0398  1903               	btfsc	3,2
  2514  0399  2B9B               	goto	u2871
  2515  039A  2B9C               	goto	u2870
  2516  039B                     u2871:
  2517  039B  2BAC               	goto	l2385
  2518  039C                     u2870:
  2519  039C                     l2377:
  2520  039C  0A75               	incf	___fladd@bexp,w
  2521  039D  1D03               	btfss	3,2
  2522  039E  2BA0               	goto	u2881
  2523  039F  2BA1               	goto	u2880
  2524  03A0                     u2881:
  2525  03A0  2BA9               	goto	l2381
  2526  03A1                     u2880:
  2527  03A1                     l2379:
  2528  03A1  3000               	movlw	0
  2529  03A2  00A3               	movwf	___fladd@b+3
  2530  03A3  3000               	movlw	0
  2531  03A4  00A2               	movwf	___fladd@b+2
  2532  03A5  3000               	movlw	0
  2533  03A6  00A1               	movwf	___fladd@b+1
  2534  03A7  3000               	movlw	0
  2535  03A8  00A0               	movwf	___fladd@b
  2536  03A9                     l2381:
  2537  03A9  17A2               	bsf	___fladd@b+2,7
  2538  03AA                     l2383:
  2539  03AA  01A3               	clrf	___fladd@b+3
  2540  03AB  2BB4               	goto	l2387
  2541  03AC                     l2385:
  2542  03AC  3000               	movlw	0
  2543  03AD  00A3               	movwf	___fladd@b+3
  2544  03AE  3000               	movlw	0
  2545  03AF  00A2               	movwf	___fladd@b+2
  2546  03B0  3000               	movlw	0
  2547  03B1  00A1               	movwf	___fladd@b+1
  2548  03B2  3000               	movlw	0
  2549  03B3  00A0               	movwf	___fladd@b
  2550  03B4                     l2387:
  2551  03B4  0827               	movf	___fladd@a+3,w
  2552  03B5  3980               	andlw	128
  2553  03B6  00A8               	movwf	??___fladd
  2554  03B7  0828               	movf	??___fladd,w
  2555  03B8  00F4               	movwf	___fladd@aexp
  2556  03B9                     l2389:
  2557  03B9  0874               	movf	___fladd@aexp,w
  2558  03BA  0673               	xorwf	___fladd@signs,w
  2559  03BB  1903               	skipnz
  2560  03BC  2BBE               	goto	u2891
  2561  03BD  2BBF               	goto	u2890
  2562  03BE                     u2891:
  2563  03BE  2BC0               	goto	l2393
  2564  03BF                     u2890:
  2565  03BF                     l2391:
  2566  03BF  1773               	bsf	___fladd@signs,6
  2567  03C0                     l2393:
  2568  03C0  0827               	movf	___fladd@a+3,w
  2569  03C1  00A8               	movwf	??___fladd
  2570  03C2  0728               	addwf	??___fladd,w
  2571  03C3  00A9               	movwf	??___fladd+1
  2572  03C4  0829               	movf	??___fladd+1,w
  2573  03C5  00F4               	movwf	___fladd@aexp
  2574  03C6                     l2395:
  2575  03C6  1FA6               	btfss	___fladd@a+2,7
  2576  03C7  2BC9               	goto	u2901
  2577  03C8  2BCA               	goto	u2900
  2578  03C9                     u2901:
  2579  03C9  2BCB               	goto	l2399
  2580  03CA                     u2900:
  2581  03CA                     l2397:
  2582  03CA  1474               	bsf	___fladd@aexp,0
  2583  03CB                     l2399:
  2584  03CB  0874               	movf	___fladd@aexp,w
  2585  03CC  1903               	btfsc	3,2
  2586  03CD  2BCF               	goto	u2911
  2587  03CE  2BD0               	goto	u2910
  2588  03CF                     u2911:
  2589  03CF  2BE0               	goto	l2409
  2590  03D0                     u2910:
  2591  03D0                     l2401:
  2592  03D0  0A74               	incf	___fladd@aexp,w
  2593  03D1  1D03               	btfss	3,2
  2594  03D2  2BD4               	goto	u2921
  2595  03D3  2BD5               	goto	u2920
  2596  03D4                     u2921:
  2597  03D4  2BDD               	goto	l2405
  2598  03D5                     u2920:
  2599  03D5                     l2403:
  2600  03D5  3000               	movlw	0
  2601  03D6  00A7               	movwf	___fladd@a+3
  2602  03D7  3000               	movlw	0
  2603  03D8  00A6               	movwf	___fladd@a+2
  2604  03D9  3000               	movlw	0
  2605  03DA  00A5               	movwf	___fladd@a+1
  2606  03DB  3000               	movlw	0
  2607  03DC  00A4               	movwf	___fladd@a
  2608  03DD                     l2405:
  2609  03DD  17A6               	bsf	___fladd@a+2,7
  2610  03DE                     l2407:
  2611  03DE  01A7               	clrf	___fladd@a+3
  2612  03DF  2BE8               	goto	l572
  2613  03E0                     l2409:
  2614  03E0  3000               	movlw	0
  2615  03E1  00A7               	movwf	___fladd@a+3
  2616  03E2  3000               	movlw	0
  2617  03E3  00A6               	movwf	___fladd@a+2
  2618  03E4  3000               	movlw	0
  2619  03E5  00A5               	movwf	___fladd@a+1
  2620  03E6  3000               	movlw	0
  2621  03E7  00A4               	movwf	___fladd@a
  2622  03E8                     l572:
  2623  03E8  0875               	movf	___fladd@bexp,w
  2624  03E9  0274               	subwf	___fladd@aexp,w
  2625  03EA  1803               	skipnc
  2626  03EB  2BED               	goto	u2931
  2627  03EC  2BEE               	goto	u2930
  2628  03ED                     u2931:
  2629  03ED  2C32               	goto	l2445
  2630  03EE                     u2930:
  2631  03EE                     l2411:
  2632  03EE  1F73               	btfss	___fladd@signs,6
  2633  03EF  2BF1               	goto	u2941
  2634  03F0  2BF2               	goto	u2940
  2635  03F1                     u2941:
  2636  03F1  2BF6               	goto	l2415
  2637  03F2                     u2940:
  2638  03F2                     l2413:
  2639  03F2  3080               	movlw	128
  2640  03F3  00A8               	movwf	??___fladd
  2641  03F4  0828               	movf	??___fladd,w
  2642  03F5  06F3               	xorwf	___fladd@signs,f
  2643  03F6                     l2415:
  2644  03F6  0875               	movf	___fladd@bexp,w
  2645  03F7  00A8               	movwf	??___fladd
  2646  03F8  0828               	movf	??___fladd,w
  2647  03F9  00F6               	movwf	___fladd@grs
  2648  03FA                     l2417:
  2649  03FA  0874               	movf	___fladd@aexp,w
  2650  03FB  00A8               	movwf	??___fladd
  2651  03FC  0828               	movf	??___fladd,w
  2652  03FD  00F5               	movwf	___fladd@bexp
  2653  03FE                     l2419:
  2654  03FE  0876               	movf	___fladd@grs,w
  2655  03FF  00A8               	movwf	??___fladd
  2656  0400  0828               	movf	??___fladd,w
  2657  0401  00F4               	movwf	___fladd@aexp
  2658  0402                     l2421:
  2659  0402  0820               	movf	___fladd@b,w
  2660  0403  00A8               	movwf	??___fladd
  2661  0404  0828               	movf	??___fladd,w
  2662  0405  00F6               	movwf	___fladd@grs
  2663  0406                     l2423:
  2664  0406  0824               	movf	___fladd@a,w
  2665  0407  00A8               	movwf	??___fladd
  2666  0408  0828               	movf	??___fladd,w
  2667  0409  00A0               	movwf	___fladd@b
  2668  040A                     l2425:
  2669  040A  0876               	movf	___fladd@grs,w
  2670  040B  00A8               	movwf	??___fladd
  2671  040C  0828               	movf	??___fladd,w
  2672  040D  00A4               	movwf	___fladd@a
  2673  040E                     l2427:
  2674  040E  0821               	movf	___fladd@b+1,w
  2675  040F  00A8               	movwf	??___fladd
  2676  0410  0828               	movf	??___fladd,w
  2677  0411  00F6               	movwf	___fladd@grs
  2678  0412                     l2429:
  2679  0412  0825               	movf	___fladd@a+1,w
  2680  0413  00A8               	movwf	??___fladd
  2681  0414  0828               	movf	??___fladd,w
  2682  0415  00A1               	movwf	___fladd@b+1
  2683  0416                     l2431:
  2684  0416  0876               	movf	___fladd@grs,w
  2685  0417  00A8               	movwf	??___fladd
  2686  0418  0828               	movf	??___fladd,w
  2687  0419  00A5               	movwf	___fladd@a+1
  2688  041A                     l2433:
  2689  041A  0822               	movf	___fladd@b+2,w
  2690  041B  00A8               	movwf	??___fladd
  2691  041C  0828               	movf	??___fladd,w
  2692  041D  00F6               	movwf	___fladd@grs
  2693  041E                     l2435:
  2694  041E  0826               	movf	___fladd@a+2,w
  2695  041F  00A8               	movwf	??___fladd
  2696  0420  0828               	movf	??___fladd,w
  2697  0421  00A2               	movwf	___fladd@b+2
  2698  0422                     l2437:
  2699  0422  0876               	movf	___fladd@grs,w
  2700  0423  00A8               	movwf	??___fladd
  2701  0424  0828               	movf	??___fladd,w
  2702  0425  00A6               	movwf	___fladd@a+2
  2703  0426                     l2439:
  2704  0426  0823               	movf	___fladd@b+3,w
  2705  0427  00A8               	movwf	??___fladd
  2706  0428  0828               	movf	??___fladd,w
  2707  0429  00F6               	movwf	___fladd@grs
  2708  042A                     l2441:
  2709  042A  0827               	movf	___fladd@a+3,w
  2710  042B  00A8               	movwf	??___fladd
  2711  042C  0828               	movf	??___fladd,w
  2712  042D  00A3               	movwf	___fladd@b+3
  2713  042E                     l2443:
  2714  042E  0876               	movf	___fladd@grs,w
  2715  042F  00A8               	movwf	??___fladd
  2716  0430  0828               	movf	??___fladd,w
  2717  0431  00A7               	movwf	___fladd@a+3
  2718  0432                     l2445:
  2719  0432  01F6               	clrf	___fladd@grs
  2720  0433                     l2447:
  2721  0433  0874               	movf	___fladd@aexp,w
  2722  0434  00A8               	movwf	??___fladd
  2723  0435  01A9               	clrf	??___fladd+1
  2724  0436  0829               	movf	??___fladd+1,w
  2725  0437  00AB               	movwf	??___fladd+3
  2726  0438  0875               	movf	___fladd@bexp,w
  2727  0439  0228               	subwf	??___fladd,w
  2728  043A  00AA               	movwf	??___fladd+2
  2729  043B  1C03               	skipc
  2730  043C  03AB               	decf	??___fladd+3,f
  2731  043D  082B               	movf	??___fladd+3,w
  2732  043E  3A80               	xorlw	128
  2733  043F  00FF               	movwf	btemp+1
  2734  0440  3080               	movlw	128
  2735  0441  027F               	subwf	btemp+1,w
  2736  0442  1D03               	skipz
  2737  0443  2C46               	goto	u2955
  2738  0444  301A               	movlw	26
  2739  0445  022A               	subwf	??___fladd+2,w
  2740  0446                     u2955:
  2741  0446  1C03               	skipc
  2742  0447  2C49               	goto	u2951
  2743  0448  2C4A               	goto	u2950
  2744  0449                     u2951:
  2745  0449  2C8B               	goto	l2463
  2746  044A                     u2950:
  2747  044A                     l2449:
  2748  044A  1283               	bcf	3,5	;RP0=0, select bank0
  2749  044B  1303               	bcf	3,6	;RP1=0, select bank0
  2750  044C  0823               	movf	___fladd@b+3,w
  2751  044D  0422               	iorwf	___fladd@b+2,w
  2752  044E  0421               	iorwf	___fladd@b+1,w
  2753  044F  0420               	iorwf	___fladd@b,w
  2754  0450  1D03               	skipz
  2755  0451  2C53               	goto	u2961
  2756  0452  2C55               	goto	u2960
  2757  0453                     u2961:
  2758  0453  3001               	movlw	1
  2759  0454  2C56               	goto	u2970
  2760  0455                     u2960:
  2761  0455  3000               	movlw	0
  2762  0456                     u2970:
  2763  0456  00A8               	movwf	??___fladd
  2764  0457  0828               	movf	??___fladd,w
  2765  0458  00F6               	movwf	___fladd@grs
  2766  0459  3000               	movlw	0
  2767  045A  00A3               	movwf	___fladd@b+3
  2768  045B  3000               	movlw	0
  2769  045C  00A2               	movwf	___fladd@b+2
  2770  045D  3000               	movlw	0
  2771  045E  00A1               	movwf	___fladd@b+1
  2772  045F  3000               	movlw	0
  2773  0460  00A0               	movwf	___fladd@b
  2774  0461  0874               	movf	___fladd@aexp,w
  2775  0462  00A8               	movwf	??___fladd
  2776  0463  0828               	movf	??___fladd,w
  2777  0464  00F5               	movwf	___fladd@bexp
  2778  0465  2C91               	goto	l576
  2779  0466                     l578:
  2780  0466  1C76               	btfss	___fladd@grs,0
  2781  0467  2C69               	goto	u2981
  2782  0468  2C6A               	goto	u2980
  2783  0469                     u2981:
  2784  0469  2C75               	goto	l2453
  2785  046A                     u2980:
  2786  046A                     l2451:
  2787  046A  0876               	movf	___fladd@grs,w
  2788  046B  1283               	bcf	3,5	;RP0=0, select bank0
  2789  046C  1303               	bcf	3,6	;RP1=0, select bank0
  2790  046D  00A8               	movwf	??___fladd
  2791  046E  1003               	clrc
  2792  046F  0C28               	rrf	??___fladd,w
  2793  0470  3801               	iorlw	1
  2794  0471  00A9               	movwf	??___fladd+1
  2795  0472  0829               	movf	??___fladd+1,w
  2796  0473  00F6               	movwf	___fladd@grs
  2797  0474  2C77               	goto	l2455
  2798  0475                     l2453:
  2799  0475  1003               	clrc
  2800  0476  0CF6               	rrf	___fladd@grs,f
  2801  0477                     l2455:
  2802  0477  1283               	bcf	3,5	;RP0=0, select bank0
  2803  0478  1303               	bcf	3,6	;RP1=0, select bank0
  2804  0479  1C20               	btfss	___fladd@b,0
  2805  047A  2C7C               	goto	u2991
  2806  047B  2C7D               	goto	u2990
  2807  047C                     u2991:
  2808  047C  2C7E               	goto	l2459
  2809  047D                     u2990:
  2810  047D                     l2457:
  2811  047D  17F6               	bsf	___fladd@grs,7
  2812  047E                     l2459:
  2813  047E  3001               	movlw	1
  2814  047F  00A8               	movwf	??___fladd
  2815  0480                     u3005:
  2816  0480  0D23               	rlf	___fladd@b+3,w
  2817  0481  0CA3               	rrf	___fladd@b+3,f
  2818  0482  0CA2               	rrf	___fladd@b+2,f
  2819  0483  0CA1               	rrf	___fladd@b+1,f
  2820  0484  0CA0               	rrf	___fladd@b,f
  2821  0485  0BA8               	decfsz	??___fladd& (0+127),f
  2822  0486  2C80               	goto	u3005
  2823  0487                     l2461:
  2824  0487  3001               	movlw	1
  2825  0488  00A8               	movwf	??___fladd
  2826  0489  0828               	movf	??___fladd,w
  2827  048A  07F5               	addwf	___fladd@bexp,f
  2828  048B                     l2463:
  2829  048B  0874               	movf	___fladd@aexp,w
  2830  048C  0275               	subwf	___fladd@bexp,w
  2831  048D  1C03               	skipc
  2832  048E  2C90               	goto	u3011
  2833  048F  2C91               	goto	u3010
  2834  0490                     u3011:
  2835  0490  2C66               	goto	l578
  2836  0491                     u3010:
  2837  0491                     l576:
  2838  0491  1B73               	btfsc	___fladd@signs,6
  2839  0492  2C94               	goto	u3021
  2840  0493  2C95               	goto	u3020
  2841  0494                     u3021:
  2842  0494  2CE4               	goto	l2489
  2843  0495                     u3020:
  2844  0495                     l2465:
  2845  0495  0875               	movf	___fladd@bexp,w
  2846  0496  1D03               	btfss	3,2
  2847  0497  2C99               	goto	u3031
  2848  0498  2C9A               	goto	u3030
  2849  0499                     u3031:
  2850  0499  2CA5               	goto	l2471
  2851  049A                     u3030:
  2852  049A                     l2467:
  2853  049A  3000               	movlw	0
  2854  049B  1283               	bcf	3,5	;RP0=0, select bank0
  2855  049C  1303               	bcf	3,6	;RP1=0, select bank0
  2856  049D  00A3               	movwf	?___fladd+3
  2857  049E  3000               	movlw	0
  2858  049F  00A2               	movwf	?___fladd+2
  2859  04A0  3000               	movlw	0
  2860  04A1  00A1               	movwf	?___fladd+1
  2861  04A2  3000               	movlw	0
  2862  04A3  00A0               	movwf	?___fladd
  2863  04A4  2E14               	goto	l585
  2864  04A5                     l2471:
  2865  04A5  1283               	bcf	3,5	;RP0=0, select bank0
  2866  04A6  1303               	bcf	3,6	;RP1=0, select bank0
  2867  04A7  0824               	movf	___fladd@a,w
  2868  04A8  07A0               	addwf	___fladd@b,f
  2869  04A9  0825               	movf	___fladd@a+1,w
  2870  04AA  1103               	clrz
  2871  04AB  1803               	skipnc
  2872  04AC  3E01               	addlw	1
  2873  04AD  1903               	skipnz
  2874  04AE  2CB0               	goto	u3041
  2875  04AF  07A1               	addwf	___fladd@b+1,f
  2876  04B0                     u3041:
  2877  04B0  0826               	movf	___fladd@a+2,w
  2878  04B1  1103               	clrz
  2879  04B2  1803               	skipnc
  2880  04B3  3E01               	addlw	1
  2881  04B4  1903               	skipnz
  2882  04B5  2CB7               	goto	u3042
  2883  04B6  07A2               	addwf	___fladd@b+2,f
  2884  04B7                     u3042:
  2885  04B7  0827               	movf	___fladd@a+3,w
  2886  04B8  1103               	clrz
  2887  04B9  1803               	skipnc
  2888  04BA  3E01               	addlw	1
  2889  04BB  1903               	skipnz
  2890  04BC  2CBE               	goto	u3043
  2891  04BD  07A3               	addwf	___fladd@b+3,f
  2892  04BE                     u3043:
  2893  04BE                     l2473:
  2894  04BE  1C23               	btfss	___fladd@b+3,0
  2895  04BF  2CC1               	goto	u3051
  2896  04C0  2CC2               	goto	u3050
  2897  04C1                     u3051:
  2898  04C1  2D9A               	goto	l2523
  2899  04C2                     u3050:
  2900  04C2                     l2475:
  2901  04C2  1C76               	btfss	___fladd@grs,0
  2902  04C3  2CC5               	goto	u3061
  2903  04C4  2CC6               	goto	u3060
  2904  04C5                     u3061:
  2905  04C5  2CCF               	goto	l2479
  2906  04C6                     u3060:
  2907  04C6                     l2477:
  2908  04C6  0876               	movf	___fladd@grs,w
  2909  04C7  00A8               	movwf	??___fladd
  2910  04C8  1003               	clrc
  2911  04C9  0C28               	rrf	??___fladd,w
  2912  04CA  3801               	iorlw	1
  2913  04CB  00A9               	movwf	??___fladd+1
  2914  04CC  0829               	movf	??___fladd+1,w
  2915  04CD  00F6               	movwf	___fladd@grs
  2916  04CE  2CD1               	goto	l2481
  2917  04CF                     l2479:
  2918  04CF  1003               	clrc
  2919  04D0  0CF6               	rrf	___fladd@grs,f
  2920  04D1                     l2481:
  2921  04D1  1C20               	btfss	___fladd@b,0
  2922  04D2  2CD4               	goto	u3071
  2923  04D3  2CD5               	goto	u3070
  2924  04D4                     u3071:
  2925  04D4  2CD6               	goto	l2485
  2926  04D5                     u3070:
  2927  04D5                     l2483:
  2928  04D5  17F6               	bsf	___fladd@grs,7
  2929  04D6                     l2485:
  2930  04D6  3001               	movlw	1
  2931  04D7  00A8               	movwf	??___fladd
  2932  04D8                     u3085:
  2933  04D8  0D23               	rlf	___fladd@b+3,w
  2934  04D9  0CA3               	rrf	___fladd@b+3,f
  2935  04DA  0CA2               	rrf	___fladd@b+2,f
  2936  04DB  0CA1               	rrf	___fladd@b+1,f
  2937  04DC  0CA0               	rrf	___fladd@b,f
  2938  04DD  0BA8               	decfsz	??___fladd& (0+127),f
  2939  04DE  2CD8               	goto	u3085
  2940  04DF                     l2487:
  2941  04DF  3001               	movlw	1
  2942  04E0  00A8               	movwf	??___fladd
  2943  04E1  0828               	movf	??___fladd,w
  2944  04E2  07F5               	addwf	___fladd@bexp,f
  2945  04E3  2D9A               	goto	l2523
  2946  04E4                     l2489:
  2947  04E4  1283               	bcf	3,5	;RP0=0, select bank0
  2948  04E5  1303               	bcf	3,6	;RP1=0, select bank0
  2949  04E6  0823               	movf	___fladd@b+3,w
  2950  04E7  3A80               	xorlw	128
  2951  04E8  00FF               	movwf	btemp+1
  2952  04E9  0827               	movf	___fladd@a+3,w
  2953  04EA  3A80               	xorlw	128
  2954  04EB  027F               	subwf	btemp+1,w
  2955  04EC  1D03               	skipz
  2956  04ED  2CF8               	goto	u3093
  2957  04EE  0826               	movf	___fladd@a+2,w
  2958  04EF  0222               	subwf	___fladd@b+2,w
  2959  04F0  1D03               	skipz
  2960  04F1  2CF8               	goto	u3093
  2961  04F2  0825               	movf	___fladd@a+1,w
  2962  04F3  0221               	subwf	___fladd@b+1,w
  2963  04F4  1D03               	skipz
  2964  04F5  2CF8               	goto	u3093
  2965  04F6  0824               	movf	___fladd@a,w
  2966  04F7  0220               	subwf	___fladd@b,w
  2967  04F8                     u3093:
  2968  04F8  1803               	skipnc
  2969  04F9  2CFB               	goto	u3091
  2970  04FA  2CFC               	goto	u3090
  2971  04FB                     u3091:
  2972  04FB  2D54               	goto	l2499
  2973  04FC                     u3090:
  2974  04FC                     l2491:
  2975  04FC  30FF               	movlw	255
  2976  04FD  00A8               	movwf	??___fladd
  2977  04FE  30FF               	movlw	255
  2978  04FF  00A9               	movwf	??___fladd+1
  2979  0500  30FF               	movlw	255
  2980  0501  00AA               	movwf	??___fladd+2
  2981  0502  30FF               	movlw	255
  2982  0503  00AB               	movwf	??___fladd+3
  2983  0504  0824               	movf	___fladd@a,w
  2984  0505  00AC               	movwf	??___fladd+4
  2985  0506  0825               	movf	___fladd@a+1,w
  2986  0507  00AD               	movwf	??___fladd+5
  2987  0508  0826               	movf	___fladd@a+2,w
  2988  0509  00AE               	movwf	??___fladd+6
  2989  050A  0827               	movf	___fladd@a+3,w
  2990  050B  00AF               	movwf	??___fladd+7
  2991  050C  0820               	movf	___fladd@b,w
  2992  050D  02AC               	subwf	??___fladd+4,f
  2993  050E  0821               	movf	___fladd@b+1,w
  2994  050F  1C03               	skipc
  2995  0510  0F21               	incfsz	___fladd@b+1,w
  2996  0511  2D13               	goto	u3101
  2997  0512  2D14               	goto	u3102
  2998  0513                     u3101:
  2999  0513  02AD               	subwf	??___fladd+5,f
  3000  0514                     u3102:
  3001  0514  0822               	movf	___fladd@b+2,w
  3002  0515  1C03               	skipc
  3003  0516  0F22               	incfsz	___fladd@b+2,w
  3004  0517  2D19               	goto	u3103
  3005  0518  2D1A               	goto	u3104
  3006  0519                     u3103:
  3007  0519  02AE               	subwf	??___fladd+6,f
  3008  051A                     u3104:
  3009  051A  0823               	movf	___fladd@b+3,w
  3010  051B  1C03               	skipc
  3011  051C  0F23               	incfsz	___fladd@b+3,w
  3012  051D  2D1F               	goto	u3105
  3013  051E  2D20               	goto	u3106
  3014  051F                     u3105:
  3015  051F  02AF               	subwf	??___fladd+7,f
  3016  0520                     u3106:
  3017  0520  082C               	movf	??___fladd+4,w
  3018  0521  07A8               	addwf	??___fladd,f
  3019  0522  082D               	movf	??___fladd+5,w
  3020  0523  1803               	skipnc
  3021  0524  0F2D               	incfsz	??___fladd+5,w
  3022  0525  2D27               	goto	u3110
  3023  0526  2D28               	goto	u3111
  3024  0527                     u3110:
  3025  0527  07A9               	addwf	??___fladd+1,f
  3026  0528                     u3111:
  3027  0528  082E               	movf	??___fladd+6,w
  3028  0529  1803               	skipnc
  3029  052A  0F2E               	incfsz	??___fladd+6,w
  3030  052B  2D2D               	goto	u3112
  3031  052C  2D2E               	goto	u3113
  3032  052D                     u3112:
  3033  052D  07AA               	addwf	??___fladd+2,f
  3034  052E                     u3113:
  3035  052E  082F               	movf	??___fladd+7,w
  3036  052F  1803               	skipnc
  3037  0530  0A2F               	incf	??___fladd+7,w
  3038  0531  07AB               	addwf	??___fladd+3,f
  3039  0532  082B               	movf	??___fladd+3,w
  3040  0533  00A3               	movwf	___fladd@b+3
  3041  0534  082A               	movf	??___fladd+2,w
  3042  0535  00A2               	movwf	___fladd@b+2
  3043  0536  0829               	movf	??___fladd+1,w
  3044  0537  00A1               	movwf	___fladd@b+1
  3045  0538  0828               	movf	??___fladd,w
  3046  0539  00A0               	movwf	___fladd@b
  3047  053A                     l2493:
  3048  053A  3080               	movlw	128
  3049  053B  00A8               	movwf	??___fladd
  3050  053C  0828               	movf	??___fladd,w
  3051  053D  06F3               	xorwf	___fladd@signs,f
  3052  053E  09F6               	comf	___fladd@grs,f
  3053  053F  0AF6               	incf	___fladd@grs,f
  3054  0540                     l2495:
  3055  0540  0876               	movf	___fladd@grs,w
  3056  0541  1D03               	btfss	3,2
  3057  0542  2D44               	goto	u3121
  3058  0543  2D45               	goto	u3120
  3059  0544                     u3121:
  3060  0544  2D62               	goto	l593
  3061  0545                     u3120:
  3062  0545                     l2497:
  3063  0545  3001               	movlw	1
  3064  0546  07A0               	addwf	___fladd@b,f
  3065  0547  3000               	movlw	0
  3066  0548  1803               	skipnc
  3067  0549  3001               	movlw	1
  3068  054A  07A1               	addwf	___fladd@b+1,f
  3069  054B  3000               	movlw	0
  3070  054C  1803               	skipnc
  3071  054D  3001               	movlw	1
  3072  054E  07A2               	addwf	___fladd@b+2,f
  3073  054F  3000               	movlw	0
  3074  0550  1803               	skipnc
  3075  0551  3001               	movlw	1
  3076  0552  07A3               	addwf	___fladd@b+3,f
  3077  0553  2D62               	goto	l593
  3078  0554                     l2499:
  3079  0554  0824               	movf	___fladd@a,w
  3080  0555  02A0               	subwf	___fladd@b,f
  3081  0556  0825               	movf	___fladd@a+1,w
  3082  0557  1C03               	skipc
  3083  0558  0F25               	incfsz	___fladd@a+1,w
  3084  0559  02A1               	subwf	___fladd@b+1,f
  3085  055A  0826               	movf	___fladd@a+2,w
  3086  055B  1C03               	skipc
  3087  055C  0F26               	incfsz	___fladd@a+2,w
  3088  055D  02A2               	subwf	___fladd@b+2,f
  3089  055E  0827               	movf	___fladd@a+3,w
  3090  055F  1C03               	skipc
  3091  0560  0F27               	incfsz	___fladd@a+3,w
  3092  0561  02A3               	subwf	___fladd@b+3,f
  3093  0562                     l593:
  3094  0562  0823               	movf	___fladd@b+3,w
  3095  0563  0422               	iorwf	___fladd@b+2,w
  3096  0564  0421               	iorwf	___fladd@b+1,w
  3097  0565  0420               	iorwf	___fladd@b,w
  3098  0566  1D03               	skipz
  3099  0567  2D69               	goto	u3131
  3100  0568  2D6A               	goto	u3130
  3101  0569                     u3131:
  3102  0569  2D96               	goto	l2521
  3103  056A                     u3130:
  3104  056A                     l2501:
  3105  056A  0876               	movf	___fladd@grs,w
  3106  056B  1D03               	btfss	3,2
  3107  056C  2D6E               	goto	u3141
  3108  056D  2D6F               	goto	u3140
  3109  056E                     u3141:
  3110  056E  2D96               	goto	l2521
  3111  056F                     u3140:
  3112  056F                     l2503:
  3113  056F  3000               	movlw	0
  3114  0570  00A3               	movwf	?___fladd+3
  3115  0571  3000               	movlw	0
  3116  0572  00A2               	movwf	?___fladd+2
  3117  0573  3000               	movlw	0
  3118  0574  00A1               	movwf	?___fladd+1
  3119  0575  3000               	movlw	0
  3120  0576  00A0               	movwf	?___fladd
  3121  0577  2E14               	goto	l585
  3122  0578                     l2507:
  3123  0578  3001               	movlw	1
  3124  0579  00A8               	movwf	??___fladd
  3125  057A                     u3155:
  3126  057A  1003               	clrc
  3127  057B  0DA0               	rlf	___fladd@b,f
  3128  057C  0DA1               	rlf	___fladd@b+1,f
  3129  057D  0DA2               	rlf	___fladd@b+2,f
  3130  057E  0DA3               	rlf	___fladd@b+3,f
  3131  057F  0BA8               	decfsz	??___fladd,f
  3132  0580  2D7A               	goto	u3155
  3133  0581                     l2509:
  3134  0581  1FF6               	btfss	___fladd@grs,7
  3135  0582  2D84               	goto	u3161
  3136  0583  2D85               	goto	u3160
  3137  0584                     u3161:
  3138  0584  2D86               	goto	l597
  3139  0585                     u3160:
  3140  0585                     l2511:
  3141  0585  1420               	bsf	___fladd@b,0
  3142  0586                     l597:
  3143  0586  1C76               	btfss	___fladd@grs,0
  3144  0587  2D89               	goto	u3171
  3145  0588  2D8A               	goto	u3170
  3146  0589                     u3171:
  3147  0589  2D8D               	goto	l2515
  3148  058A                     u3170:
  3149  058A                     l2513:
  3150  058A  1403               	setc
  3151  058B  0DF6               	rlf	___fladd@grs,f
  3152  058C  2D8F               	goto	l2517
  3153  058D                     l2515:
  3154  058D  1003               	clrc
  3155  058E  0DF6               	rlf	___fladd@grs,f
  3156  058F                     l2517:
  3157  058F  0875               	movf	___fladd@bexp,w
  3158  0590  1903               	btfsc	3,2
  3159  0591  2D93               	goto	u3181
  3160  0592  2D94               	goto	u3180
  3161  0593                     u3181:
  3162  0593  2D96               	goto	l2521
  3163  0594                     u3180:
  3164  0594                     l2519:
  3165  0594  3001               	movlw	1
  3166  0595  02F5               	subwf	___fladd@bexp,f
  3167  0596                     l2521:
  3168  0596  1FA2               	btfss	___fladd@b+2,7
  3169  0597  2D99               	goto	u3191
  3170  0598  2D9A               	goto	u3190
  3171  0599                     u3191:
  3172  0599  2D78               	goto	l2507
  3173  059A                     u3190:
  3174  059A                     l2523:
  3175  059A  01F4               	clrf	___fladd@aexp
  3176  059B                     l2525:
  3177  059B  1FF6               	btfss	___fladd@grs,7
  3178  059C  2D9E               	goto	u3201
  3179  059D  2D9F               	goto	u3200
  3180  059E                     u3201:
  3181  059E  2DAD               	goto	l2533
  3182  059F                     u3200:
  3183  059F                     l2527:
  3184  059F  0876               	movf	___fladd@grs,w
  3185  05A0  397F               	andlw	127
  3186  05A1  1903               	btfsc	3,2
  3187  05A2  2DA4               	goto	u3211
  3188  05A3  2DA5               	goto	u3210
  3189  05A4                     u3211:
  3190  05A4  2DA8               	goto	l603
  3191  05A5                     u3210:
  3192  05A5                     l2529:
  3193  05A5  01F4               	clrf	___fladd@aexp
  3194  05A6  0AF4               	incf	___fladd@aexp,f
  3195  05A7  2DAD               	goto	l2533
  3196  05A8                     l603:
  3197  05A8  1C20               	btfss	___fladd@b,0
  3198  05A9  2DAB               	goto	u3221
  3199  05AA  2DAC               	goto	u3220
  3200  05AB                     u3221:
  3201  05AB  2DAD               	goto	l2533
  3202  05AC                     u3220:
  3203  05AC  2DA5               	goto	l2529
  3204  05AD                     l2533:
  3205  05AD  0874               	movf	___fladd@aexp,w
  3206  05AE  1903               	btfsc	3,2
  3207  05AF  2DB1               	goto	u3231
  3208  05B0  2DB2               	goto	u3230
  3209  05B1                     u3231:
  3210  05B1  2DE6               	goto	l606
  3211  05B2                     u3230:
  3212  05B2                     l2535:
  3213  05B2  3001               	movlw	1
  3214  05B3  07A0               	addwf	___fladd@b,f
  3215  05B4  3000               	movlw	0
  3216  05B5  1803               	skipnc
  3217  05B6  3001               	movlw	1
  3218  05B7  07A1               	addwf	___fladd@b+1,f
  3219  05B8  3000               	movlw	0
  3220  05B9  1803               	skipnc
  3221  05BA  3001               	movlw	1
  3222  05BB  07A2               	addwf	___fladd@b+2,f
  3223  05BC  3000               	movlw	0
  3224  05BD  1803               	skipnc
  3225  05BE  3001               	movlw	1
  3226  05BF  07A3               	addwf	___fladd@b+3,f
  3227  05C0                     l2537:
  3228  05C0  1C23               	btfss	___fladd@b+3,0
  3229  05C1  2DC3               	goto	u3241
  3230  05C2  2DC4               	goto	u3240
  3231  05C3                     u3241:
  3232  05C3  2DE6               	goto	l606
  3233  05C4                     u3240:
  3234  05C4                     l2539:
  3235  05C4  0820               	movf	___fladd@b,w
  3236  05C5  00A8               	movwf	??___fladd
  3237  05C6  0821               	movf	___fladd@b+1,w
  3238  05C7  00A9               	movwf	??___fladd+1
  3239  05C8  0822               	movf	___fladd@b+2,w
  3240  05C9  00AA               	movwf	??___fladd+2
  3241  05CA  0823               	movf	___fladd@b+3,w
  3242  05CB  00AB               	movwf	??___fladd+3
  3243  05CC  3001               	movlw	1
  3244  05CD  00AC               	movwf	??___fladd+4
  3245  05CE                     u3255:
  3246  05CE  0D2B               	rlf	??___fladd+3,w
  3247  05CF  0CAB               	rrf	??___fladd+3,f
  3248  05D0  0CAA               	rrf	??___fladd+2,f
  3249  05D1  0CA9               	rrf	??___fladd+1,f
  3250  05D2  0CA8               	rrf	??___fladd,f
  3251  05D3                     u3250:
  3252  05D3  0BAC               	decfsz	??___fladd+4,f
  3253  05D4  2DCE               	goto	u3255
  3254  05D5  082B               	movf	??___fladd+3,w
  3255  05D6  00A3               	movwf	___fladd@b+3
  3256  05D7  082A               	movf	??___fladd+2,w
  3257  05D8  00A2               	movwf	___fladd@b+2
  3258  05D9  0829               	movf	??___fladd+1,w
  3259  05DA  00A1               	movwf	___fladd@b+1
  3260  05DB  0828               	movf	??___fladd,w
  3261  05DC  00A0               	movwf	___fladd@b
  3262  05DD  0A75               	incf	___fladd@bexp,w
  3263  05DE  1903               	btfsc	3,2
  3264  05DF  2DE1               	goto	u3261
  3265  05E0  2DE2               	goto	u3260
  3266  05E1                     u3261:
  3267  05E1  2DE6               	goto	l606
  3268  05E2                     u3260:
  3269  05E2                     l2541:
  3270  05E2  3001               	movlw	1
  3271  05E3  00A8               	movwf	??___fladd
  3272  05E4  0828               	movf	??___fladd,w
  3273  05E5  07F5               	addwf	___fladd@bexp,f
  3274  05E6                     l606:
  3275  05E6  0A75               	incf	___fladd@bexp,w
  3276  05E7  1903               	btfsc	3,2
  3277  05E8  2DEA               	goto	u3271
  3278  05E9  2DEB               	goto	u3270
  3279  05EA                     u3271:
  3280  05EA  2DF0               	goto	l2545
  3281  05EB                     u3270:
  3282  05EB                     l2543:
  3283  05EB  0875               	movf	___fladd@bexp,w
  3284  05EC  1D03               	btfss	3,2
  3285  05ED  2DEF               	goto	u3281
  3286  05EE  2DF0               	goto	u3280
  3287  05EF                     u3281:
  3288  05EF  2DFE               	goto	l2551
  3289  05F0                     u3280:
  3290  05F0                     l2545:
  3291  05F0  3000               	movlw	0
  3292  05F1  00A3               	movwf	___fladd@b+3
  3293  05F2  3000               	movlw	0
  3294  05F3  00A2               	movwf	___fladd@b+2
  3295  05F4  3000               	movlw	0
  3296  05F5  00A1               	movwf	___fladd@b+1
  3297  05F6  3000               	movlw	0
  3298  05F7  00A0               	movwf	___fladd@b
  3299  05F8                     l2547:
  3300  05F8  0875               	movf	___fladd@bexp,w
  3301  05F9  1D03               	btfss	3,2
  3302  05FA  2DFC               	goto	u3291
  3303  05FB  2DFD               	goto	u3290
  3304  05FC                     u3291:
  3305  05FC  2DFE               	goto	l2551
  3306  05FD                     u3290:
  3307  05FD                     l2549:
  3308  05FD  01F3               	clrf	___fladd@signs
  3309  05FE                     l2551:
  3310  05FE  1C75               	btfss	___fladd@bexp,0
  3311  05FF  2E01               	goto	u3301
  3312  0600  2E02               	goto	u3300
  3313  0601                     u3301:
  3314  0601  2E04               	goto	l2555
  3315  0602                     u3300:
  3316  0602                     l2553:
  3317  0602  17A2               	bsf	___fladd@b+2,7
  3318  0603  2E08               	goto	l614
  3319  0604                     l2555:
  3320  0604  307F               	movlw	127
  3321  0605  00A8               	movwf	??___fladd
  3322  0606  0828               	movf	??___fladd,w
  3323  0607  05A2               	andwf	___fladd@b+2,f
  3324  0608                     l614:
  3325  0608  0875               	movf	___fladd@bexp,w
  3326  0609  00A8               	movwf	??___fladd
  3327  060A  1003               	clrc
  3328  060B  0C28               	rrf	??___fladd,w
  3329  060C  00A9               	movwf	??___fladd+1
  3330  060D  0829               	movf	??___fladd+1,w
  3331  060E  00A3               	movwf	___fladd@b+3
  3332  060F                     l2557:
  3333  060F  1FF3               	btfss	___fladd@signs,7
  3334  0610  2E12               	goto	u3311
  3335  0611  2E13               	goto	u3310
  3336  0612                     u3311:
  3337  0612  2E14               	goto	l615
  3338  0613                     u3310:
  3339  0613                     l2559:
  3340  0613  17A3               	bsf	___fladd@b+3,7
  3341  0614                     l615:
  3342  0614                     l585:
  3343  0614  0008               	return
  3344  0615                     __end_of___fladd:
  3345                           
  3346                           	psect	text12
  3347  0E08                     __ptext12:	
  3348 ;; *************** function _initLCD *****************
  3349 ;; Defined at:
  3350 ;;		line 20 in file "LCDD2.c"
  3351 ;; Parameters:    Size  Location     Type
  3352 ;;		None
  3353 ;; Auto vars:     Size  Location     Type
  3354 ;;		None
  3355 ;; Return value:  Size  Location     Type
  3356 ;;                  1    wreg      void 
  3357 ;; Registers used:
  3358 ;;		wreg, status,2, status,0, pclath, cstack
  3359 ;; Tracked objects:
  3360 ;;		On entry : 0/0
  3361 ;;		On exit  : 0/0
  3362 ;;		Unchanged: 0/0
  3363 ;; Data sizes:     COMMON   BANK0   BANK1   BANK3   BANK2
  3364 ;;      Params:         0       0       0       0       0
  3365 ;;      Locals:         0       0       0       0       0
  3366 ;;      Temps:          2       0       0       0       0
  3367 ;;      Totals:         2       0       0       0       0
  3368 ;;Total ram usage:        2 bytes
  3369 ;; Hardware stack levels used:    1
  3370 ;; Hardware stack levels required when called:    2
  3371 ;; This function calls:
  3372 ;;		_comandoLCD
  3373 ;; This function is called by:
  3374 ;;		_main
  3375 ;; This function uses a non-reentrant model
  3376 ;;
  3377                           
  3378                           
  3379                           ;psect for function _initLCD
  3380  0E08                     _initLCD:
  3381  0E08                     l2171:	
  3382                           ;incstack = 0
  3383                           ; Regs used in _initLCD: [wreg+status,2+status,0+pclath+cstack]
  3384                           
  3385                           
  3386                           ;LCDD2.c: 21:     RC0 = 0;
  3387  0E08  1283               	bcf	3,5	;RP0=0, select bank0
  3388  0E09  1303               	bcf	3,6	;RP1=0, select bank0
  3389  0E0A  1007               	bcf	7,0	;volatile
  3390  0E0B                     l2173:
  3391                           
  3392                           ;LCDD2.c: 22:     PORTD = 0X00;
  3393  0E0B  0188               	clrf	8	;volatile
  3394  0E0C                     l2175:
  3395                           
  3396                           ;LCDD2.c: 23:     _delay((unsigned long)((20)*(8000000/4000.0)));
  3397  0E0C  3034               	movlw	52
  3398  0E0D  00F7               	movwf	??_initLCD+1
  3399  0E0E  30F1               	movlw	241
  3400  0E0F  00F6               	movwf	??_initLCD
  3401  0E10                     u4007:
  3402  0E10  0BF6               	decfsz	??_initLCD,f
  3403  0E11  2E10               	goto	u4007
  3404  0E12  0BF7               	decfsz	??_initLCD+1,f
  3405  0E13  2E10               	goto	u4007
  3406  0E14  2E15               	nop2
  3407  0E15                     l2177:
  3408                           
  3409                           ;LCDD2.c: 25:     comandoLCD(0X30);
  3410  0E15  3030               	movlw	48
  3411  0E16  120A  158A  243E  120A  158A  	fcall	_comandoLCD
  3412  0E1B                     l2179:
  3413                           
  3414                           ;LCDD2.c: 26:     _delay((unsigned long)((5)*(8000000/4000.0)));
  3415  0E1B  300D               	movlw	13
  3416  0E1C  00F7               	movwf	??_initLCD+1
  3417  0E1D  30FB               	movlw	251
  3418  0E1E  00F6               	movwf	??_initLCD
  3419  0E1F                     u4017:
  3420  0E1F  0BF6               	decfsz	??_initLCD,f
  3421  0E20  2E1F               	goto	u4017
  3422  0E21  0BF7               	decfsz	??_initLCD+1,f
  3423  0E22  2E1F               	goto	u4017
  3424  0E23  2E24               	nop2
  3425  0E24                     l2181:
  3426                           
  3427                           ;LCDD2.c: 28:     comandoLCD(0X30);
  3428  0E24  3030               	movlw	48
  3429  0E25  120A  158A  243E  120A  158A  	fcall	_comandoLCD
  3430  0E2A                     l2183:
  3431                           
  3432                           ;LCDD2.c: 29:     _delay((unsigned long)((11)*(8000000/4000.0)));
  3433  0E2A  301D               	movlw	29
  3434  0E2B  00F7               	movwf	??_initLCD+1
  3435  0E2C  3091               	movlw	145
  3436  0E2D  00F6               	movwf	??_initLCD
  3437  0E2E                     u4027:
  3438  0E2E  0BF6               	decfsz	??_initLCD,f
  3439  0E2F  2E2E               	goto	u4027
  3440  0E30  0BF7               	decfsz	??_initLCD+1,f
  3441  0E31  2E2E               	goto	u4027
  3442  0E32                     l2185:
  3443                           
  3444                           ;LCDD2.c: 31:     comandoLCD(0X30);
  3445  0E32  3030               	movlw	48
  3446  0E33  120A  158A  243E  120A  158A  	fcall	_comandoLCD
  3447  0E38                     l2187:
  3448                           
  3449                           ;LCDD2.c: 33:     comandoLCD(0X38);
  3450  0E38  3038               	movlw	56
  3451  0E39  120A  158A  243E  120A  158A  	fcall	_comandoLCD
  3452  0E3E                     l2189:
  3453                           
  3454                           ;LCDD2.c: 35:     comandoLCD(0X08);
  3455  0E3E  3008               	movlw	8
  3456  0E3F  120A  158A  243E  120A  158A  	fcall	_comandoLCD
  3457  0E44                     l2191:
  3458                           
  3459                           ;LCDD2.c: 37:     comandoLCD(0X01);
  3460  0E44  3001               	movlw	1
  3461  0E45  120A  158A  243E  120A  158A  	fcall	_comandoLCD
  3462  0E4A                     l2193:
  3463                           
  3464                           ;LCDD2.c: 39:     comandoLCD(0X06);
  3465  0E4A  3006               	movlw	6
  3466  0E4B  120A  158A  243E  120A  158A  	fcall	_comandoLCD
  3467  0E50                     l184:
  3468  0E50  0008               	return
  3469  0E51                     __end_of_initLCD:
  3470                           
  3471                           	psect	text13
  3472  0C3E                     __ptext13:	
  3473 ;; *************** function _comandoLCD *****************
  3474 ;; Defined at:
  3475 ;;		line 65 in file "LCDD2.c"
  3476 ;; Parameters:    Size  Location     Type
  3477 ;;  cmd             1    wreg     unsigned char 
  3478 ;; Auto vars:     Size  Location     Type
  3479 ;;  cmd             1    5[COMMON] unsigned char 
  3480 ;; Return value:  Size  Location     Type
  3481 ;;                  1    wreg      void 
  3482 ;; Registers used:
  3483 ;;		wreg
  3484 ;; Tracked objects:
  3485 ;;		On entry : 0/0
  3486 ;;		On exit  : 0/0
  3487 ;;		Unchanged: 0/0
  3488 ;; Data sizes:     COMMON   BANK0   BANK1   BANK3   BANK2
  3489 ;;      Params:         0       0       0       0       0
  3490 ;;      Locals:         1       0       0       0       0
  3491 ;;      Temps:          2       0       0       0       0
  3492 ;;      Totals:         3       0       0       0       0
  3493 ;;Total ram usage:        3 bytes
  3494 ;; Hardware stack levels used:    1
  3495 ;; Hardware stack levels required when called:    1
  3496 ;; This function calls:
  3497 ;;		Nothing
  3498 ;; This function is called by:
  3499 ;;		_initLCD
  3500 ;; This function uses a non-reentrant model
  3501 ;;
  3502                           
  3503                           
  3504                           ;psect for function _comandoLCD
  3505  0C3E                     _comandoLCD:
  3506                           
  3507                           ;incstack = 0
  3508                           ; Regs used in _comandoLCD: [wreg]
  3509                           ;comandoLCD@cmd stored from wreg
  3510  0C3E  00F5               	movwf	comandoLCD@cmd
  3511  0C3F                     l1899:
  3512                           
  3513                           ;LCDD2.c: 66:     RC0 = 0;
  3514  0C3F  1283               	bcf	3,5	;RP0=0, select bank0
  3515  0C40  1303               	bcf	3,6	;RP1=0, select bank0
  3516  0C41  1007               	bcf	7,0	;volatile
  3517  0C42                     l1901:
  3518                           
  3519                           ;LCDD2.c: 67:     PORTD = cmd;
  3520  0C42  0875               	movf	comandoLCD@cmd,w
  3521  0C43  0088               	movwf	8	;volatile
  3522  0C44                     l1903:
  3523                           
  3524                           ;LCDD2.c: 68:     RC1 = 1;
  3525  0C44  1487               	bsf	7,1	;volatile
  3526                           
  3527                           ;LCDD2.c: 69:     _delay((unsigned long)((4)*(8000000/4000.0)));
  3528  0C45  300B               	movlw	11
  3529  0C46  00F4               	movwf	??_comandoLCD+1
  3530  0C47  3062               	movlw	98
  3531  0C48  00F3               	movwf	??_comandoLCD
  3532  0C49                     u4037:
  3533  0C49  0BF3               	decfsz	??_comandoLCD,f
  3534  0C4A  2C49               	goto	u4037
  3535  0C4B  0BF4               	decfsz	??_comandoLCD+1,f
  3536  0C4C  2C49               	goto	u4037
  3537  0C4D  0000               	nop
  3538  0C4E                     l1905:
  3539                           
  3540                           ;LCDD2.c: 70:     RC1 = 0;
  3541  0C4E  1283               	bcf	3,5	;RP0=0, select bank0
  3542  0C4F  1303               	bcf	3,6	;RP1=0, select bank0
  3543  0C50  1087               	bcf	7,1	;volatile
  3544  0C51                     l193:
  3545  0C51  0008               	return
  3546  0C52                     __end_of_comandoLCD:
  3547                           
  3548                           	psect	text14
  3549  0C2A                     __ptext14:	
  3550 ;; *************** function _dispCHAR *****************
  3551 ;; Defined at:
  3552 ;;		line 47 in file "LCDD2.c"
  3553 ;; Parameters:    Size  Location     Type
  3554 ;;  b               1    wreg     unsigned char 
  3555 ;; Auto vars:     Size  Location     Type
  3556 ;;  b               1    5[COMMON] unsigned char 
  3557 ;; Return value:  Size  Location     Type
  3558 ;;                  1    wreg      void 
  3559 ;; Registers used:
  3560 ;;		wreg
  3561 ;; Tracked objects:
  3562 ;;		On entry : 0/0
  3563 ;;		On exit  : 0/0
  3564 ;;		Unchanged: 0/0
  3565 ;; Data sizes:     COMMON   BANK0   BANK1   BANK3   BANK2
  3566 ;;      Params:         0       0       0       0       0
  3567 ;;      Locals:         1       0       0       0       0
  3568 ;;      Temps:          2       0       0       0       0
  3569 ;;      Totals:         3       0       0       0       0
  3570 ;;Total ram usage:        3 bytes
  3571 ;; Hardware stack levels used:    1
  3572 ;; Hardware stack levels required when called:    1
  3573 ;; This function calls:
  3574 ;;		Nothing
  3575 ;; This function is called by:
  3576 ;;		_main
  3577 ;; This function uses a non-reentrant model
  3578 ;;
  3579                           
  3580                           
  3581                           ;psect for function _dispCHAR
  3582  0C2A                     _dispCHAR:
  3583                           
  3584                           ;incstack = 0
  3585                           ; Regs used in _dispCHAR: [wreg]
  3586                           ;dispCHAR@b stored from wreg
  3587  0C2A  00F5               	movwf	dispCHAR@b
  3588  0C2B                     l2227:
  3589                           
  3590                           ;LCDD2.c: 49:     RC0 = 1;
  3591  0C2B  1283               	bcf	3,5	;RP0=0, select bank0
  3592  0C2C  1303               	bcf	3,6	;RP1=0, select bank0
  3593  0C2D  1407               	bsf	7,0	;volatile
  3594  0C2E                     l2229:
  3595                           
  3596                           ;LCDD2.c: 50:     PORTD = b;
  3597  0C2E  0875               	movf	dispCHAR@b,w
  3598  0C2F  0088               	movwf	8	;volatile
  3599  0C30                     l2231:
  3600                           
  3601                           ;LCDD2.c: 51:     RC1 = 1;
  3602  0C30  1487               	bsf	7,1	;volatile
  3603                           
  3604                           ;LCDD2.c: 52:     _delay((unsigned long)((4)*(8000000/4000.0)));
  3605  0C31  300B               	movlw	11
  3606  0C32  00F4               	movwf	??_dispCHAR+1
  3607  0C33  3062               	movlw	98
  3608  0C34  00F3               	movwf	??_dispCHAR
  3609  0C35                     u4047:
  3610  0C35  0BF3               	decfsz	??_dispCHAR,f
  3611  0C36  2C35               	goto	u4047
  3612  0C37  0BF4               	decfsz	??_dispCHAR+1,f
  3613  0C38  2C35               	goto	u4047
  3614  0C39  0000               	nop
  3615  0C3A                     l2233:
  3616                           
  3617                           ;LCDD2.c: 53:     RC1 = 0;
  3618  0C3A  1283               	bcf	3,5	;RP0=0, select bank0
  3619  0C3B  1303               	bcf	3,6	;RP1=0, select bank0
  3620  0C3C  1087               	bcf	7,1	;volatile
  3621  0C3D                     l187:
  3622  0C3D  0008               	return
  3623  0C3E                     __end_of_dispCHAR:
  3624                           
  3625                           	psect	text15
  3626  0C16                     __ptext15:	
  3627 ;; *************** function _cursorLCD *****************
  3628 ;; Defined at:
  3629 ;;		line 57 in file "LCDD2.c"
  3630 ;; Parameters:    Size  Location     Type
  3631 ;;  pos             1    wreg     unsigned char 
  3632 ;; Auto vars:     Size  Location     Type
  3633 ;;  pos             1    5[COMMON] unsigned char 
  3634 ;; Return value:  Size  Location     Type
  3635 ;;                  1    wreg      void 
  3636 ;; Registers used:
  3637 ;;		wreg
  3638 ;; Tracked objects:
  3639 ;;		On entry : 0/0
  3640 ;;		On exit  : 0/0
  3641 ;;		Unchanged: 0/0
  3642 ;; Data sizes:     COMMON   BANK0   BANK1   BANK3   BANK2
  3643 ;;      Params:         0       0       0       0       0
  3644 ;;      Locals:         1       0       0       0       0
  3645 ;;      Temps:          2       0       0       0       0
  3646 ;;      Totals:         3       0       0       0       0
  3647 ;;Total ram usage:        3 bytes
  3648 ;; Hardware stack levels used:    1
  3649 ;; Hardware stack levels required when called:    1
  3650 ;; This function calls:
  3651 ;;		Nothing
  3652 ;; This function is called by:
  3653 ;;		_main
  3654 ;; This function uses a non-reentrant model
  3655 ;;
  3656                           
  3657                           
  3658                           ;psect for function _cursorLCD
  3659  0C16                     _cursorLCD:
  3660                           
  3661                           ;incstack = 0
  3662                           ; Regs used in _cursorLCD: [wreg]
  3663                           ;cursorLCD@pos stored from wreg
  3664  0C16  00F5               	movwf	cursorLCD@pos
  3665  0C17                     l2219:
  3666                           
  3667                           ;LCDD2.c: 58:     RC0 = 0;
  3668  0C17  1283               	bcf	3,5	;RP0=0, select bank0
  3669  0C18  1303               	bcf	3,6	;RP1=0, select bank0
  3670  0C19  1007               	bcf	7,0	;volatile
  3671  0C1A                     l2221:
  3672                           
  3673                           ;LCDD2.c: 59:     PORTD = pos;
  3674  0C1A  0875               	movf	cursorLCD@pos,w
  3675  0C1B  0088               	movwf	8	;volatile
  3676  0C1C                     l2223:
  3677                           
  3678                           ;LCDD2.c: 60:     RC1 = 1;
  3679  0C1C  1487               	bsf	7,1	;volatile
  3680                           
  3681                           ;LCDD2.c: 61:     _delay((unsigned long)((4)*(8000000/4000.0)));
  3682  0C1D  300B               	movlw	11
  3683  0C1E  00F4               	movwf	??_cursorLCD+1
  3684  0C1F  3062               	movlw	98
  3685  0C20  00F3               	movwf	??_cursorLCD
  3686  0C21                     u4057:
  3687  0C21  0BF3               	decfsz	??_cursorLCD,f
  3688  0C22  2C21               	goto	u4057
  3689  0C23  0BF4               	decfsz	??_cursorLCD+1,f
  3690  0C24  2C21               	goto	u4057
  3691  0C25  0000               	nop
  3692  0C26                     l2225:
  3693                           
  3694                           ;LCDD2.c: 62:     RC1 = 0;
  3695  0C26  1283               	bcf	3,5	;RP0=0, select bank0
  3696  0C27  1303               	bcf	3,6	;RP1=0, select bank0
  3697  0C28  1087               	bcf	7,1	;volatile
  3698  0C29                     l190:
  3699  0C29  0008               	return
  3700  0C2A                     __end_of_cursorLCD:
  3701                           
  3702                           	psect	text16
  3703  0D04                     __ptext16:	
  3704 ;; *************** function _configuracion *****************
  3705 ;; Defined at:
  3706 ;;		line 97 in file "main.c"
  3707 ;; Parameters:    Size  Location     Type
  3708 ;;		None
  3709 ;; Auto vars:     Size  Location     Type
  3710 ;;		None
  3711 ;; Return value:  Size  Location     Type
  3712 ;;                  1    wreg      void 
  3713 ;; Registers used:
  3714 ;;		wreg, fsr0l, fsr0h, status,2, status,0, pclath, cstack
  3715 ;; Tracked objects:
  3716 ;;		On entry : 0/0
  3717 ;;		On exit  : 0/0
  3718 ;;		Unchanged: 0/0
  3719 ;; Data sizes:     COMMON   BANK0   BANK1   BANK3   BANK2
  3720 ;;      Params:         0       0       0       0       0
  3721 ;;      Locals:         0       0       0       0       0
  3722 ;;      Temps:          0       0       0       0       0
  3723 ;;      Totals:         0       0       0       0       0
  3724 ;;Total ram usage:        0 bytes
  3725 ;; Hardware stack levels used:    1
  3726 ;; Hardware stack levels required when called:    2
  3727 ;; This function calls:
  3728 ;;		_ADCconfig
  3729 ;;		_configUART
  3730 ;; This function is called by:
  3731 ;;		_main
  3732 ;; This function uses a non-reentrant model
  3733 ;;
  3734                           
  3735                           
  3736                           ;psect for function _configuracion
  3737  0D04                     _configuracion:
  3738  0D04                     l2133:	
  3739                           ;incstack = 0
  3740                           ; Regs used in _configuracion: [wreg-fsr0h+status,2+status,0+pclath+cstack]
  3741                           
  3742                           
  3743                           ;main.c: 99:     ANSEL = 0X03;
  3744  0D04  3003               	movlw	3
  3745  0D05  1683               	bsf	3,5	;RP0=1, select bank3
  3746  0D06  1703               	bsf	3,6	;RP1=1, select bank3
  3747  0D07  0088               	movwf	8	;volatile
  3748  0D08                     l2135:
  3749                           
  3750                           ;main.c: 100:     ANSELH = 0X00;
  3751  0D08  0189               	clrf	9	;volatile
  3752  0D09                     l2137:
  3753                           
  3754                           ;main.c: 101:     TRISA = 0X03;
  3755  0D09  3003               	movlw	3
  3756  0D0A  1683               	bsf	3,5	;RP0=1, select bank1
  3757  0D0B  1303               	bcf	3,6	;RP1=0, select bank1
  3758  0D0C  0085               	movwf	5	;volatile
  3759                           
  3760                           ;main.c: 102:     TRISB = 0X00;
  3761  0D0D  0186               	clrf	6	;volatile
  3762                           
  3763                           ;main.c: 103:     TRISC = 0X00;
  3764  0D0E  0187               	clrf	7	;volatile
  3765                           
  3766                           ;main.c: 104:     TRISD = 0X00;
  3767  0D0F  0188               	clrf	8	;volatile
  3768                           
  3769                           ;main.c: 105:     TRISE = 0X00;
  3770  0D10  0189               	clrf	9	;volatile
  3771                           
  3772                           ;main.c: 106:     PORTA = 0X00;
  3773  0D11  1283               	bcf	3,5	;RP0=0, select bank0
  3774  0D12  1303               	bcf	3,6	;RP1=0, select bank0
  3775  0D13  0185               	clrf	5	;volatile
  3776                           
  3777                           ;main.c: 107:     PORTB = 0X00;
  3778  0D14  0186               	clrf	6	;volatile
  3779                           
  3780                           ;main.c: 108:     PORTC = 0X00;
  3781  0D15  0187               	clrf	7	;volatile
  3782                           
  3783                           ;main.c: 109:     PORTD = 0X00;
  3784  0D16  0188               	clrf	8	;volatile
  3785                           
  3786                           ;main.c: 110:     PORTE = 0X00;
  3787  0D17  0189               	clrf	9	;volatile
  3788  0D18                     l2139:
  3789                           
  3790                           ;main.c: 113:     configUART();
  3791  0D18  120A  158A  2404  120A  158A  	fcall	_configUART
  3792  0D1D                     l2141:
  3793                           
  3794                           ;main.c: 116:     OSCCONbits.IRCF = 0b111;
  3795  0D1D  3070               	movlw	112
  3796  0D1E  1683               	bsf	3,5	;RP0=1, select bank1
  3797  0D1F  1303               	bcf	3,6	;RP1=0, select bank1
  3798  0D20  048F               	iorwf	15,f	;volatile
  3799  0D21                     l2143:
  3800                           
  3801                           ;main.c: 117:     OSCCONbits.SCS = 0b1;
  3802  0D21  140F               	bsf	15,0	;volatile
  3803  0D22                     l2145:
  3804                           
  3805                           ;main.c: 120:     INTCONbits.GIE = 1;
  3806  0D22  178B               	bsf	11,7	;volatile
  3807  0D23                     l2147:
  3808                           
  3809                           ;main.c: 121:     INTCONbits.PEIE = 1;
  3810  0D23  170B               	bsf	11,6	;volatile
  3811  0D24                     l2149:
  3812                           
  3813                           ;main.c: 122:     INTCONbits.T0IF = 0;
  3814  0D24  110B               	bcf	11,2	;volatile
  3815  0D25                     l2151:
  3816                           
  3817                           ;main.c: 123:     INTCONbits.T0IE = 1;
  3818  0D25  168B               	bsf	11,5	;volatile
  3819  0D26                     l2153:
  3820                           
  3821                           ;main.c: 124:     PIE1bits.RCIE = 1;
  3822  0D26  168C               	bsf	12,5	;volatile
  3823  0D27                     l2155:
  3824                           
  3825                           ;main.c: 127:     OPTION_REGbits.T0CS = 0;
  3826  0D27  1281               	bcf	1,5	;volatile
  3827  0D28                     l2157:
  3828                           
  3829                           ;main.c: 128:     OPTION_REGbits.PSA = 0;
  3830  0D28  1181               	bcf	1,3	;volatile
  3831  0D29                     l2159:
  3832                           
  3833                           ;main.c: 129:     OPTION_REGbits.PS2 = 1;
  3834  0D29  1501               	bsf	1,2	;volatile
  3835  0D2A                     l2161:
  3836                           
  3837                           ;main.c: 130:     OPTION_REGbits.PS1 = 1;
  3838  0D2A  1481               	bsf	1,1	;volatile
  3839  0D2B                     l2163:
  3840                           
  3841                           ;main.c: 131:     OPTION_REGbits.PS0 = 0;
  3842  0D2B  1001               	bcf	1,0	;volatile
  3843  0D2C                     l2165:
  3844                           
  3845                           ;main.c: 136:     ADCconfig(0,0);
  3846  0D2C  01F3               	clrf	ADCconfig@just
  3847  0D2D  3000               	movlw	0
  3848  0D2E  120A  158A  257B  120A  158A  	fcall	_ADCconfig
  3849  0D33                     l2167:
  3850                           
  3851                           ;main.c: 138:     PIR1bits.ADIF = 0;
  3852  0D33  1283               	bcf	3,5	;RP0=0, select bank0
  3853  0D34  1303               	bcf	3,6	;RP1=0, select bank0
  3854  0D35  130C               	bcf	12,6	;volatile
  3855  0D36                     l2169:
  3856                           
  3857                           ;main.c: 139:     PIE1bits.ADIE = 1;
  3858  0D36  1683               	bsf	3,5	;RP0=1, select bank1
  3859  0D37  1303               	bcf	3,6	;RP1=0, select bank1
  3860  0D38  170C               	bsf	12,6	;volatile
  3861  0D39                     l100:
  3862  0D39  0008               	return
  3863  0D3A                     __end_of_configuracion:
  3864                           
  3865                           	psect	text17
  3866  0C04                     __ptext17:	
  3867 ;; *************** function _configUART *****************
  3868 ;; Defined at:
  3869 ;;		line 11 in file "ComSerial.c"
  3870 ;; Parameters:    Size  Location     Type
  3871 ;;		None
  3872 ;; Auto vars:     Size  Location     Type
  3873 ;;		None
  3874 ;; Return value:  Size  Location     Type
  3875 ;;                  1    wreg      void 
  3876 ;; Registers used:
  3877 ;;		wreg
  3878 ;; Tracked objects:
  3879 ;;		On entry : 0/0
  3880 ;;		On exit  : 0/0
  3881 ;;		Unchanged: 0/0
  3882 ;; Data sizes:     COMMON   BANK0   BANK1   BANK3   BANK2
  3883 ;;      Params:         0       0       0       0       0
  3884 ;;      Locals:         0       0       0       0       0
  3885 ;;      Temps:          0       0       0       0       0
  3886 ;;      Totals:         0       0       0       0       0
  3887 ;;Total ram usage:        0 bytes
  3888 ;; Hardware stack levels used:    1
  3889 ;; Hardware stack levels required when called:    1
  3890 ;; This function calls:
  3891 ;;		Nothing
  3892 ;; This function is called by:
  3893 ;;		_configuracion
  3894 ;; This function uses a non-reentrant model
  3895 ;;
  3896                           
  3897                           
  3898                           ;psect for function _configUART
  3899  0C04                     _configUART:
  3900  0C04                     l1825:	
  3901                           ;incstack = 0
  3902                           ; Regs used in _configUART: [wreg]
  3903                           
  3904                           
  3905                           ;ComSerial.c: 13:     TRISCbits.TRISC6 = 0;
  3906  0C04  1683               	bsf	3,5	;RP0=1, select bank1
  3907  0C05  1303               	bcf	3,6	;RP1=0, select bank1
  3908  0C06  1307               	bcf	7,6	;volatile
  3909                           
  3910                           ;ComSerial.c: 14:     TRISCbits.TRISC7 = 1;
  3911  0C07  1787               	bsf	7,7	;volatile
  3912  0C08                     l1827:
  3913                           
  3914                           ;ComSerial.c: 15:     SPBRG = 12;
  3915  0C08  300C               	movlw	12
  3916  0C09  0099               	movwf	25	;volatile
  3917  0C0A                     l1829:
  3918                           
  3919                           ;ComSerial.c: 16:     TXSTAbits.BRGH = 0;
  3920  0C0A  1118               	bcf	24,2	;volatile
  3921  0C0B                     l1831:
  3922                           
  3923                           ;ComSerial.c: 17:     TXSTAbits.TXEN = 1;
  3924  0C0B  1698               	bsf	24,5	;volatile
  3925  0C0C                     l1833:
  3926                           
  3927                           ;ComSerial.c: 18:     RCSTAbits.CREN = 1;
  3928  0C0C  1283               	bcf	3,5	;RP0=0, select bank0
  3929  0C0D  1303               	bcf	3,6	;RP1=0, select bank0
  3930  0C0E  1618               	bsf	24,4	;volatile
  3931  0C0F                     l1835:
  3932                           
  3933                           ;ComSerial.c: 19:     TXSTAbits.SYNC = 0;
  3934  0C0F  1683               	bsf	3,5	;RP0=1, select bank1
  3935  0C10  1303               	bcf	3,6	;RP1=0, select bank1
  3936  0C11  1218               	bcf	24,4	;volatile
  3937  0C12                     l1837:
  3938                           
  3939                           ;ComSerial.c: 20:     RCSTAbits.SPEN = 1;
  3940  0C12  1283               	bcf	3,5	;RP0=0, select bank0
  3941  0C13  1303               	bcf	3,6	;RP1=0, select bank0
  3942  0C14  1798               	bsf	24,7	;volatile
  3943  0C15                     l138:
  3944  0C15  0008               	return
  3945  0C16                     __end_of_configUART:
  3946                           
  3947                           	psect	text18
  3948  0D7B                     __ptext18:	
  3949 ;; *************** function _ADCconfig *****************
  3950 ;; Defined at:
  3951 ;;		line 10 in file "ADC.c"
  3952 ;; Parameters:    Size  Location     Type
  3953 ;;  canal           1    wreg     unsigned char 
  3954 ;;  just            1    3[COMMON] unsigned char 
  3955 ;; Auto vars:     Size  Location     Type
  3956 ;;  canal           1    6[COMMON] unsigned char 
  3957 ;; Return value:  Size  Location     Type
  3958 ;;                  1    wreg      void 
  3959 ;; Registers used:
  3960 ;;		wreg, fsr0l, fsr0h, status,2, status,0
  3961 ;; Tracked objects:
  3962 ;;		On entry : 0/0
  3963 ;;		On exit  : 0/0
  3964 ;;		Unchanged: 0/0
  3965 ;; Data sizes:     COMMON   BANK0   BANK1   BANK3   BANK2
  3966 ;;      Params:         1       0       0       0       0
  3967 ;;      Locals:         1       0       0       0       0
  3968 ;;      Temps:          2       0       0       0       0
  3969 ;;      Totals:         4       0       0       0       0
  3970 ;;Total ram usage:        4 bytes
  3971 ;; Hardware stack levels used:    1
  3972 ;; Hardware stack levels required when called:    1
  3973 ;; This function calls:
  3974 ;;		Nothing
  3975 ;; This function is called by:
  3976 ;;		_configuracion
  3977 ;; This function uses a non-reentrant model
  3978 ;;
  3979                           
  3980                           
  3981                           ;psect for function _ADCconfig
  3982  0D7B                     _ADCconfig:
  3983                           
  3984                           ;incstack = 0
  3985                           ; Regs used in _ADCconfig: [wreg-fsr0h+status,2+status,0]
  3986                           ;ADCconfig@canal stored from wreg
  3987  0D7B  00F6               	movwf	ADCconfig@canal
  3988  0D7C                     l1839:
  3989                           
  3990                           ;ADC.c: 15:     switch(OSCCONbits.IRCF){
  3991  0D7C  2D95               	goto	l1851
  3992  0D7D                     l1841:
  3993                           
  3994                           ;ADC.c: 17:             ADCON0bits.ADCS = 0b000;
  3995  0D7D  303F               	movlw	-193
  3996  0D7E  1283               	bcf	3,5	;RP0=0, select bank0
  3997  0D7F  1303               	bcf	3,6	;RP1=0, select bank0
  3998  0D80  059F               	andwf	31,f	;volatile
  3999                           
  4000                           ;ADC.c: 18:             break;
  4001  0D81  2DAB               	goto	l1853
  4002  0D82                     l1843:
  4003                           
  4004                           ;ADC.c: 20:             ADCON0bits.ADCS = 0b001;
  4005  0D82  1283               	bcf	3,5	;RP0=0, select bank0
  4006  0D83  1303               	bcf	3,6	;RP1=0, select bank0
  4007  0D84  081F               	movf	31,w	;volatile
  4008  0D85  393F               	andlw	-193
  4009  0D86  3840               	iorlw	64
  4010  0D87  009F               	movwf	31	;volatile
  4011                           
  4012                           ;ADC.c: 21:             break;
  4013  0D88  2DAB               	goto	l1853
  4014  0D89                     l1845:
  4015                           
  4016                           ;ADC.c: 23:             ADCON0bits.ADCS = 0b010;
  4017  0D89  1283               	bcf	3,5	;RP0=0, select bank0
  4018  0D8A  1303               	bcf	3,6	;RP1=0, select bank0
  4019  0D8B  081F               	movf	31,w	;volatile
  4020  0D8C  393F               	andlw	-193
  4021  0D8D  3880               	iorlw	128
  4022  0D8E  009F               	movwf	31	;volatile
  4023                           
  4024                           ;ADC.c: 24:             break;
  4025  0D8F  2DAB               	goto	l1853
  4026  0D90                     l1847:
  4027                           
  4028                           ;ADC.c: 26:             ADCON0bits.ADCS = 0b11;
  4029  0D90  30C0               	movlw	192
  4030  0D91  1283               	bcf	3,5	;RP0=0, select bank0
  4031  0D92  1303               	bcf	3,6	;RP1=0, select bank0
  4032  0D93  049F               	iorwf	31,f	;volatile
  4033                           
  4034                           ;ADC.c: 27:             break;
  4035  0D94  2DAB               	goto	l1853
  4036  0D95                     l1851:
  4037  0D95  1683               	bsf	3,5	;RP0=1, select bank1
  4038  0D96  1303               	bcf	3,6	;RP1=0, select bank1
  4039  0D97  0E0F               	swapf	15,w	;volatile
  4040  0D98  3907               	andlw	7
  4041  0D99  00F4               	movwf	??_ADCconfig
  4042  0D9A  01F5               	clrf	??_ADCconfig+1
  4043                           
  4044                           ; Switch on 2 bytes has been partitioned into a top level switch of size 1, and 1 sub-sw
      +                          itches
  4045                           ; Switch size 1, requested type "simple"
  4046                           ; Number of cases is 1, Range of values is 0 to 0
  4047                           ; switch strategies available:
  4048                           ; Name         Instructions Cycles
  4049                           ; simple_byte            4     3 (average)
  4050                           ; direct_byte           11     8 (fixed)
  4051                           ; jumptable            260     6 (fixed)
  4052                           ;	Chosen strategy is simple_byte
  4053  0D9B  0875               	movf	??_ADCconfig+1,w
  4054  0D9C  3A00               	xorlw	0	; case 0
  4055  0D9D  1903               	skipnz
  4056  0D9E  2DA0               	goto	l2899
  4057  0D9F  2D90               	goto	l1847
  4058  0DA0                     l2899:
  4059                           
  4060                           ; Switch size 1, requested type "simple"
  4061                           ; Number of cases is 3, Range of values is 4 to 7
  4062                           ; switch strategies available:
  4063                           ; Name         Instructions Cycles
  4064                           ; simple_byte           10     6 (average)
  4065                           ; direct_byte           23    11 (fixed)
  4066                           ; jumptable            263     9 (fixed)
  4067                           ;	Chosen strategy is simple_byte
  4068  0DA0  0874               	movf	??_ADCconfig,w
  4069  0DA1  3A04               	xorlw	4	; case 4
  4070  0DA2  1903               	skipnz
  4071  0DA3  2D7D               	goto	l1841
  4072  0DA4  3A02               	xorlw	2	; case 6
  4073  0DA5  1903               	skipnz
  4074  0DA6  2D82               	goto	l1843
  4075  0DA7  3A01               	xorlw	1	; case 7
  4076  0DA8  1903               	skipnz
  4077  0DA9  2D89               	goto	l1845
  4078  0DAA  2D90               	goto	l1847
  4079  0DAB                     l1853:
  4080                           
  4081                           ;ADC.c: 29:     ADCON0bits.CHS = canal;
  4082  0DAB  0876               	movf	ADCconfig@canal,w
  4083  0DAC  00F4               	movwf	??_ADCconfig
  4084  0DAD  0DF4               	rlf	??_ADCconfig,f
  4085  0DAE  0DF4               	rlf	??_ADCconfig,f
  4086  0DAF  081F               	movf	31,w	;volatile
  4087  0DB0  0674               	xorwf	??_ADCconfig,w
  4088  0DB1  39C3               	andlw	-61
  4089  0DB2  0674               	xorwf	??_ADCconfig,w
  4090  0DB3  009F               	movwf	31	;volatile
  4091  0DB4                     l1855:
  4092                           
  4093                           ;ADC.c: 30:     ADCON0bits.GO = 0b0;
  4094  0DB4  109F               	bcf	31,1	;volatile
  4095  0DB5                     l1857:
  4096                           
  4097                           ;ADC.c: 31:     ADCON0bits.ADON = 0b1;
  4098  0DB5  141F               	bsf	31,0	;volatile
  4099  0DB6                     l1859:
  4100                           
  4101                           ;ADC.c: 32:     ADCON1bits.ADFM = just;
  4102  0DB6  0C73               	rrf	ADCconfig@just,w
  4103  0DB7  1683               	bsf	3,5	;RP0=1, select bank1
  4104  0DB8  1303               	bcf	3,6	;RP1=0, select bank1
  4105  0DB9  1C03               	skipc
  4106  0DBA  139F               	bcf	31,7	;volatile
  4107  0DBB  1803               	skipnc
  4108  0DBC  179F               	bsf	31,7	;volatile
  4109  0DBD                     l1861:
  4110                           
  4111                           ;ADC.c: 33:     ADCON1bits.VCFG1 = 0b0;
  4112  0DBD  129F               	bcf	31,5	;volatile
  4113  0DBE                     l1863:
  4114                           
  4115                           ;ADC.c: 34:     ADCON1bits.VCFG0 = 0b0;
  4116  0DBE  121F               	bcf	31,4	;volatile
  4117  0DBF                     l115:
  4118  0DBF  0008               	return
  4119  0DC0                     __end_of_ADCconfig:
  4120                           
  4121                           	psect	text19
  4122  0D3A                     __ptext19:	
  4123 ;; *************** function _CONVdec *****************
  4124 ;; Defined at:
  4125 ;;		line 52 in file "ADC.c"
  4126 ;; Parameters:    Size  Location     Type
  4127 ;;  lectura         1    wreg     PTR unsigned char 
  4128 ;;		 -> pot2(1), pot1(1), 
  4129 ;;  equiv           1   36[BANK0 ] PTR float 
  4130 ;;		 -> val2(4), val1(4), 
  4131 ;; Auto vars:     Size  Location     Type
  4132 ;;  lectura         1    7[COMMON] PTR unsigned char 
  4133 ;;		 -> pot2(1), pot1(1), 
  4134 ;; Return value:  Size  Location     Type
  4135 ;;                  1    wreg      void 
  4136 ;; Registers used:
  4137 ;;		wreg, fsr0l, fsr0h, status,2, status,0, btemp+1, pclath, cstack
  4138 ;; Tracked objects:
  4139 ;;		On entry : 0/0
  4140 ;;		On exit  : 0/0
  4141 ;;		Unchanged: 0/0
  4142 ;; Data sizes:     COMMON   BANK0   BANK1   BANK3   BANK2
  4143 ;;      Params:         0       1       0       0       0
  4144 ;;      Locals:         1       0       0       0       0
  4145 ;;      Temps:          0       4       0       0       0
  4146 ;;      Totals:         1       5       0       0       0
  4147 ;;Total ram usage:        6 bytes
  4148 ;; Hardware stack levels used:    1
  4149 ;; Hardware stack levels required when called:    3
  4150 ;; This function calls:
  4151 ;;		___flmul
  4152 ;;		___xxtofl
  4153 ;; This function is called by:
  4154 ;;		_main
  4155 ;; This function uses a non-reentrant model
  4156 ;;
  4157                           
  4158                           
  4159                           ;psect for function _CONVdec
  4160  0D3A                     _CONVdec:
  4161                           
  4162                           ;incstack = 0
  4163                           ; Regs used in _CONVdec: [wreg-fsr0h+status,2+status,0+btemp+1+pclath+cstack]
  4164                           ;CONVdec@lectura stored from wreg
  4165  0D3A  00F7               	movwf	CONVdec@lectura
  4166  0D3B                     l2831:
  4167                           
  4168                           ;ADC.c: 54:     *equiv = (float)(0.01961)*(*lectura);
  4169  0D3B  303C               	movlw	60
  4170  0D3C  1283               	bcf	3,5	;RP0=0, select bank0
  4171  0D3D  1303               	bcf	3,6	;RP1=0, select bank0
  4172  0D3E  00AD               	movwf	___flmul@b+3
  4173  0D3F  30A0               	movlw	160
  4174  0D40  00AC               	movwf	___flmul@b+2
  4175  0D41  30A5               	movlw	165
  4176  0D42  00AB               	movwf	___flmul@b+1
  4177  0D43  3027               	movlw	39
  4178  0D44  00AA               	movwf	___flmul@b
  4179  0D45  0877               	movf	CONVdec@lectura,w
  4180  0D46  0084               	movwf	4
  4181  0D47  1383               	bcf	3,7	;select IRP bank0
  4182  0D48  0800               	movf	0,w
  4183  0D49  00C5               	movwf	??_CONVdec
  4184  0D4A  01C6               	clrf	??_CONVdec+1
  4185  0D4B  01C7               	clrf	??_CONVdec+2
  4186  0D4C  01C8               	clrf	??_CONVdec+3
  4187  0D4D  0848               	movf	??_CONVdec+3,w
  4188  0D4E  00F6               	movwf	___xxtofl@val+3
  4189  0D4F  0847               	movf	??_CONVdec+2,w
  4190  0D50  00F5               	movwf	___xxtofl@val+2
  4191  0D51  0846               	movf	??_CONVdec+1,w
  4192  0D52  00F4               	movwf	___xxtofl@val+1
  4193  0D53  0845               	movf	??_CONVdec,w
  4194  0D54  00F3               	movwf	___xxtofl@val
  4195  0D55  3001               	movlw	1
  4196  0D56  120A  118A  2615  120A  158A  	fcall	___xxtofl
  4197  0D5B  0876               	movf	?___xxtofl+3,w
  4198  0D5C  1283               	bcf	3,5	;RP0=0, select bank0
  4199  0D5D  1303               	bcf	3,6	;RP1=0, select bank0
  4200  0D5E  00B1               	movwf	___flmul@a+3
  4201  0D5F  0875               	movf	?___xxtofl+2,w
  4202  0D60  00B0               	movwf	___flmul@a+2
  4203  0D61  0874               	movf	?___xxtofl+1,w
  4204  0D62  00AF               	movwf	___flmul@a+1
  4205  0D63  0873               	movf	?___xxtofl,w
  4206  0D64  00AE               	movwf	___flmul@a
  4207  0D65  120A  118A  2024  120A  158A  	fcall	___flmul
  4208  0D6A  1283               	bcf	3,5	;RP0=0, select bank0
  4209  0D6B  1303               	bcf	3,6	;RP1=0, select bank0
  4210  0D6C  0844               	movf	CONVdec@equiv,w
  4211  0D6D  0084               	movwf	4
  4212  0D6E  082A               	movf	?___flmul,w
  4213  0D6F  1383               	bcf	3,7	;select IRP bank0
  4214  0D70  0080               	movwf	0
  4215  0D71  0A84               	incf	4,f
  4216  0D72  082B               	movf	?___flmul+1,w
  4217  0D73  0080               	movwf	0
  4218  0D74  0A84               	incf	4,f
  4219  0D75  082C               	movf	?___flmul+2,w
  4220  0D76  0080               	movwf	0
  4221  0D77  0A84               	incf	4,f
  4222  0D78  082D               	movf	?___flmul+3,w
  4223  0D79  0080               	movwf	0
  4224  0D7A                     l121:
  4225  0D7A  0008               	return
  4226  0D7B                     __end_of_CONVdec:
  4227                           
  4228                           	psect	text20
  4229  0615                     __ptext20:	
  4230 ;; *************** function ___xxtofl *****************
  4231 ;; Defined at:
  4232 ;;		line 10 in file "C:\Program Files\Microchip\xc8\v2.31\pic\sources\c90\common\xxtofl.c"
  4233 ;; Parameters:    Size  Location     Type
  4234 ;;  sign            1    wreg     unsigned char 
  4235 ;;  val             4    3[COMMON] long 
  4236 ;; Auto vars:     Size  Location     Type
  4237 ;;  sign            1    4[BANK0 ] unsigned char 
  4238 ;;  arg             4    6[BANK0 ] unsigned long 
  4239 ;;  exp             1    5[BANK0 ] unsigned char 
  4240 ;; Return value:  Size  Location     Type
  4241 ;;                  4    3[COMMON] unsigned char 
  4242 ;; Registers used:
  4243 ;;		wreg, status,2, status,0
  4244 ;; Tracked objects:
  4245 ;;		On entry : 0/0
  4246 ;;		On exit  : 0/0
  4247 ;;		Unchanged: 0/0
  4248 ;; Data sizes:     COMMON   BANK0   BANK1   BANK3   BANK2
  4249 ;;      Params:         4       0       0       0       0
  4250 ;;      Locals:         0       6       0       0       0
  4251 ;;      Temps:          0       4       0       0       0
  4252 ;;      Totals:         4      10       0       0       0
  4253 ;;Total ram usage:       14 bytes
  4254 ;; Hardware stack levels used:    1
  4255 ;; Hardware stack levels required when called:    1
  4256 ;; This function calls:
  4257 ;;		Nothing
  4258 ;; This function is called by:
  4259 ;;		_CONVdec
  4260 ;;		_sendfloat
  4261 ;; This function uses a non-reentrant model
  4262 ;;
  4263                           
  4264                           
  4265                           ;psect for function ___xxtofl
  4266  0615                     ___xxtofl:
  4267                           
  4268                           ;incstack = 0
  4269                           ; Regs used in ___xxtofl: [wreg+status,2+status,0]
  4270                           ;___xxtofl@sign stored from wreg
  4271  0615  1283               	bcf	3,5	;RP0=0, select bank0
  4272  0616  1303               	bcf	3,6	;RP1=0, select bank0
  4273  0617  00A4               	movwf	___xxtofl@sign
  4274  0618                     l2787:
  4275  0618  0824               	movf	___xxtofl@sign,w
  4276  0619  1903               	btfsc	3,2
  4277  061A  2E1C               	goto	u3851
  4278  061B  2E1D               	goto	u3850
  4279  061C                     u3851:
  4280  061C  2E31               	goto	l2793
  4281  061D                     u3850:
  4282  061D                     l2789:
  4283  061D  1FF6               	btfss	___xxtofl@val+3,7
  4284  061E  2E20               	goto	u3861
  4285  061F  2E21               	goto	u3860
  4286  0620                     u3861:
  4287  0620  2E31               	goto	l2793
  4288  0621                     u3860:
  4289  0621                     l2791:
  4290  0621  0973               	comf	___xxtofl@val,w
  4291  0622  00A6               	movwf	___xxtofl@arg
  4292  0623  0974               	comf	___xxtofl@val+1,w
  4293  0624  00A7               	movwf	___xxtofl@arg+1
  4294  0625  0975               	comf	___xxtofl@val+2,w
  4295  0626  00A8               	movwf	___xxtofl@arg+2
  4296  0627  0976               	comf	___xxtofl@val+3,w
  4297  0628  00A9               	movwf	___xxtofl@arg+3
  4298  0629  0AA6               	incf	___xxtofl@arg,f
  4299  062A  1903               	skipnz
  4300  062B  0AA7               	incf	___xxtofl@arg+1,f
  4301  062C  1903               	skipnz
  4302  062D  0AA8               	incf	___xxtofl@arg+2,f
  4303  062E  1903               	skipnz
  4304  062F  0AA9               	incf	___xxtofl@arg+3,f
  4305  0630  2E39               	goto	l712
  4306  0631                     l2793:
  4307  0631  0876               	movf	___xxtofl@val+3,w
  4308  0632  00A9               	movwf	___xxtofl@arg+3
  4309  0633  0875               	movf	___xxtofl@val+2,w
  4310  0634  00A8               	movwf	___xxtofl@arg+2
  4311  0635  0874               	movf	___xxtofl@val+1,w
  4312  0636  00A7               	movwf	___xxtofl@arg+1
  4313  0637  0873               	movf	___xxtofl@val,w
  4314  0638  00A6               	movwf	___xxtofl@arg
  4315  0639                     l712:
  4316  0639  0876               	movf	___xxtofl@val+3,w
  4317  063A  0475               	iorwf	___xxtofl@val+2,w
  4318  063B  0474               	iorwf	___xxtofl@val+1,w
  4319  063C  0473               	iorwf	___xxtofl@val,w
  4320  063D  1D03               	skipz
  4321  063E  2E40               	goto	u3871
  4322  063F  2E41               	goto	u3870
  4323  0640                     u3871:
  4324  0640  2E4A               	goto	l2799
  4325  0641                     u3870:
  4326  0641                     l2795:
  4327  0641  3000               	movlw	0
  4328  0642  00F6               	movwf	?___xxtofl+3
  4329  0643  3000               	movlw	0
  4330  0644  00F5               	movwf	?___xxtofl+2
  4331  0645  3000               	movlw	0
  4332  0646  00F4               	movwf	?___xxtofl+1
  4333  0647  3000               	movlw	0
  4334  0648  00F3               	movwf	?___xxtofl
  4335  0649  2ED0               	goto	l714
  4336  064A                     l2799:
  4337  064A  3096               	movlw	150
  4338  064B  00A0               	movwf	??___xxtofl
  4339  064C  0820               	movf	??___xxtofl,w
  4340  064D  00A5               	movwf	___xxtofl@exp
  4341  064E  2E5C               	goto	l2803
  4342  064F                     l2801:
  4343  064F  3001               	movlw	1
  4344  0650  00A0               	movwf	??___xxtofl
  4345  0651  0820               	movf	??___xxtofl,w
  4346  0652  07A5               	addwf	___xxtofl@exp,f
  4347  0653  3001               	movlw	1
  4348  0654                     u3885:
  4349  0654  1003               	clrc
  4350  0655  0CA9               	rrf	___xxtofl@arg+3,f
  4351  0656  0CA8               	rrf	___xxtofl@arg+2,f
  4352  0657  0CA7               	rrf	___xxtofl@arg+1,f
  4353  0658  0CA6               	rrf	___xxtofl@arg,f
  4354  0659  3EFF               	addlw	-1
  4355  065A  1D03               	skipz
  4356  065B  2E54               	goto	u3885
  4357  065C                     l2803:
  4358  065C  30FE               	movlw	254
  4359  065D  0529               	andwf	___xxtofl@arg+3,w
  4360  065E  1D03               	btfss	3,2
  4361  065F  2E61               	goto	u3891
  4362  0660  2E62               	goto	u3890
  4363  0661                     u3891:
  4364  0661  2E4F               	goto	l2801
  4365  0662                     u3890:
  4366  0662  2E7E               	goto	l718
  4367  0663                     l2805:
  4368  0663  3001               	movlw	1
  4369  0664  00A0               	movwf	??___xxtofl
  4370  0665  0820               	movf	??___xxtofl,w
  4371  0666  07A5               	addwf	___xxtofl@exp,f
  4372  0667                     l2807:
  4373  0667  3001               	movlw	1
  4374  0668  07A6               	addwf	___xxtofl@arg,f
  4375  0669  3000               	movlw	0
  4376  066A  1803               	skipnc
  4377  066B  3001               	movlw	1
  4378  066C  07A7               	addwf	___xxtofl@arg+1,f
  4379  066D  3000               	movlw	0
  4380  066E  1803               	skipnc
  4381  066F  3001               	movlw	1
  4382  0670  07A8               	addwf	___xxtofl@arg+2,f
  4383  0671  3000               	movlw	0
  4384  0672  1803               	skipnc
  4385  0673  3001               	movlw	1
  4386  0674  07A9               	addwf	___xxtofl@arg+3,f
  4387  0675                     l2809:
  4388  0675  3001               	movlw	1
  4389  0676                     u3905:
  4390  0676  1003               	clrc
  4391  0677  0CA9               	rrf	___xxtofl@arg+3,f
  4392  0678  0CA8               	rrf	___xxtofl@arg+2,f
  4393  0679  0CA7               	rrf	___xxtofl@arg+1,f
  4394  067A  0CA6               	rrf	___xxtofl@arg,f
  4395  067B  3EFF               	addlw	-1
  4396  067C  1D03               	skipz
  4397  067D  2E76               	goto	u3905
  4398  067E                     l718:
  4399  067E  30FF               	movlw	255
  4400  067F  0529               	andwf	___xxtofl@arg+3,w
  4401  0680  1D03               	btfss	3,2
  4402  0681  2E83               	goto	u3911
  4403  0682  2E84               	goto	u3910
  4404  0683                     u3911:
  4405  0683  2E63               	goto	l2805
  4406  0684                     u3910:
  4407  0684  2E90               	goto	l2813
  4408  0685                     l2811:
  4409  0685  3001               	movlw	1
  4410  0686  02A5               	subwf	___xxtofl@exp,f
  4411  0687  3001               	movlw	1
  4412  0688  00A0               	movwf	??___xxtofl
  4413  0689                     u3925:
  4414  0689  1003               	clrc
  4415  068A  0DA6               	rlf	___xxtofl@arg,f
  4416  068B  0DA7               	rlf	___xxtofl@arg+1,f
  4417  068C  0DA8               	rlf	___xxtofl@arg+2,f
  4418  068D  0DA9               	rlf	___xxtofl@arg+3,f
  4419  068E  0BA0               	decfsz	??___xxtofl,f
  4420  068F  2E89               	goto	u3925
  4421  0690                     l2813:
  4422  0690  1BA8               	btfsc	___xxtofl@arg+2,7
  4423  0691  2E93               	goto	u3931
  4424  0692  2E94               	goto	u3930
  4425  0693                     u3931:
  4426  0693  2E9A               	goto	l725
  4427  0694                     u3930:
  4428  0694                     l2815:
  4429  0694  3002               	movlw	2
  4430  0695  0225               	subwf	___xxtofl@exp,w
  4431  0696  1803               	skipnc
  4432  0697  2E99               	goto	u3941
  4433  0698  2E9A               	goto	u3940
  4434  0699                     u3941:
  4435  0699  2E85               	goto	l2811
  4436  069A                     u3940:
  4437  069A                     l725:
  4438  069A  1825               	btfsc	___xxtofl@exp,0
  4439  069B  2E9D               	goto	u3951
  4440  069C  2E9E               	goto	u3950
  4441  069D                     u3951:
  4442  069D  2EA6               	goto	l726
  4443  069E                     u3950:
  4444  069E                     l2817:
  4445  069E  30FF               	movlw	255
  4446  069F  05A6               	andwf	___xxtofl@arg,f
  4447  06A0  30FF               	movlw	255
  4448  06A1  05A7               	andwf	___xxtofl@arg+1,f
  4449  06A2  307F               	movlw	127
  4450  06A3  05A8               	andwf	___xxtofl@arg+2,f
  4451  06A4  30FF               	movlw	255
  4452  06A5  05A9               	andwf	___xxtofl@arg+3,f
  4453  06A6                     l726:
  4454  06A6  1003               	clrc
  4455  06A7  0CA5               	rrf	___xxtofl@exp,f
  4456  06A8                     l2819:
  4457  06A8  0825               	movf	___xxtofl@exp,w
  4458  06A9  00A0               	movwf	??___xxtofl
  4459  06AA  01A1               	clrf	??___xxtofl+1
  4460  06AB  01A2               	clrf	??___xxtofl+2
  4461  06AC  01A3               	clrf	??___xxtofl+3
  4462  06AD  3018               	movlw	24
  4463  06AE                     u3965:
  4464  06AE  1003               	clrc
  4465  06AF  0DA0               	rlf	??___xxtofl,f
  4466  06B0  0DA1               	rlf	??___xxtofl+1,f
  4467  06B1  0DA2               	rlf	??___xxtofl+2,f
  4468  06B2  0DA3               	rlf	??___xxtofl+3,f
  4469  06B3                     u3960:
  4470  06B3  3EFF               	addlw	-1
  4471  06B4  1D03               	skipz
  4472  06B5  2EAE               	goto	u3965
  4473  06B6  0820               	movf	??___xxtofl,w
  4474  06B7  04A6               	iorwf	___xxtofl@arg,f
  4475  06B8  0821               	movf	??___xxtofl+1,w
  4476  06B9  04A7               	iorwf	___xxtofl@arg+1,f
  4477  06BA  0822               	movf	??___xxtofl+2,w
  4478  06BB  04A8               	iorwf	___xxtofl@arg+2,f
  4479  06BC  0823               	movf	??___xxtofl+3,w
  4480  06BD  04A9               	iorwf	___xxtofl@arg+3,f
  4481  06BE                     l2821:
  4482  06BE  0824               	movf	___xxtofl@sign,w
  4483  06BF  1903               	btfsc	3,2
  4484  06C0  2EC2               	goto	u3971
  4485  06C1  2EC3               	goto	u3970
  4486  06C2                     u3971:
  4487  06C2  2EC8               	goto	l2827
  4488  06C3                     u3970:
  4489  06C3                     l2823:
  4490  06C3  1FF6               	btfss	___xxtofl@val+3,7
  4491  06C4  2EC6               	goto	u3981
  4492  06C5  2EC7               	goto	u3980
  4493  06C6                     u3981:
  4494  06C6  2EC8               	goto	l2827
  4495  06C7                     u3980:
  4496  06C7                     l2825:
  4497  06C7  17A9               	bsf	___xxtofl@arg+3,7
  4498  06C8                     l2827:
  4499  06C8  0829               	movf	___xxtofl@arg+3,w
  4500  06C9  00F6               	movwf	?___xxtofl+3
  4501  06CA  0828               	movf	___xxtofl@arg+2,w
  4502  06CB  00F5               	movwf	?___xxtofl+2
  4503  06CC  0827               	movf	___xxtofl@arg+1,w
  4504  06CD  00F4               	movwf	?___xxtofl+1
  4505  06CE  0826               	movf	___xxtofl@arg,w
  4506  06CF  00F3               	movwf	?___xxtofl
  4507  06D0                     l714:
  4508  06D0  0008               	return
  4509  06D1                     __end_of___xxtofl:
  4510                           
  4511                           	psect	text21
  4512  0024                     __ptext21:	
  4513 ;; *************** function ___flmul *****************
  4514 ;; Defined at:
  4515 ;;		line 8 in file "C:\Program Files\Microchip\xc8\v2.31\pic\sources\c90\common\sprcmul.c"
  4516 ;; Parameters:    Size  Location     Type
  4517 ;;  b               4   10[BANK0 ] unsigned char 
  4518 ;;  a               4   14[BANK0 ] unsigned char 
  4519 ;; Auto vars:     Size  Location     Type
  4520 ;;  prod            4   30[BANK0 ] struct .
  4521 ;;  grs             4   25[BANK0 ] unsigned long 
  4522 ;;  temp            2   34[BANK0 ] struct .
  4523 ;;  bexp            1   29[BANK0 ] unsigned char 
  4524 ;;  aexp            1   24[BANK0 ] unsigned char 
  4525 ;;  sign            1   23[BANK0 ] unsigned char 
  4526 ;; Return value:  Size  Location     Type
  4527 ;;                  4   10[BANK0 ] unsigned char 
  4528 ;; Registers used:
  4529 ;;		wreg, status,2, status,0, btemp+1, pclath, cstack
  4530 ;; Tracked objects:
  4531 ;;		On entry : 0/0
  4532 ;;		On exit  : 0/0
  4533 ;;		Unchanged: 0/0
  4534 ;; Data sizes:     COMMON   BANK0   BANK1   BANK3   BANK2
  4535 ;;      Params:         0       8       0       0       0
  4536 ;;      Locals:         0      13       0       0       0
  4537 ;;      Temps:          0       5       0       0       0
  4538 ;;      Totals:         0      26       0       0       0
  4539 ;;Total ram usage:       26 bytes
  4540 ;; Hardware stack levels used:    1
  4541 ;; Hardware stack levels required when called:    2
  4542 ;; This function calls:
  4543 ;;		__Umul8_16
  4544 ;; This function is called by:
  4545 ;;		_CONVdec
  4546 ;;		_sendfloat
  4547 ;; This function uses a non-reentrant model
  4548 ;;
  4549                           
  4550                           
  4551                           ;psect for function ___flmul
  4552  0024                     ___flmul:
  4553  0024                     l2647:	
  4554                           ;incstack = 0
  4555                           ; Regs used in ___flmul: [wreg+status,2+status,0+btemp+1+pclath+cstack]
  4556                           
  4557  0024  1283               	bcf	3,5	;RP0=0, select bank0
  4558  0025  1303               	bcf	3,6	;RP1=0, select bank0
  4559  0026  082D               	movf	___flmul@b+3,w
  4560  0027  3980               	andlw	128
  4561  0028  00B2               	movwf	??___flmul
  4562  0029  0832               	movf	??___flmul,w
  4563  002A  00B7               	movwf	___flmul@sign
  4564  002B                     l2649:
  4565  002B  082D               	movf	___flmul@b+3,w
  4566  002C  00B2               	movwf	??___flmul
  4567  002D  0732               	addwf	??___flmul,w
  4568  002E  00B3               	movwf	??___flmul+1
  4569  002F  0833               	movf	??___flmul+1,w
  4570  0030  00BD               	movwf	___flmul@bexp
  4571  0031                     l2651:
  4572  0031  1FAC               	btfss	___flmul@b+2,7
  4573  0032  2834               	goto	u3481
  4574  0033  2835               	goto	u3480
  4575  0034                     u3481:
  4576  0034  2836               	goto	l2655
  4577  0035                     u3480:
  4578  0035                     l2653:
  4579  0035  143D               	bsf	___flmul@bexp,0
  4580  0036                     l2655:
  4581  0036  083D               	movf	___flmul@bexp,w
  4582  0037  1903               	btfsc	3,2
  4583  0038  283A               	goto	u3491
  4584  0039  283B               	goto	u3490
  4585  003A                     u3491:
  4586  003A  284A               	goto	l2663
  4587  003B                     u3490:
  4588  003B                     l2657:
  4589  003B  0A3D               	incf	___flmul@bexp,w
  4590  003C  1D03               	btfss	3,2
  4591  003D  283F               	goto	u3501
  4592  003E  2840               	goto	u3500
  4593  003F                     u3501:
  4594  003F  2848               	goto	l2661
  4595  0040                     u3500:
  4596  0040                     l2659:
  4597  0040  3000               	movlw	0
  4598  0041  00AD               	movwf	___flmul@b+3
  4599  0042  3000               	movlw	0
  4600  0043  00AC               	movwf	___flmul@b+2
  4601  0044  3000               	movlw	0
  4602  0045  00AB               	movwf	___flmul@b+1
  4603  0046  3000               	movlw	0
  4604  0047  00AA               	movwf	___flmul@b
  4605  0048                     l2661:
  4606  0048  17AC               	bsf	___flmul@b+2,7
  4607  0049  2852               	goto	l2665
  4608  004A                     l2663:
  4609  004A  3000               	movlw	0
  4610  004B  00AD               	movwf	___flmul@b+3
  4611  004C  3000               	movlw	0
  4612  004D  00AC               	movwf	___flmul@b+2
  4613  004E  3000               	movlw	0
  4614  004F  00AB               	movwf	___flmul@b+1
  4615  0050  3000               	movlw	0
  4616  0051  00AA               	movwf	___flmul@b
  4617  0052                     l2665:
  4618  0052  0831               	movf	___flmul@a+3,w
  4619  0053  3980               	andlw	128
  4620  0054  00B2               	movwf	??___flmul
  4621  0055  0832               	movf	??___flmul,w
  4622  0056  06B7               	xorwf	___flmul@sign,f
  4623  0057                     l2667:
  4624  0057  0831               	movf	___flmul@a+3,w
  4625  0058  00B2               	movwf	??___flmul
  4626  0059  0732               	addwf	??___flmul,w
  4627  005A  00B3               	movwf	??___flmul+1
  4628  005B  0833               	movf	??___flmul+1,w
  4629  005C  00B8               	movwf	___flmul@aexp
  4630  005D                     l2669:
  4631  005D  1FB0               	btfss	___flmul@a+2,7
  4632  005E  2860               	goto	u3511
  4633  005F  2861               	goto	u3510
  4634  0060                     u3511:
  4635  0060  2862               	goto	l2673
  4636  0061                     u3510:
  4637  0061                     l2671:
  4638  0061  1438               	bsf	___flmul@aexp,0
  4639  0062                     l2673:
  4640  0062  0838               	movf	___flmul@aexp,w
  4641  0063  1903               	btfsc	3,2
  4642  0064  2866               	goto	u3521
  4643  0065  2867               	goto	u3520
  4644  0066                     u3521:
  4645  0066  2876               	goto	l2681
  4646  0067                     u3520:
  4647  0067                     l2675:
  4648  0067  0A38               	incf	___flmul@aexp,w
  4649  0068  1D03               	btfss	3,2
  4650  0069  286B               	goto	u3531
  4651  006A  286C               	goto	u3530
  4652  006B                     u3531:
  4653  006B  2874               	goto	l2679
  4654  006C                     u3530:
  4655  006C                     l2677:
  4656  006C  3000               	movlw	0
  4657  006D  00B1               	movwf	___flmul@a+3
  4658  006E  3000               	movlw	0
  4659  006F  00B0               	movwf	___flmul@a+2
  4660  0070  3000               	movlw	0
  4661  0071  00AF               	movwf	___flmul@a+1
  4662  0072  3000               	movlw	0
  4663  0073  00AE               	movwf	___flmul@a
  4664  0074                     l2679:
  4665  0074  17B0               	bsf	___flmul@a+2,7
  4666  0075  287E               	goto	l2683
  4667  0076                     l2681:
  4668  0076  3000               	movlw	0
  4669  0077  00B1               	movwf	___flmul@a+3
  4670  0078  3000               	movlw	0
  4671  0079  00B0               	movwf	___flmul@a+2
  4672  007A  3000               	movlw	0
  4673  007B  00AF               	movwf	___flmul@a+1
  4674  007C  3000               	movlw	0
  4675  007D  00AE               	movwf	___flmul@a
  4676  007E                     l2683:
  4677  007E  0838               	movf	___flmul@aexp,w
  4678  007F  1903               	btfsc	3,2
  4679  0080  2882               	goto	u3541
  4680  0081  2883               	goto	u3540
  4681  0082                     u3541:
  4682  0082  2888               	goto	l2687
  4683  0083                     u3540:
  4684  0083                     l2685:
  4685  0083  083D               	movf	___flmul@bexp,w
  4686  0084  1D03               	btfss	3,2
  4687  0085  2887               	goto	u3551
  4688  0086  2888               	goto	u3550
  4689  0087                     u3551:
  4690  0087  2891               	goto	l2691
  4691  0088                     u3550:
  4692  0088                     l2687:
  4693  0088  3000               	movlw	0
  4694  0089  00AD               	movwf	?___flmul+3
  4695  008A  3000               	movlw	0
  4696  008B  00AC               	movwf	?___flmul+2
  4697  008C  3000               	movlw	0
  4698  008D  00AB               	movwf	?___flmul+1
  4699  008E  3000               	movlw	0
  4700  008F  00AA               	movwf	?___flmul
  4701  0090  2B84               	goto	l668
  4702  0091                     l2691:
  4703  0091  082A               	movf	___flmul@b,w
  4704  0092  00B2               	movwf	??___flmul
  4705  0093  0832               	movf	??___flmul,w
  4706  0094  00F3               	movwf	__Umul8_16@multiplicand
  4707  0095  0830               	movf	___flmul@a+2,w
  4708  0096  120A  158A  24AA  120A  118A  	fcall	__Umul8_16
  4709  009B  0874               	movf	?__Umul8_16+1,w
  4710  009C  1283               	bcf	3,5	;RP0=0, select bank0
  4711  009D  1303               	bcf	3,6	;RP1=0, select bank0
  4712  009E  00C3               	movwf	___flmul@temp+1
  4713  009F  0873               	movf	?__Umul8_16,w
  4714  00A0  00C2               	movwf	___flmul@temp
  4715  00A1                     l2693:
  4716  00A1  0842               	movf	___flmul@temp,w
  4717  00A2  00B2               	movwf	??___flmul
  4718  00A3  01B3               	clrf	??___flmul+1
  4719  00A4  01B4               	clrf	??___flmul+2
  4720  00A5  01B5               	clrf	??___flmul+3
  4721  00A6  0835               	movf	??___flmul+3,w
  4722  00A7  00BC               	movwf	___flmul@grs+3
  4723  00A8  0834               	movf	??___flmul+2,w
  4724  00A9  00BB               	movwf	___flmul@grs+2
  4725  00AA  0833               	movf	??___flmul+1,w
  4726  00AB  00BA               	movwf	___flmul@grs+1
  4727  00AC  0832               	movf	??___flmul,w
  4728  00AD  00B9               	movwf	___flmul@grs
  4729  00AE                     l2695:
  4730  00AE  0843               	movf	___flmul@temp+1,w
  4731  00AF  00B2               	movwf	??___flmul
  4732  00B0  01B3               	clrf	??___flmul+1
  4733  00B1  01B4               	clrf	??___flmul+2
  4734  00B2  01B5               	clrf	??___flmul+3
  4735  00B3  0835               	movf	??___flmul+3,w
  4736  00B4  00C1               	movwf	___flmul@prod+3
  4737  00B5  0834               	movf	??___flmul+2,w
  4738  00B6  00C0               	movwf	___flmul@prod+2
  4739  00B7  0833               	movf	??___flmul+1,w
  4740  00B8  00BF               	movwf	___flmul@prod+1
  4741  00B9  0832               	movf	??___flmul,w
  4742  00BA  00BE               	movwf	___flmul@prod
  4743  00BB  082B               	movf	___flmul@b+1,w
  4744  00BC  00B2               	movwf	??___flmul
  4745  00BD  0832               	movf	??___flmul,w
  4746  00BE  00F3               	movwf	__Umul8_16@multiplicand
  4747  00BF  082F               	movf	___flmul@a+1,w
  4748  00C0  120A  158A  24AA  120A  118A  	fcall	__Umul8_16
  4749  00C5  0874               	movf	?__Umul8_16+1,w
  4750  00C6  1283               	bcf	3,5	;RP0=0, select bank0
  4751  00C7  1303               	bcf	3,6	;RP1=0, select bank0
  4752  00C8  00C3               	movwf	___flmul@temp+1
  4753  00C9  0873               	movf	?__Umul8_16,w
  4754  00CA  00C2               	movwf	___flmul@temp
  4755  00CB                     l2697:
  4756  00CB  0842               	movf	___flmul@temp,w
  4757  00CC  00B2               	movwf	??___flmul
  4758  00CD  01B3               	clrf	??___flmul+1
  4759  00CE  01B4               	clrf	??___flmul+2
  4760  00CF  01B5               	clrf	??___flmul+3
  4761  00D0  0832               	movf	??___flmul,w
  4762  00D1  07B9               	addwf	___flmul@grs,f
  4763  00D2  0833               	movf	??___flmul+1,w
  4764  00D3  1103               	clrz
  4765  00D4  1803               	skipnc
  4766  00D5  3E01               	addlw	1
  4767  00D6  1903               	skipnz
  4768  00D7  28D9               	goto	u3561
  4769  00D8  07BA               	addwf	___flmul@grs+1,f
  4770  00D9                     u3561:
  4771  00D9  0834               	movf	??___flmul+2,w
  4772  00DA  1103               	clrz
  4773  00DB  1803               	skipnc
  4774  00DC  3E01               	addlw	1
  4775  00DD  1903               	skipnz
  4776  00DE  28E0               	goto	u3562
  4777  00DF  07BB               	addwf	___flmul@grs+2,f
  4778  00E0                     u3562:
  4779  00E0  0835               	movf	??___flmul+3,w
  4780  00E1  1103               	clrz
  4781  00E2  1803               	skipnc
  4782  00E3  3E01               	addlw	1
  4783  00E4  1903               	skipnz
  4784  00E5  28E7               	goto	u3563
  4785  00E6  07BC               	addwf	___flmul@grs+3,f
  4786  00E7                     u3563:
  4787  00E7                     l2699:
  4788  00E7  0843               	movf	___flmul@temp+1,w
  4789  00E8  00B2               	movwf	??___flmul
  4790  00E9  01B3               	clrf	??___flmul+1
  4791  00EA  01B4               	clrf	??___flmul+2
  4792  00EB  01B5               	clrf	??___flmul+3
  4793  00EC  0832               	movf	??___flmul,w
  4794  00ED  07BE               	addwf	___flmul@prod,f
  4795  00EE  0833               	movf	??___flmul+1,w
  4796  00EF  1103               	clrz
  4797  00F0  1803               	skipnc
  4798  00F1  3E01               	addlw	1
  4799  00F2  1903               	skipnz
  4800  00F3  28F5               	goto	u3571
  4801  00F4  07BF               	addwf	___flmul@prod+1,f
  4802  00F5                     u3571:
  4803  00F5  0834               	movf	??___flmul+2,w
  4804  00F6  1103               	clrz
  4805  00F7  1803               	skipnc
  4806  00F8  3E01               	addlw	1
  4807  00F9  1903               	skipnz
  4808  00FA  28FC               	goto	u3572
  4809  00FB  07C0               	addwf	___flmul@prod+2,f
  4810  00FC                     u3572:
  4811  00FC  0835               	movf	??___flmul+3,w
  4812  00FD  1103               	clrz
  4813  00FE  1803               	skipnc
  4814  00FF  3E01               	addlw	1
  4815  0100  1903               	skipnz
  4816  0101  2903               	goto	u3573
  4817  0102  07C1               	addwf	___flmul@prod+3,f
  4818  0103                     u3573:
  4819  0103  082C               	movf	___flmul@b+2,w
  4820  0104  00B2               	movwf	??___flmul
  4821  0105  0832               	movf	??___flmul,w
  4822  0106  00F3               	movwf	__Umul8_16@multiplicand
  4823  0107  082E               	movf	___flmul@a,w
  4824  0108  120A  158A  24AA  120A  118A  	fcall	__Umul8_16
  4825  010D  0874               	movf	?__Umul8_16+1,w
  4826  010E  1283               	bcf	3,5	;RP0=0, select bank0
  4827  010F  1303               	bcf	3,6	;RP1=0, select bank0
  4828  0110  00C3               	movwf	___flmul@temp+1
  4829  0111  0873               	movf	?__Umul8_16,w
  4830  0112  00C2               	movwf	___flmul@temp
  4831  0113                     l2701:
  4832  0113  0842               	movf	___flmul@temp,w
  4833  0114  00B2               	movwf	??___flmul
  4834  0115  01B3               	clrf	??___flmul+1
  4835  0116  01B4               	clrf	??___flmul+2
  4836  0117  01B5               	clrf	??___flmul+3
  4837  0118  0832               	movf	??___flmul,w
  4838  0119  07B9               	addwf	___flmul@grs,f
  4839  011A  0833               	movf	??___flmul+1,w
  4840  011B  1103               	clrz
  4841  011C  1803               	skipnc
  4842  011D  3E01               	addlw	1
  4843  011E  1903               	skipnz
  4844  011F  2921               	goto	u3581
  4845  0120  07BA               	addwf	___flmul@grs+1,f
  4846  0121                     u3581:
  4847  0121  0834               	movf	??___flmul+2,w
  4848  0122  1103               	clrz
  4849  0123  1803               	skipnc
  4850  0124  3E01               	addlw	1
  4851  0125  1903               	skipnz
  4852  0126  2928               	goto	u3582
  4853  0127  07BB               	addwf	___flmul@grs+2,f
  4854  0128                     u3582:
  4855  0128  0835               	movf	??___flmul+3,w
  4856  0129  1103               	clrz
  4857  012A  1803               	skipnc
  4858  012B  3E01               	addlw	1
  4859  012C  1903               	skipnz
  4860  012D  292F               	goto	u3583
  4861  012E  07BC               	addwf	___flmul@grs+3,f
  4862  012F                     u3583:
  4863  012F                     l2703:
  4864  012F  0843               	movf	___flmul@temp+1,w
  4865  0130  00B2               	movwf	??___flmul
  4866  0131  01B3               	clrf	??___flmul+1
  4867  0132  01B4               	clrf	??___flmul+2
  4868  0133  01B5               	clrf	??___flmul+3
  4869  0134  0832               	movf	??___flmul,w
  4870  0135  07BE               	addwf	___flmul@prod,f
  4871  0136  0833               	movf	??___flmul+1,w
  4872  0137  1103               	clrz
  4873  0138  1803               	skipnc
  4874  0139  3E01               	addlw	1
  4875  013A  1903               	skipnz
  4876  013B  293D               	goto	u3591
  4877  013C  07BF               	addwf	___flmul@prod+1,f
  4878  013D                     u3591:
  4879  013D  0834               	movf	??___flmul+2,w
  4880  013E  1103               	clrz
  4881  013F  1803               	skipnc
  4882  0140  3E01               	addlw	1
  4883  0141  1903               	skipnz
  4884  0142  2944               	goto	u3592
  4885  0143  07C0               	addwf	___flmul@prod+2,f
  4886  0144                     u3592:
  4887  0144  0835               	movf	??___flmul+3,w
  4888  0145  1103               	clrz
  4889  0146  1803               	skipnc
  4890  0147  3E01               	addlw	1
  4891  0148  1903               	skipnz
  4892  0149  294B               	goto	u3593
  4893  014A  07C1               	addwf	___flmul@prod+3,f
  4894  014B                     u3593:
  4895  014B                     l2705:
  4896  014B  3008               	movlw	8
  4897  014C  00B2               	movwf	??___flmul
  4898  014D                     u3605:
  4899  014D  1003               	clrc
  4900  014E  0DB9               	rlf	___flmul@grs,f
  4901  014F  0DBA               	rlf	___flmul@grs+1,f
  4902  0150  0DBB               	rlf	___flmul@grs+2,f
  4903  0151  0DBC               	rlf	___flmul@grs+3,f
  4904  0152  0BB2               	decfsz	??___flmul,f
  4905  0153  294D               	goto	u3605
  4906  0154                     l2707:
  4907  0154  082B               	movf	___flmul@b+1,w
  4908  0155  00B2               	movwf	??___flmul
  4909  0156  0832               	movf	??___flmul,w
  4910  0157  00F3               	movwf	__Umul8_16@multiplicand
  4911  0158  082E               	movf	___flmul@a,w
  4912  0159  120A  158A  24AA  120A  118A  	fcall	__Umul8_16
  4913  015E  0874               	movf	?__Umul8_16+1,w
  4914  015F  1283               	bcf	3,5	;RP0=0, select bank0
  4915  0160  1303               	bcf	3,6	;RP1=0, select bank0
  4916  0161  00C3               	movwf	___flmul@temp+1
  4917  0162  0873               	movf	?__Umul8_16,w
  4918  0163  00C2               	movwf	___flmul@temp
  4919  0164                     l2709:
  4920  0164  0842               	movf	___flmul@temp,w
  4921  0165  00B2               	movwf	??___flmul
  4922  0166  0843               	movf	___flmul@temp+1,w
  4923  0167  00B3               	movwf	??___flmul+1
  4924  0168  01B4               	clrf	??___flmul+2
  4925  0169  01B5               	clrf	??___flmul+3
  4926  016A  0832               	movf	??___flmul,w
  4927  016B  07B9               	addwf	___flmul@grs,f
  4928  016C  0833               	movf	??___flmul+1,w
  4929  016D  1103               	clrz
  4930  016E  1803               	skipnc
  4931  016F  3E01               	addlw	1
  4932  0170  1903               	skipnz
  4933  0171  2973               	goto	u3611
  4934  0172  07BA               	addwf	___flmul@grs+1,f
  4935  0173                     u3611:
  4936  0173  0834               	movf	??___flmul+2,w
  4937  0174  1103               	clrz
  4938  0175  1803               	skipnc
  4939  0176  3E01               	addlw	1
  4940  0177  1903               	skipnz
  4941  0178  297A               	goto	u3612
  4942  0179  07BB               	addwf	___flmul@grs+2,f
  4943  017A                     u3612:
  4944  017A  0835               	movf	??___flmul+3,w
  4945  017B  1103               	clrz
  4946  017C  1803               	skipnc
  4947  017D  3E01               	addlw	1
  4948  017E  1903               	skipnz
  4949  017F  2981               	goto	u3613
  4950  0180  07BC               	addwf	___flmul@grs+3,f
  4951  0181                     u3613:
  4952  0181                     l2711:
  4953  0181  082A               	movf	___flmul@b,w
  4954  0182  00B2               	movwf	??___flmul
  4955  0183  0832               	movf	??___flmul,w
  4956  0184  00F3               	movwf	__Umul8_16@multiplicand
  4957  0185  082F               	movf	___flmul@a+1,w
  4958  0186  120A  158A  24AA  120A  118A  	fcall	__Umul8_16
  4959  018B  0874               	movf	?__Umul8_16+1,w
  4960  018C  1283               	bcf	3,5	;RP0=0, select bank0
  4961  018D  1303               	bcf	3,6	;RP1=0, select bank0
  4962  018E  00C3               	movwf	___flmul@temp+1
  4963  018F  0873               	movf	?__Umul8_16,w
  4964  0190  00C2               	movwf	___flmul@temp
  4965  0191                     l2713:
  4966  0191  0842               	movf	___flmul@temp,w
  4967  0192  00B2               	movwf	??___flmul
  4968  0193  0843               	movf	___flmul@temp+1,w
  4969  0194  00B3               	movwf	??___flmul+1
  4970  0195  01B4               	clrf	??___flmul+2
  4971  0196  01B5               	clrf	??___flmul+3
  4972  0197  0832               	movf	??___flmul,w
  4973  0198  07B9               	addwf	___flmul@grs,f
  4974  0199  0833               	movf	??___flmul+1,w
  4975  019A  1103               	clrz
  4976  019B  1803               	skipnc
  4977  019C  3E01               	addlw	1
  4978  019D  1903               	skipnz
  4979  019E  29A0               	goto	u3621
  4980  019F  07BA               	addwf	___flmul@grs+1,f
  4981  01A0                     u3621:
  4982  01A0  0834               	movf	??___flmul+2,w
  4983  01A1  1103               	clrz
  4984  01A2  1803               	skipnc
  4985  01A3  3E01               	addlw	1
  4986  01A4  1903               	skipnz
  4987  01A5  29A7               	goto	u3622
  4988  01A6  07BB               	addwf	___flmul@grs+2,f
  4989  01A7                     u3622:
  4990  01A7  0835               	movf	??___flmul+3,w
  4991  01A8  1103               	clrz
  4992  01A9  1803               	skipnc
  4993  01AA  3E01               	addlw	1
  4994  01AB  1903               	skipnz
  4995  01AC  29AE               	goto	u3623
  4996  01AD  07BC               	addwf	___flmul@grs+3,f
  4997  01AE                     u3623:
  4998  01AE                     l2715:
  4999  01AE  3008               	movlw	8
  5000  01AF  00B2               	movwf	??___flmul
  5001  01B0                     u3635:
  5002  01B0  1003               	clrc
  5003  01B1  0DB9               	rlf	___flmul@grs,f
  5004  01B2  0DBA               	rlf	___flmul@grs+1,f
  5005  01B3  0DBB               	rlf	___flmul@grs+2,f
  5006  01B4  0DBC               	rlf	___flmul@grs+3,f
  5007  01B5  0BB2               	decfsz	??___flmul,f
  5008  01B6  29B0               	goto	u3635
  5009  01B7  082A               	movf	___flmul@b,w
  5010  01B8  00B2               	movwf	??___flmul
  5011  01B9  0832               	movf	??___flmul,w
  5012  01BA  00F3               	movwf	__Umul8_16@multiplicand
  5013  01BB  082E               	movf	___flmul@a,w
  5014  01BC  120A  158A  24AA  120A  118A  	fcall	__Umul8_16
  5015  01C1  0874               	movf	?__Umul8_16+1,w
  5016  01C2  1283               	bcf	3,5	;RP0=0, select bank0
  5017  01C3  1303               	bcf	3,6	;RP1=0, select bank0
  5018  01C4  00C3               	movwf	___flmul@temp+1
  5019  01C5  0873               	movf	?__Umul8_16,w
  5020  01C6  00C2               	movwf	___flmul@temp
  5021  01C7                     l2717:
  5022  01C7  0842               	movf	___flmul@temp,w
  5023  01C8  00B2               	movwf	??___flmul
  5024  01C9  0843               	movf	___flmul@temp+1,w
  5025  01CA  00B3               	movwf	??___flmul+1
  5026  01CB  01B4               	clrf	??___flmul+2
  5027  01CC  01B5               	clrf	??___flmul+3
  5028  01CD  0832               	movf	??___flmul,w
  5029  01CE  07B9               	addwf	___flmul@grs,f
  5030  01CF  0833               	movf	??___flmul+1,w
  5031  01D0  1103               	clrz
  5032  01D1  1803               	skipnc
  5033  01D2  3E01               	addlw	1
  5034  01D3  1903               	skipnz
  5035  01D4  29D6               	goto	u3641
  5036  01D5  07BA               	addwf	___flmul@grs+1,f
  5037  01D6                     u3641:
  5038  01D6  0834               	movf	??___flmul+2,w
  5039  01D7  1103               	clrz
  5040  01D8  1803               	skipnc
  5041  01D9  3E01               	addlw	1
  5042  01DA  1903               	skipnz
  5043  01DB  29DD               	goto	u3642
  5044  01DC  07BB               	addwf	___flmul@grs+2,f
  5045  01DD                     u3642:
  5046  01DD  0835               	movf	??___flmul+3,w
  5047  01DE  1103               	clrz
  5048  01DF  1803               	skipnc
  5049  01E0  3E01               	addlw	1
  5050  01E1  1903               	skipnz
  5051  01E2  29E4               	goto	u3643
  5052  01E3  07BC               	addwf	___flmul@grs+3,f
  5053  01E4                     u3643:
  5054  01E4                     l2719:
  5055  01E4  082B               	movf	___flmul@b+1,w
  5056  01E5  00B2               	movwf	??___flmul
  5057  01E6  0832               	movf	??___flmul,w
  5058  01E7  00F3               	movwf	__Umul8_16@multiplicand
  5059  01E8  0830               	movf	___flmul@a+2,w
  5060  01E9  120A  158A  24AA  120A  118A  	fcall	__Umul8_16
  5061  01EE  0874               	movf	?__Umul8_16+1,w
  5062  01EF  1283               	bcf	3,5	;RP0=0, select bank0
  5063  01F0  1303               	bcf	3,6	;RP1=0, select bank0
  5064  01F1  00C3               	movwf	___flmul@temp+1
  5065  01F2  0873               	movf	?__Umul8_16,w
  5066  01F3  00C2               	movwf	___flmul@temp
  5067  01F4  0842               	movf	___flmul@temp,w
  5068  01F5  00B2               	movwf	??___flmul
  5069  01F6  0843               	movf	___flmul@temp+1,w
  5070  01F7  00B3               	movwf	??___flmul+1
  5071  01F8  01B4               	clrf	??___flmul+2
  5072  01F9  01B5               	clrf	??___flmul+3
  5073  01FA  0832               	movf	??___flmul,w
  5074  01FB  07BE               	addwf	___flmul@prod,f
  5075  01FC  0833               	movf	??___flmul+1,w
  5076  01FD  1103               	clrz
  5077  01FE  1803               	skipnc
  5078  01FF  3E01               	addlw	1
  5079  0200  1903               	skipnz
  5080  0201  2A03               	goto	u3651
  5081  0202  07BF               	addwf	___flmul@prod+1,f
  5082  0203                     u3651:
  5083  0203  0834               	movf	??___flmul+2,w
  5084  0204  1103               	clrz
  5085  0205  1803               	skipnc
  5086  0206  3E01               	addlw	1
  5087  0207  1903               	skipnz
  5088  0208  2A0A               	goto	u3652
  5089  0209  07C0               	addwf	___flmul@prod+2,f
  5090  020A                     u3652:
  5091  020A  0835               	movf	??___flmul+3,w
  5092  020B  1103               	clrz
  5093  020C  1803               	skipnc
  5094  020D  3E01               	addlw	1
  5095  020E  1903               	skipnz
  5096  020F  2A11               	goto	u3653
  5097  0210  07C1               	addwf	___flmul@prod+3,f
  5098  0211                     u3653:
  5099  0211                     l2721:
  5100  0211  082C               	movf	___flmul@b+2,w
  5101  0212  00B2               	movwf	??___flmul
  5102  0213  0832               	movf	??___flmul,w
  5103  0214  00F3               	movwf	__Umul8_16@multiplicand
  5104  0215  082F               	movf	___flmul@a+1,w
  5105  0216  120A  158A  24AA  120A  118A  	fcall	__Umul8_16
  5106  021B  0874               	movf	?__Umul8_16+1,w
  5107  021C  1283               	bcf	3,5	;RP0=0, select bank0
  5108  021D  1303               	bcf	3,6	;RP1=0, select bank0
  5109  021E  00C3               	movwf	___flmul@temp+1
  5110  021F  0873               	movf	?__Umul8_16,w
  5111  0220  00C2               	movwf	___flmul@temp
  5112  0221                     l2723:
  5113  0221  0842               	movf	___flmul@temp,w
  5114  0222  00B2               	movwf	??___flmul
  5115  0223  0843               	movf	___flmul@temp+1,w
  5116  0224  00B3               	movwf	??___flmul+1
  5117  0225  01B4               	clrf	??___flmul+2
  5118  0226  01B5               	clrf	??___flmul+3
  5119  0227  0832               	movf	??___flmul,w
  5120  0228  07BE               	addwf	___flmul@prod,f
  5121  0229  0833               	movf	??___flmul+1,w
  5122  022A  1103               	clrz
  5123  022B  1803               	skipnc
  5124  022C  3E01               	addlw	1
  5125  022D  1903               	skipnz
  5126  022E  2A30               	goto	u3661
  5127  022F  07BF               	addwf	___flmul@prod+1,f
  5128  0230                     u3661:
  5129  0230  0834               	movf	??___flmul+2,w
  5130  0231  1103               	clrz
  5131  0232  1803               	skipnc
  5132  0233  3E01               	addlw	1
  5133  0234  1903               	skipnz
  5134  0235  2A37               	goto	u3662
  5135  0236  07C0               	addwf	___flmul@prod+2,f
  5136  0237                     u3662:
  5137  0237  0835               	movf	??___flmul+3,w
  5138  0238  1103               	clrz
  5139  0239  1803               	skipnc
  5140  023A  3E01               	addlw	1
  5141  023B  1903               	skipnz
  5142  023C  2A3E               	goto	u3663
  5143  023D  07C1               	addwf	___flmul@prod+3,f
  5144  023E                     u3663:
  5145  023E  082C               	movf	___flmul@b+2,w
  5146  023F  00B2               	movwf	??___flmul
  5147  0240  0832               	movf	??___flmul,w
  5148  0241  00F3               	movwf	__Umul8_16@multiplicand
  5149  0242  0830               	movf	___flmul@a+2,w
  5150  0243  120A  158A  24AA  120A  118A  	fcall	__Umul8_16
  5151  0248  0874               	movf	?__Umul8_16+1,w
  5152  0249  1283               	bcf	3,5	;RP0=0, select bank0
  5153  024A  1303               	bcf	3,6	;RP1=0, select bank0
  5154  024B  00C3               	movwf	___flmul@temp+1
  5155  024C  0873               	movf	?__Umul8_16,w
  5156  024D  00C2               	movwf	___flmul@temp
  5157  024E                     l2725:
  5158  024E  0842               	movf	___flmul@temp,w
  5159  024F  00B2               	movwf	??___flmul
  5160  0250  0843               	movf	___flmul@temp+1,w
  5161  0251  00B3               	movwf	??___flmul+1
  5162  0252  01B4               	clrf	??___flmul+2
  5163  0253  01B5               	clrf	??___flmul+3
  5164  0254  3008               	movlw	8
  5165  0255                     u3675:
  5166  0255  1003               	clrc
  5167  0256  0DB2               	rlf	??___flmul,f
  5168  0257  0DB3               	rlf	??___flmul+1,f
  5169  0258  0DB4               	rlf	??___flmul+2,f
  5170  0259  0DB5               	rlf	??___flmul+3,f
  5171  025A                     u3670:
  5172  025A  3EFF               	addlw	-1
  5173  025B  1D03               	skipz
  5174  025C  2A55               	goto	u3675
  5175  025D  0832               	movf	??___flmul,w
  5176  025E  07BE               	addwf	___flmul@prod,f
  5177  025F  0833               	movf	??___flmul+1,w
  5178  0260  1103               	clrz
  5179  0261  1803               	skipnc
  5180  0262  3E01               	addlw	1
  5181  0263  1903               	skipnz
  5182  0264  2A66               	goto	u3681
  5183  0265  07BF               	addwf	___flmul@prod+1,f
  5184  0266                     u3681:
  5185  0266  0834               	movf	??___flmul+2,w
  5186  0267  1103               	clrz
  5187  0268  1803               	skipnc
  5188  0269  3E01               	addlw	1
  5189  026A  1903               	skipnz
  5190  026B  2A6D               	goto	u3682
  5191  026C  07C0               	addwf	___flmul@prod+2,f
  5192  026D                     u3682:
  5193  026D  0835               	movf	??___flmul+3,w
  5194  026E  1103               	clrz
  5195  026F  1803               	skipnc
  5196  0270  3E01               	addlw	1
  5197  0271  1903               	skipnz
  5198  0272  2A74               	goto	u3683
  5199  0273  07C1               	addwf	___flmul@prod+3,f
  5200  0274                     u3683:
  5201  0274                     l2727:
  5202  0274  0839               	movf	___flmul@grs,w
  5203  0275  00B2               	movwf	??___flmul
  5204  0276  083A               	movf	___flmul@grs+1,w
  5205  0277  00B3               	movwf	??___flmul+1
  5206  0278  083B               	movf	___flmul@grs+2,w
  5207  0279  00B4               	movwf	??___flmul+2
  5208  027A  083C               	movf	___flmul@grs+3,w
  5209  027B  00B5               	movwf	??___flmul+3
  5210  027C  3018               	movlw	24
  5211  027D                     u3695:
  5212  027D  1003               	clrc
  5213  027E  0CB5               	rrf	??___flmul+3,f
  5214  027F  0CB4               	rrf	??___flmul+2,f
  5215  0280  0CB3               	rrf	??___flmul+1,f
  5216  0281  0CB2               	rrf	??___flmul,f
  5217  0282                     u3690:
  5218  0282  3EFF               	addlw	-1
  5219  0283  1D03               	skipz
  5220  0284  2A7D               	goto	u3695
  5221  0285  0832               	movf	??___flmul,w
  5222  0286  07BE               	addwf	___flmul@prod,f
  5223  0287  0833               	movf	??___flmul+1,w
  5224  0288  1103               	clrz
  5225  0289  1803               	skipnc
  5226  028A  3E01               	addlw	1
  5227  028B  1903               	skipnz
  5228  028C  2A8E               	goto	u3701
  5229  028D  07BF               	addwf	___flmul@prod+1,f
  5230  028E                     u3701:
  5231  028E  0834               	movf	??___flmul+2,w
  5232  028F  1103               	clrz
  5233  0290  1803               	skipnc
  5234  0291  3E01               	addlw	1
  5235  0292  1903               	skipnz
  5236  0293  2A95               	goto	u3702
  5237  0294  07C0               	addwf	___flmul@prod+2,f
  5238  0295                     u3702:
  5239  0295  0835               	movf	??___flmul+3,w
  5240  0296  1103               	clrz
  5241  0297  1803               	skipnc
  5242  0298  3E01               	addlw	1
  5243  0299  1903               	skipnz
  5244  029A  2A9C               	goto	u3703
  5245  029B  07C1               	addwf	___flmul@prod+3,f
  5246  029C                     u3703:
  5247  029C                     l2729:
  5248  029C  3008               	movlw	8
  5249  029D  00B2               	movwf	??___flmul
  5250  029E                     u3715:
  5251  029E  1003               	clrc
  5252  029F  0DB9               	rlf	___flmul@grs,f
  5253  02A0  0DBA               	rlf	___flmul@grs+1,f
  5254  02A1  0DBB               	rlf	___flmul@grs+2,f
  5255  02A2  0DBC               	rlf	___flmul@grs+3,f
  5256  02A3  0BB2               	decfsz	??___flmul,f
  5257  02A4  2A9E               	goto	u3715
  5258  02A5                     l2731:
  5259  02A5  083D               	movf	___flmul@bexp,w
  5260  02A6  0738               	addwf	___flmul@aexp,w
  5261  02A7  00B2               	movwf	??___flmul
  5262  02A8  01B3               	clrf	??___flmul+1
  5263  02A9  0DB3               	rlf	??___flmul+1,f
  5264  02AA  0832               	movf	??___flmul,w
  5265  02AB  3E82               	addlw	130
  5266  02AC  00C2               	movwf	___flmul@temp
  5267  02AD  0833               	movf	??___flmul+1,w
  5268  02AE  1803               	skipnc
  5269  02AF  3E01               	addlw	1
  5270  02B0  3EFF               	addlw	255
  5271  02B1  00C3               	movwf	___flmul@temp+1
  5272  02B2  2AD0               	goto	l2743
  5273  02B3                     l2733:
  5274  02B3  3001               	movlw	1
  5275  02B4  00B2               	movwf	??___flmul
  5276  02B5                     u3725:
  5277  02B5  1003               	clrc
  5278  02B6  0DBE               	rlf	___flmul@prod,f
  5279  02B7  0DBF               	rlf	___flmul@prod+1,f
  5280  02B8  0DC0               	rlf	___flmul@prod+2,f
  5281  02B9  0DC1               	rlf	___flmul@prod+3,f
  5282  02BA  0BB2               	decfsz	??___flmul,f
  5283  02BB  2AB5               	goto	u3725
  5284  02BC                     l2735:
  5285  02BC  1FBC               	btfss	___flmul@grs+3,7
  5286  02BD  2ABF               	goto	u3731
  5287  02BE  2AC0               	goto	u3730
  5288  02BF                     u3731:
  5289  02BF  2AC1               	goto	l2739
  5290  02C0                     u3730:
  5291  02C0                     l2737:
  5292  02C0  143E               	bsf	___flmul@prod,0
  5293  02C1                     l2739:
  5294  02C1  3001               	movlw	1
  5295  02C2  00B2               	movwf	??___flmul
  5296  02C3                     u3745:
  5297  02C3  1003               	clrc
  5298  02C4  0DB9               	rlf	___flmul@grs,f
  5299  02C5  0DBA               	rlf	___flmul@grs+1,f
  5300  02C6  0DBB               	rlf	___flmul@grs+2,f
  5301  02C7  0DBC               	rlf	___flmul@grs+3,f
  5302  02C8  0BB2               	decfsz	??___flmul,f
  5303  02C9  2AC3               	goto	u3745
  5304  02CA                     l2741:
  5305  02CA  30FF               	movlw	255
  5306  02CB  07C2               	addwf	___flmul@temp,f
  5307  02CC  1803               	skipnc
  5308  02CD  0AC3               	incf	___flmul@temp+1,f
  5309  02CE  30FF               	movlw	255
  5310  02CF  07C3               	addwf	___flmul@temp+1,f
  5311  02D0                     l2743:
  5312  02D0  1FC0               	btfss	___flmul@prod+2,7
  5313  02D1  2AD3               	goto	u3751
  5314  02D2  2AD4               	goto	u3750
  5315  02D3                     u3751:
  5316  02D3  2AB3               	goto	l2733
  5317  02D4                     u3750:
  5318  02D4                     l2745:
  5319  02D4  01B8               	clrf	___flmul@aexp
  5320  02D5                     l2747:
  5321  02D5  1FBC               	btfss	___flmul@grs+3,7
  5322  02D6  2AD8               	goto	u3761
  5323  02D7  2AD9               	goto	u3760
  5324  02D8                     u3761:
  5325  02D8  2AF5               	goto	l2755
  5326  02D9                     u3760:
  5327  02D9                     l2749:
  5328  02D9  30FF               	movlw	255
  5329  02DA  0539               	andwf	___flmul@grs,w
  5330  02DB  00B2               	movwf	??___flmul
  5331  02DC  30FF               	movlw	255
  5332  02DD  053A               	andwf	___flmul@grs+1,w
  5333  02DE  00B3               	movwf	??___flmul+1
  5334  02DF  30FF               	movlw	255
  5335  02E0  053B               	andwf	___flmul@grs+2,w
  5336  02E1  00B4               	movwf	??___flmul+2
  5337  02E2  307F               	movlw	127
  5338  02E3  053C               	andwf	___flmul@grs+3,w
  5339  02E4  00B5               	movwf	??___flmul+3
  5340  02E5  0835               	movf	??___flmul+3,w
  5341  02E6  0434               	iorwf	??___flmul+2,w
  5342  02E7  0433               	iorwf	??___flmul+1,w
  5343  02E8  0432               	iorwf	??___flmul,w
  5344  02E9  1903               	skipnz
  5345  02EA  2AEC               	goto	u3771
  5346  02EB  2AED               	goto	u3770
  5347  02EC                     u3771:
  5348  02EC  2AF0               	goto	l674
  5349  02ED                     u3770:
  5350  02ED                     l2751:
  5351  02ED  01B8               	clrf	___flmul@aexp
  5352  02EE  0AB8               	incf	___flmul@aexp,f
  5353  02EF  2AF5               	goto	l2755
  5354  02F0                     l674:
  5355  02F0  1C3E               	btfss	___flmul@prod,0
  5356  02F1  2AF3               	goto	u3781
  5357  02F2  2AF4               	goto	u3780
  5358  02F3                     u3781:
  5359  02F3  2AF5               	goto	l2755
  5360  02F4                     u3780:
  5361  02F4  2AED               	goto	l2751
  5362  02F5                     l2755:
  5363  02F5  0838               	movf	___flmul@aexp,w
  5364  02F6  1903               	btfsc	3,2
  5365  02F7  2AF9               	goto	u3791
  5366  02F8  2AFA               	goto	u3790
  5367  02F9                     u3791:
  5368  02F9  2B2B               	goto	l2765
  5369  02FA                     u3790:
  5370  02FA                     l2757:
  5371  02FA  3001               	movlw	1
  5372  02FB  07BE               	addwf	___flmul@prod,f
  5373  02FC  3000               	movlw	0
  5374  02FD  1803               	skipnc
  5375  02FE  3001               	movlw	1
  5376  02FF  07BF               	addwf	___flmul@prod+1,f
  5377  0300  3000               	movlw	0
  5378  0301  1803               	skipnc
  5379  0302  3001               	movlw	1
  5380  0303  07C0               	addwf	___flmul@prod+2,f
  5381  0304  3000               	movlw	0
  5382  0305  1803               	skipnc
  5383  0306  3001               	movlw	1
  5384  0307  07C1               	addwf	___flmul@prod+3,f
  5385  0308                     l2759:
  5386  0308  1C41               	btfss	___flmul@prod+3,0
  5387  0309  2B0B               	goto	u3801
  5388  030A  2B0C               	goto	u3800
  5389  030B                     u3801:
  5390  030B  2B2B               	goto	l2765
  5391  030C                     u3800:
  5392  030C                     l2761:
  5393  030C  083E               	movf	___flmul@prod,w
  5394  030D  00B2               	movwf	??___flmul
  5395  030E  083F               	movf	___flmul@prod+1,w
  5396  030F  00B3               	movwf	??___flmul+1
  5397  0310  0840               	movf	___flmul@prod+2,w
  5398  0311  00B4               	movwf	??___flmul+2
  5399  0312  0841               	movf	___flmul@prod+3,w
  5400  0313  00B5               	movwf	??___flmul+3
  5401  0314  3001               	movlw	1
  5402  0315  00B6               	movwf	??___flmul+4
  5403  0316                     u3815:
  5404  0316  0D35               	rlf	??___flmul+3,w
  5405  0317  0CB5               	rrf	??___flmul+3,f
  5406  0318  0CB4               	rrf	??___flmul+2,f
  5407  0319  0CB3               	rrf	??___flmul+1,f
  5408  031A  0CB2               	rrf	??___flmul,f
  5409  031B                     u3810:
  5410  031B  0BB6               	decfsz	??___flmul+4,f
  5411  031C  2B16               	goto	u3815
  5412  031D  0835               	movf	??___flmul+3,w
  5413  031E  00C1               	movwf	___flmul@prod+3
  5414  031F  0834               	movf	??___flmul+2,w
  5415  0320  00C0               	movwf	___flmul@prod+2
  5416  0321  0833               	movf	??___flmul+1,w
  5417  0322  00BF               	movwf	___flmul@prod+1
  5418  0323  0832               	movf	??___flmul,w
  5419  0324  00BE               	movwf	___flmul@prod
  5420  0325                     l2763:
  5421  0325  3001               	movlw	1
  5422  0326  07C2               	addwf	___flmul@temp,f
  5423  0327  1803               	skipnc
  5424  0328  0AC3               	incf	___flmul@temp+1,f
  5425  0329  3000               	movlw	0
  5426  032A  07C3               	addwf	___flmul@temp+1,f
  5427  032B                     l2765:
  5428  032B  0843               	movf	___flmul@temp+1,w
  5429  032C  3A80               	xorlw	128
  5430  032D  00FF               	movwf	btemp+1
  5431  032E  3080               	movlw	128
  5432  032F  027F               	subwf	btemp+1,w
  5433  0330  1D03               	skipz
  5434  0331  2B34               	goto	u3825
  5435  0332  30FF               	movlw	255
  5436  0333  0242               	subwf	___flmul@temp,w
  5437  0334                     u3825:
  5438  0334  1C03               	skipc
  5439  0335  2B37               	goto	u3821
  5440  0336  2B38               	goto	u3820
  5441  0337                     u3821:
  5442  0337  2B43               	goto	l2769
  5443  0338                     u3820:
  5444  0338                     l2767:
  5445  0338  307F               	movlw	127
  5446  0339  1283               	bcf	3,5	;RP0=0, select bank0
  5447  033A  1303               	bcf	3,6	;RP1=0, select bank0
  5448  033B  00C1               	movwf	___flmul@prod+3
  5449  033C  3080               	movlw	128
  5450  033D  00C0               	movwf	___flmul@prod+2
  5451  033E  3000               	movlw	0
  5452  033F  00BF               	movwf	___flmul@prod+1
  5453  0340  3000               	movlw	0
  5454  0341  00BE               	movwf	___flmul@prod
  5455  0342  2B78               	goto	l680
  5456  0343                     l2769:
  5457  0343  1283               	bcf	3,5	;RP0=0, select bank0
  5458  0344  1303               	bcf	3,6	;RP1=0, select bank0
  5459  0345  0843               	movf	___flmul@temp+1,w
  5460  0346  3A80               	xorlw	128
  5461  0347  00FF               	movwf	btemp+1
  5462  0348  3080               	movlw	128
  5463  0349  027F               	subwf	btemp+1,w
  5464  034A  1D03               	skipz
  5465  034B  2B4E               	goto	u3835
  5466  034C  3001               	movlw	1
  5467  034D  0242               	subwf	___flmul@temp,w
  5468  034E                     u3835:
  5469  034E  1803               	skipnc
  5470  034F  2B51               	goto	u3831
  5471  0350  2B52               	goto	u3830
  5472  0351                     u3831:
  5473  0351  2B5E               	goto	l2775
  5474  0352                     u3830:
  5475  0352                     l2771:
  5476  0352  3000               	movlw	0
  5477  0353  1283               	bcf	3,5	;RP0=0, select bank0
  5478  0354  1303               	bcf	3,6	;RP1=0, select bank0
  5479  0355  00C1               	movwf	___flmul@prod+3
  5480  0356  3000               	movlw	0
  5481  0357  00C0               	movwf	___flmul@prod+2
  5482  0358  3000               	movlw	0
  5483  0359  00BF               	movwf	___flmul@prod+1
  5484  035A  3000               	movlw	0
  5485  035B  00BE               	movwf	___flmul@prod
  5486  035C                     l2773:
  5487  035C  01B7               	clrf	___flmul@sign
  5488  035D  2B78               	goto	l680
  5489  035E                     l2775:
  5490  035E  1283               	bcf	3,5	;RP0=0, select bank0
  5491  035F  1303               	bcf	3,6	;RP1=0, select bank0
  5492  0360  0842               	movf	___flmul@temp,w
  5493  0361  00B2               	movwf	??___flmul
  5494  0362  0832               	movf	??___flmul,w
  5495  0363  00BD               	movwf	___flmul@bexp
  5496  0364  30FF               	movlw	255
  5497  0365  05BE               	andwf	___flmul@prod,f
  5498  0366  30FF               	movlw	255
  5499  0367  05BF               	andwf	___flmul@prod+1,f
  5500  0368  307F               	movlw	127
  5501  0369  05C0               	andwf	___flmul@prod+2,f
  5502  036A  3000               	movlw	0
  5503  036B  05C1               	andwf	___flmul@prod+3,f
  5504  036C                     l2777:
  5505  036C  1C3D               	btfss	___flmul@bexp,0
  5506  036D  2B6F               	goto	u3841
  5507  036E  2B70               	goto	u3840
  5508  036F                     u3841:
  5509  036F  2B71               	goto	l2781
  5510  0370                     u3840:
  5511  0370                     l2779:
  5512  0370  17C0               	bsf	___flmul@prod+2,7
  5513  0371                     l2781:
  5514  0371  083D               	movf	___flmul@bexp,w
  5515  0372  00B2               	movwf	??___flmul
  5516  0373  1003               	clrc
  5517  0374  0C32               	rrf	??___flmul,w
  5518  0375  00B3               	movwf	??___flmul+1
  5519  0376  0833               	movf	??___flmul+1,w
  5520  0377  00C1               	movwf	___flmul@prod+3
  5521  0378                     l680:
  5522  0378  0837               	movf	___flmul@sign,w
  5523  0379  00B2               	movwf	??___flmul
  5524  037A  0832               	movf	??___flmul,w
  5525  037B  04C1               	iorwf	___flmul@prod+3,f
  5526  037C                     l2783:
  5527  037C  0841               	movf	___flmul@prod+3,w
  5528  037D  00AD               	movwf	?___flmul+3
  5529  037E  0840               	movf	___flmul@prod+2,w
  5530  037F  00AC               	movwf	?___flmul+2
  5531  0380  083F               	movf	___flmul@prod+1,w
  5532  0381  00AB               	movwf	?___flmul+1
  5533  0382  083E               	movf	___flmul@prod,w
  5534  0383  00AA               	movwf	?___flmul
  5535  0384                     l668:
  5536  0384  0008               	return
  5537  0385                     __end_of___flmul:
  5538                           
  5539                           	psect	text22
  5540  0CAA                     __ptext22:	
  5541 ;; *************** function __Umul8_16 *****************
  5542 ;; Defined at:
  5543 ;;		line 4 in file "C:\Program Files\Microchip\xc8\v2.31\pic\sources\c90\common\Umul8_16.c"
  5544 ;; Parameters:    Size  Location     Type
  5545 ;;  multiplier      1    wreg     unsigned char 
  5546 ;;  multiplicand    1    3[COMMON] unsigned char 
  5547 ;; Auto vars:     Size  Location     Type
  5548 ;;  multiplier      1    4[BANK0 ] unsigned char 
  5549 ;;  word_mpld       2    2[BANK0 ] unsigned int 
  5550 ;;  product         2    0[BANK0 ] unsigned int 
  5551 ;; Return value:  Size  Location     Type
  5552 ;;                  2    3[COMMON] unsigned int 
  5553 ;; Registers used:
  5554 ;;		wreg, status,2, status,0
  5555 ;; Tracked objects:
  5556 ;;		On entry : 0/0
  5557 ;;		On exit  : 0/0
  5558 ;;		Unchanged: 0/0
  5559 ;; Data sizes:     COMMON   BANK0   BANK1   BANK3   BANK2
  5560 ;;      Params:         2       0       0       0       0
  5561 ;;      Locals:         0       5       0       0       0
  5562 ;;      Temps:          2       0       0       0       0
  5563 ;;      Totals:         4       5       0       0       0
  5564 ;;Total ram usage:        9 bytes
  5565 ;; Hardware stack levels used:    1
  5566 ;; Hardware stack levels required when called:    1
  5567 ;; This function calls:
  5568 ;;		Nothing
  5569 ;; This function is called by:
  5570 ;;		___flmul
  5571 ;; This function uses a non-reentrant model
  5572 ;;
  5573                           
  5574                           
  5575                           ;psect for function __Umul8_16
  5576  0CAA                     __Umul8_16:
  5577                           
  5578                           ;incstack = 0
  5579                           ; Regs used in __Umul8_16: [wreg+status,2+status,0]
  5580                           ;__Umul8_16@multiplier stored from wreg
  5581  0CAA  1283               	bcf	3,5	;RP0=0, select bank0
  5582  0CAB  1303               	bcf	3,6	;RP1=0, select bank0
  5583  0CAC  00A4               	movwf	__Umul8_16@multiplier
  5584  0CAD                     l2561:
  5585  0CAD  01A0               	clrf	__Umul8_16@product
  5586  0CAE  01A1               	clrf	__Umul8_16@product+1
  5587  0CAF                     l2563:
  5588  0CAF  0873               	movf	__Umul8_16@multiplicand,w
  5589  0CB0  00F5               	movwf	??__Umul8_16
  5590  0CB1  01F6               	clrf	??__Umul8_16+1
  5591  0CB2  0875               	movf	??__Umul8_16,w
  5592  0CB3  00A2               	movwf	__Umul8_16@word_mpld
  5593  0CB4  0876               	movf	??__Umul8_16+1,w
  5594  0CB5  00A3               	movwf	__Umul8_16@word_mpld+1
  5595  0CB6                     l2565:
  5596  0CB6  1C24               	btfss	__Umul8_16@multiplier,0
  5597  0CB7  2CB9               	goto	u3321
  5598  0CB8  2CBA               	goto	u3320
  5599  0CB9                     u3321:
  5600  0CB9  2CC0               	goto	l687
  5601  0CBA                     u3320:
  5602  0CBA                     l2567:
  5603  0CBA  0822               	movf	__Umul8_16@word_mpld,w
  5604  0CBB  07A0               	addwf	__Umul8_16@product,f
  5605  0CBC  1803               	skipnc
  5606  0CBD  0AA1               	incf	__Umul8_16@product+1,f
  5607  0CBE  0823               	movf	__Umul8_16@word_mpld+1,w
  5608  0CBF  07A1               	addwf	__Umul8_16@product+1,f
  5609  0CC0                     l687:
  5610  0CC0  3001               	movlw	1
  5611  0CC1                     u3335:
  5612  0CC1  1003               	clrc
  5613  0CC2  0DA2               	rlf	__Umul8_16@word_mpld,f
  5614  0CC3  0DA3               	rlf	__Umul8_16@word_mpld+1,f
  5615  0CC4  3EFF               	addlw	-1
  5616  0CC5  1D03               	skipz
  5617  0CC6  2CC1               	goto	u3335
  5618  0CC7  1003               	clrc
  5619  0CC8  0CA4               	rrf	__Umul8_16@multiplier,f
  5620  0CC9                     l2569:
  5621  0CC9  0824               	movf	__Umul8_16@multiplier,w
  5622  0CCA  1D03               	btfss	3,2
  5623  0CCB  2CCD               	goto	u3341
  5624  0CCC  2CCE               	goto	u3340
  5625  0CCD                     u3341:
  5626  0CCD  2CB6               	goto	l2565
  5627  0CCE                     u3340:
  5628  0CCE                     l2571:
  5629  0CCE  0821               	movf	__Umul8_16@product+1,w
  5630  0CCF  00F4               	movwf	?__Umul8_16+1
  5631  0CD0  0820               	movf	__Umul8_16@product,w
  5632  0CD1  00F3               	movwf	?__Umul8_16
  5633  0CD2                     l689:
  5634  0CD2  0008               	return
  5635  0CD3                     __end_of__Umul8_16:
  5636                           
  5637                           	psect	text23
  5638  0E51                     __ptext23:	
  5639 ;; *************** function _interrupcion *****************
  5640 ;; Defined at:
  5641 ;;		line 50 in file "main.c"
  5642 ;; Parameters:    Size  Location     Type
  5643 ;;		None
  5644 ;; Auto vars:     Size  Location     Type
  5645 ;;		None
  5646 ;; Return value:  Size  Location     Type
  5647 ;;                  1    wreg      void 
  5648 ;; Registers used:
  5649 ;;		wreg, status,2, status,0
  5650 ;; Tracked objects:
  5651 ;;		On entry : 0/0
  5652 ;;		On exit  : 0/0
  5653 ;;		Unchanged: 0/0
  5654 ;; Data sizes:     COMMON   BANK0   BANK1   BANK3   BANK2
  5655 ;;      Params:         0       0       0       0       0
  5656 ;;      Locals:         0       0       0       0       0
  5657 ;;      Temps:          3       0       0       0       0
  5658 ;;      Totals:         3       0       0       0       0
  5659 ;;Total ram usage:        3 bytes
  5660 ;; Hardware stack levels used:    1
  5661 ;; This function calls:
  5662 ;;		Nothing
  5663 ;; This function is called by:
  5664 ;;		Interrupt level 1
  5665 ;; This function uses a non-reentrant model
  5666 ;;
  5667                           
  5668                           
  5669                           ;psect for function _interrupcion
  5670  0E51                     _interrupcion:
  5671  0E51                     i1l2235:
  5672                           
  5673                           ;main.c: 52:     if(PIR1bits.RCIF){
  5674  0E51  1283               	bcf	3,5	;RP0=0, select bank0
  5675  0E52  1303               	bcf	3,6	;RP1=0, select bank0
  5676  0E53  1E8C               	btfss	12,5	;volatile
  5677  0E54  2E56               	goto	u265_21
  5678  0E55  2E57               	goto	u265_20
  5679  0E56                     u265_21:
  5680  0E56  2E6E               	goto	i1l2247
  5681  0E57                     u265_20:
  5682  0E57                     i1l2237:
  5683                           
  5684                           ;main.c: 53:         UARTdat = RCREG;
  5685  0E57  081A               	movf	26,w	;volatile
  5686  0E58  00F0               	movwf	??_interrupcion
  5687  0E59  0870               	movf	??_interrupcion,w
  5688  0E5A  00FA               	movwf	_UARTdat
  5689  0E5B                     i1l2239:
  5690                           
  5691                           ;main.c: 54:         if(UARTdat == 0X2B)UARTval++;
  5692  0E5B  302B               	movlw	43
  5693  0E5C  067A               	xorwf	_UARTdat,w
  5694  0E5D  1D03               	btfss	3,2
  5695  0E5E  2E60               	goto	u266_21
  5696  0E5F  2E61               	goto	u266_20
  5697  0E60                     u266_21:
  5698  0E60  2E65               	goto	i1l82
  5699  0E61                     u266_20:
  5700  0E61                     i1l2241:
  5701  0E61  3001               	movlw	1
  5702  0E62  00F0               	movwf	??_interrupcion
  5703  0E63  0870               	movf	??_interrupcion,w
  5704  0E64  07E2               	addwf	_UARTval,f
  5705  0E65                     i1l82:
  5706                           
  5707                           ;main.c: 55:         if(UARTdat == 0X2D)UARTval--;
  5708  0E65  302D               	movlw	45
  5709  0E66  067A               	xorwf	_UARTdat,w
  5710  0E67  1D03               	btfss	3,2
  5711  0E68  2E6A               	goto	u267_21
  5712  0E69  2E6B               	goto	u267_20
  5713  0E6A                     u267_21:
  5714  0E6A  2E6D               	goto	i1l2245
  5715  0E6B                     u267_20:
  5716  0E6B                     i1l2243:
  5717  0E6B  3001               	movlw	1
  5718  0E6C  02E2               	subwf	_UARTval,f
  5719  0E6D                     i1l2245:
  5720                           
  5721                           ;main.c: 56:         PIR1bits.RCIF = 0;
  5722  0E6D  128C               	bcf	12,5	;volatile
  5723  0E6E                     i1l2247:
  5724                           
  5725                           ;main.c: 59:     if(PIR1bits.ADIF){
  5726  0E6E  1F0C               	btfss	12,6	;volatile
  5727  0E6F  2E71               	goto	u268_21
  5728  0E70  2E72               	goto	u268_20
  5729  0E71                     u268_21:
  5730  0E71  2E8D               	goto	i1l2259
  5731  0E72                     u268_20:
  5732  0E72                     i1l2249:
  5733                           
  5734                           ;main.c: 60:         ADCON0bits.CHS0 = ~ADCON0bits.CHS0;
  5735  0E72  1003               	clrc
  5736  0E73  1D1F               	btfss	31,2	;volatile
  5737  0E74  1403               	setc
  5738  0E75  1803               	btfsc	3,0
  5739  0E76  2E78               	goto	u269_21
  5740  0E77  2E7C               	goto	u269_20
  5741  0E78                     u269_21:
  5742  0E78  1283               	bcf	3,5	;RP0=0, select bank0
  5743  0E79  1303               	bcf	3,6	;RP1=0, select bank0
  5744  0E7A  151F               	bsf	31,2	;volatile
  5745  0E7B  2E7F               	goto	u270_24
  5746  0E7C                     u269_20:
  5747  0E7C  1283               	bcf	3,5	;RP0=0, select bank0
  5748  0E7D  1303               	bcf	3,6	;RP1=0, select bank0
  5749  0E7E  111F               	bcf	31,2	;volatile
  5750  0E7F                     u270_24:
  5751  0E7F                     i1l2251:
  5752                           
  5753                           ;main.c: 61:         PIR1bits.ADIF = 0;
  5754  0E7F  130C               	bcf	12,6	;volatile
  5755  0E80                     i1l2253:
  5756                           
  5757                           ;main.c: 62:         if(ADCON0bits.CHS0)pot1 = ADRESH;
  5758  0E80  1D1F               	btfss	31,2	;volatile
  5759  0E81  2E83               	goto	u271_21
  5760  0E82  2E84               	goto	u271_20
  5761  0E83                     u271_21:
  5762  0E83  2E89               	goto	i1l2257
  5763  0E84                     u271_20:
  5764  0E84                     i1l2255:
  5765  0E84  081E               	movf	30,w	;volatile
  5766  0E85  00F0               	movwf	??_interrupcion
  5767  0E86  0870               	movf	??_interrupcion,w
  5768  0E87  00EC               	movwf	_pot1
  5769  0E88  2E8D               	goto	i1l2259
  5770  0E89                     i1l2257:
  5771  0E89  081E               	movf	30,w	;volatile
  5772  0E8A  00F0               	movwf	??_interrupcion
  5773  0E8B  0870               	movf	??_interrupcion,w
  5774  0E8C  00EB               	movwf	_pot2
  5775  0E8D                     i1l2259:
  5776                           
  5777                           ;main.c: 66:     if(INTCONbits.T0IF){
  5778  0E8D  1D0B               	btfss	11,2	;volatile
  5779  0E8E  2E90               	goto	u272_21
  5780  0E8F  2E91               	goto	u272_20
  5781  0E90                     u272_21:
  5782  0E90  2E97               	goto	i1l89
  5783  0E91                     u272_20:
  5784  0E91                     i1l2261:
  5785                           
  5786                           ;main.c: 67:         if(!ADCON0bits.GO)ADCON0bits.GO = 1;
  5787  0E91  189F               	btfsc	31,1	;volatile
  5788  0E92  2E94               	goto	u273_21
  5789  0E93  2E95               	goto	u273_20
  5790  0E94                     u273_21:
  5791  0E94  2E96               	goto	i1l88
  5792  0E95                     u273_20:
  5793  0E95                     i1l2263:
  5794  0E95  149F               	bsf	31,1	;volatile
  5795  0E96                     i1l88:
  5796                           
  5797                           ;main.c: 68:         INTCONbits.T0IF = 0;
  5798  0E96  110B               	bcf	11,2	;volatile
  5799  0E97                     i1l89:
  5800  0E97  0872               	movf	??_interrupcion+2,w
  5801  0E98  008A               	movwf	10
  5802  0E99  0E71               	swapf	??_interrupcion+1,w
  5803  0E9A  0083               	movwf	3
  5804  0E9B  0EFE               	swapf	btemp,f
  5805  0E9C  0E7E               	swapf	btemp,w
  5806  0E9D  0009               	retfie
  5807  0E9E                     __end_of_interrupcion:
  5808  007E                     btemp	set	126	;btemp
  5809  007E                     wtemp0	set	126
  5810                           
  5811                           	psect	intentry
  5812  0004                     __pintentry:	
  5813                           ;incstack = 0
  5814                           ; Regs used in _interrupcion: [wreg+status,2+status,0]
  5815                           
  5816  0004                     interrupt_function:
  5817  007E                     saved_w	set	btemp
  5818  0004  00FE               	movwf	btemp
  5819  0005  0E03               	swapf	3,w
  5820  0006  00F1               	movwf	??_interrupcion+1
  5821  0007  080A               	movf	10,w
  5822  0008  00F2               	movwf	??_interrupcion+2
  5823  0009  120A  158A  2E51   	ljmp	_interrupcion
  5824                           
  5825                           	psect	config
  5826                           
  5827                           ;Config register CONFIG1 @ 0x2007
  5828                           ;	Oscillator Selection bits
  5829                           ;	FOSC = INTRC_NOCLKOUT, INTOSCIO oscillator: I/O function on RA6/OSC2/CLKOUT pin, I/O f
      +                          unction on RA7/OSC1/CLKIN
  5830                           ;	Watchdog Timer Enable bit
  5831                           ;	WDTE = OFF, WDT disabled and can be enabled by SWDTEN bit of the WDTCON register
  5832                           ;	Power-up Timer Enable bit
  5833                           ;	PWRTE = OFF, PWRT disabled
  5834                           ;	RE3/MCLR pin function select bit
  5835                           ;	MCLRE = ON, RE3/MCLR pin function is MCLR
  5836                           ;	Code Protection bit
  5837                           ;	CP = OFF, Program memory code protection is disabled
  5838                           ;	Data Code Protection bit
  5839                           ;	CPD = OFF, Data memory code protection is disabled
  5840                           ;	Brown Out Reset Selection bits
  5841                           ;	BOREN = OFF, BOR disabled
  5842                           ;	Internal External Switchover bit
  5843                           ;	IESO = OFF, Internal/External Switchover mode is disabled
  5844                           ;	Fail-Safe Clock Monitor Enabled bit
  5845                           ;	FCMEN = OFF, Fail-Safe Clock Monitor is disabled
  5846                           ;	Low Voltage Programming Enable bit
  5847                           ;	LVP = OFF, RB3 pin has digital I/O, HV on MCLR must be used for programming
  5848                           ;	In-Circuit Debugger Mode bit
  5849                           ;	DEBUG = 0x1, unprogrammed default
  5850  2007                     	org	8199
  5851  2007  20F4               	dw	8436
  5852                           
  5853                           ;Config register CONFIG2 @ 0x2008
  5854                           ;	Brown-out Reset Selection bit
  5855                           ;	BOR4V = BOR40V, Brown-out Reset set to 4.0V
  5856                           ;	Flash Program Memory Self Write Enable bits
  5857                           ;	WRT = OFF, Write protection off
  5858  2008                     	org	8200
  5859  2008  3FFF               	dw	16383

Data Sizes:
    Strings     34
    Constant    0
    Data        0
    BSS         15
    Persistent  0
    Stack       0

Auto Spaces:
    Space          Size  Autos    Used
    COMMON           14     10      11
    BANK0            80     63      77
    BANK1            80      0       0
    BANK3            96      0       0
    BANK2            96      0       0

Pointer List with Targets:

    divisiondecimal@cent	PTR unsigned char  size(1) Largest target is 1
		 -> sendhex@centena(BANK0[1]), 

    divisiondecimal@dec	PTR unsigned char  size(1) Largest target is 1
		 -> sendhex@decena(BANK0[1]), 

    divisiondecimal@un	PTR unsigned char  size(1) Largest target is 1
		 -> sendhex@unidad(BANK0[1]), 

    division@dec	PTR unsigned char  size(1) Largest target is 1
		 -> sendfloat@digdecimal(BANK0[1]), 

    division@un	PTR unsigned char  size(1) Largest target is 1
		 -> sendfloat@digdecimal(BANK0[1]), 

    sendString@mensaje	PTR unsigned char  size(1) Largest target is 8
		 -> STR_7(CODE[2]), STR_6(CODE[2]), STR_4(CODE[6]), STR_3(CODE[8]), 
		 -> STR_2(CODE[8]), STR_1(CODE[8]), 

    CONVdec@lectura	PTR unsigned char  size(1) Largest target is 1
		 -> pot2(BANK0[1]), pot1(BANK0[1]), 

    CONVdec@equiv	PTR float  size(1) Largest target is 4
		 -> val2(BANK0[4]), val1(BANK0[4]), 


Critical Paths under _main in COMMON

    _sendhex->_divisiondecimal
    _divisiondecimal->___awdiv
    _sendfloat->_division
    _sendString->_send1dato
    _division->___awdiv
    ___flsub->___fladd
    ___flsub->___xxtofl
    _initLCD->_comandoLCD
    _configuracion->_ADCconfig
    _CONVdec->___xxtofl
    ___flmul->__Umul8_16
    ___flmul->___xxtofl

Critical Paths under _interrupcion in COMMON

    None.

Critical Paths under _main in BANK0

    _main->_sendfloat
    _sendhex->_divisiondecimal
    _divisiondecimal->___awdiv
    _sendfloat->___fltol
    _division->___awdiv
    ___fltol->___flmul
    ___flsub->___fladd
    _CONVdec->___flmul
    ___flmul->___xxtofl

Critical Paths under _interrupcion in BANK0

    None.

Critical Paths under _main in BANK1

    None.

Critical Paths under _interrupcion in BANK1

    None.

Critical Paths under _main in BANK3

    None.

Critical Paths under _interrupcion in BANK3

    None.

Critical Paths under _main in BANK2

    None.

Critical Paths under _interrupcion in BANK2

    None.

Call Graph Tables:

 ---------------------------------------------------------------------------------
 (Depth) Function   	        Calls       Base Space   Used Autos Params    Refs
 ---------------------------------------------------------------------------------
 (0) _main                                                 3     3      0   18177
                                             60 BANK0      3     3      0
                            _CONVdec
                      _configuracion
                          _cursorLCD
                           _dispCHAR
                            _initLCD
                         _sendString
                          _sendfloat
                            _sendhex
 ---------------------------------------------------------------------------------
 (1) _sendhex                                              7     7      0    2447
                                             10 BANK0      7     7      0
                    _divisiondecimal
                          _send1dato
 ---------------------------------------------------------------------------------
 (2) _divisiondecimal                                      8     5      3    2166
                                              8 COMMON     2     2      0
                                              4 BANK0      6     3      3
                            ___awdiv
                             ___bmul
 ---------------------------------------------------------------------------------
 (1) _sendfloat                                           15    11      4   10776
                                             45 BANK0     15    11      4
                            ___flmul
                            ___flsub
                            ___fltol
                           ___xxtofl
                           _division
                          _send1dato
                         _sendString
 ---------------------------------------------------------------------------------
 (2) _sendString                                           2     2      0     265
                                              4 COMMON     2     2      0
                          _send1dato
 ---------------------------------------------------------------------------------
 (2) _send1dato                                            1     1      0      22
                                              3 COMMON     1     1      0
 ---------------------------------------------------------------------------------
 (2) _division                                             7     5      2    1887
                                              8 COMMON     2     0      2
                                              4 BANK0      5     5      0
                            ___awdiv
                             ___bmul
 ---------------------------------------------------------------------------------
 (3) ___bmul                                               4     3      1     406
                                              3 COMMON     4     3      1
 ---------------------------------------------------------------------------------
 (3) ___awdiv                                              9     5      4     985
                                              3 COMMON     5     1      4
                                              0 BANK0      4     4      0
 ---------------------------------------------------------------------------------
 (2) ___fltol                                             11     7      4     517
                                              7 COMMON     2     2      0
                                             36 BANK0      9     5      4
                            ___flmul (ARG)
 ---------------------------------------------------------------------------------
 (2) ___flsub                                              8     0      8    3367
                                             16 BANK0      8     0      8
                            ___fladd
                           ___xxtofl (ARG)
 ---------------------------------------------------------------------------------
 (3) ___fladd                                             20    12      8    3122
                                              3 COMMON     4     4      0
                                              0 BANK0     16     8      8
 ---------------------------------------------------------------------------------
 (1) _initLCD                                              2     2      0      22
                                              6 COMMON     2     2      0
                         _comandoLCD
 ---------------------------------------------------------------------------------
 (2) _comandoLCD                                           3     3      0      22
                                              3 COMMON     3     3      0
 ---------------------------------------------------------------------------------
 (1) _dispCHAR                                             3     3      0      22
                                              3 COMMON     3     3      0
 ---------------------------------------------------------------------------------
 (1) _cursorLCD                                            3     3      0      22
                                              3 COMMON     3     3      0
 ---------------------------------------------------------------------------------
 (1) _configuracion                                        0     0      0     120
                          _ADCconfig
                         _configUART
 ---------------------------------------------------------------------------------
 (2) _configUART                                           0     0      0       0
 ---------------------------------------------------------------------------------
 (2) _ADCconfig                                            4     3      1     120
                                              3 COMMON     4     3      1
 ---------------------------------------------------------------------------------
 (1) _CONVdec                                              6     5      1    4503
                                              7 COMMON     1     1      0
                                             36 BANK0      5     4      1
                            ___flmul
                           ___xxtofl
 ---------------------------------------------------------------------------------
 (2) ___xxtofl                                            14    10      4     656
                                              3 COMMON     4     0      4
                                              0 BANK0     10    10      0
 ---------------------------------------------------------------------------------
 (2) ___flmul                                             26    18      8    3533
                                             10 BANK0     26    18      8
                          __Umul8_16
                           ___xxtofl (ARG)
 ---------------------------------------------------------------------------------
 (3) __Umul8_16                                            9     7      2     980
                                              3 COMMON     4     2      2
                                              0 BANK0      5     5      0
 ---------------------------------------------------------------------------------
 Estimated maximum stack depth 3
 ---------------------------------------------------------------------------------
 (Depth) Function   	        Calls       Base Space   Used Autos Params    Refs
 ---------------------------------------------------------------------------------
 (4) _interrupcion                                         3     3      0       0
                                              0 COMMON     3     3      0
 ---------------------------------------------------------------------------------
 Estimated maximum stack depth 4
 ---------------------------------------------------------------------------------

 Call Graph Graphs:

 _main (ROOT)
   _CONVdec
     ___flmul
       __Umul8_16
       ___xxtofl (ARG)
     ___xxtofl
   _configuracion
     _ADCconfig
     _configUART
   _cursorLCD
   _dispCHAR
   _initLCD
     _comandoLCD
   _sendString
     _send1dato
   _sendfloat
     ___flmul
       __Umul8_16
       ___xxtofl (ARG)
     ___flsub
       ___fladd
       ___xxtofl (ARG)
     ___fltol
       ___flmul (ARG)
         __Umul8_16
         ___xxtofl (ARG)
     ___xxtofl
     _division
       ___awdiv
       ___bmul
     _send1dato
     _sendString
       _send1dato
   _sendhex
     _divisiondecimal
       ___awdiv
       ___bmul
     _send1dato

 _interrupcion (ROOT)

 Address spaces:
Name               Size   Autos  Total    Cost      Usage
BITCOMMON            E      0       0       0        0.0%
EEDATA             100      0       0       0        0.0%
NULL                 0      0       0       0        0.0%
CODE                 0      0       0       0        0.0%
COMMON               E      A       B       1       78.6%
BITSFR0              0      0       0       1        0.0%
SFR0                 0      0       0       1        0.0%
BITSFR1              0      0       0       2        0.0%
SFR1                 0      0       0       2        0.0%
STACK                0      0       0       2        0.0%
ABS                  0      0      58       3        0.0%
BITBANK0            50      0       0       4        0.0%
BITSFR3              0      0       0       4        0.0%
SFR3                 0      0       0       4        0.0%
BANK0               50     3F      4D       5       96.2%
BITSFR2              0      0       0       5        0.0%
SFR2                 0      0       0       5        0.0%
BITBANK1            50      0       0       6        0.0%
BANK1               50      0       0       7        0.0%
BITBANK3            60      0       0       8        0.0%
BANK3               60      0       0       9        0.0%
BITBANK2            60      0       0      10        0.0%
BANK2               60      0       0      11        0.0%
DATA                 0      0      58      12        0.0%


Microchip Technology PIC Macro Assembler V2.31 build 20201012212115 
Symbol Table                                                                                   Fri Jul 23 10:14:50 2021

                       pc 0002            ___bmul@product 0075              ___awdiv@sign 0021  
          ?_configuracion 0070                        fsr 0004       __Umul8_16@word_mpld 0022  
                     l100 0D39                       l121 0D7A                       l115 0DBF  
                     l141 0BFD                       l150 0C85                       l144 0C03  
                     l305 0C66                       l153 0779                       l138 0C15  
                     l162 0E07                       l171 0FFF                       l156 0D03  
                     l190 0C29                       l184 0E50                       l432 0F06  
                     l193 0C51                       l187 0C3D                       l603 05A8  
                     l614 0608                       l606 05E6                       l615 0614  
                     l712 0639                       l472 0F6D                       l465 0F82  
                     l714 06D0                       l618 0CA9                       l475 0F82  
                     l572 03E8                       l725 069A                       l726 06A6  
                     l718 067E                       l680 0378                       l576 0491  
                     l593 0562                       l585 0614                       l674 02F0  
                     l578 0466                       l668 0384                       l597 0586  
                     l687 0CC0                       l689 0CD2        __size_of_ADCconfig 0045  
                     _RC0 0038                       _RC1 0039                       fsr0 0004  
                     indf 0000              ___flmul@aexp 0038              ___flmul@bexp 003D  
            ___flmul@sign 0037              ___flmul@temp 0042              ___flmul@prod 003E  
         __end_of_CONVdec 0D7B              ___fltol@exp1 0078                      l2141 0D1D  
                    l2133 0D04                      l2221 0C1A                      l2151 0D25  
                    l2143 0D21                      l2135 0D08                      l2223 0C1C  
                    l2231 0C30                      l2311 0C54                      l2161 0D2A  
                    l2153 0D26                      l2145 0D22                      l2137 0D09  
                    l2225 0C26                      l2233 0C3A                      l2401 03D0  
                    l2313 0C58                      l2163 0D2B                      l2155 0D27  
                    l2147 0D23                      l2139 0D18                      l2219 0C17  
                    l2227 0C2B                      l2171 0E08                      l2411 03EE  
                    l2403 03D5                      l2331 0EAC                      l2323 0E9E  
                    l2315 0C5C                      l2165 0D2C                      l2157 0D28  
                    l2149 0D24                      l2229 0C2E                      l2181 0E24  
                    l2173 0E0B                      l2501 056A                      l2421 0402  
                    l2413 03F2                      l2405 03DD                      l2341 0EC1  
                    l2333 0EB0                      l2325 0EA1                      l2317 0C5E  
                    l2309 0C53                      l2167 0D33                      l2159 0D29  
                    l2191 0E44                      l2183 0E2A                      l2175 0E0C  
                    l2511 0585                      l2503 056F                      l2431 0416  
                    l2423 0406                      l2415 03F6                      l2407 03DE  
                    l2351 0EE4                      l2343 0EC4                      l2335 0EB5  
                    l2327 0EA5                      l2319 0C65                      l2169 0D36  
                    l2193 0E4A                      l2185 0E32                      l2177 0E15  
                    l2513 058A                      l2521 0596                      l2441 042A  
                    l2433 041A                      l2425 040A                      l2417 03FA  
                    l2409 03E0                      l2361 0EFD                      l2353 0EEA  
                    l2345 0ECB                      l2337 0EB9                      l2329 0EAA  
                    l2601 0FF2                      l2187 0E38                      l2179 0E1B  
                    l2515 058D                      l2507 0578                      l2523 059A  
                    l2451 046A                      l2443 042E                      l2435 041E  
                    l2427 040E                      l2419 03FE                      l2371 0392  
                    l2611 0F1D                      l2363 0F02                      l2355 0EEB  
                    l2347 0ECF                      l2339 0EBB                      l2603 0FF8  
                    l2701 0113                      l1901 0C42                      l2189 0E3E  
                    l2541 05E2                      l2533 05AD                      l2525 059B  
                    l2517 058F                      l2509 0581                      l2461 0487  
                    l2453 0475                      l2437 0422                      l2429 0412  
                    l2445 0432                      l2381 03A9                      l2373 0396  
                    l2621 0F41                      l2613 0F32                      l2605 0F07  
                    l2357 0EF2                      l2349 0ED3                      l1549 0BF9  
                    l1821 0C75                      l2711 0181                      l2703 012F  
                    l1831 0C0B                      l1903 0C44                      l2551 05FE  
                    l2543 05EB                      l2535 05B2                      l2527 059F  
                    l2519 0594                      l2471 04A5                      l2455 0477  
                    l2463 048B                      l2447 0433                      l2439 0426  
                    l2391 03BF                      l2383 03AA                      l2375 0397  
                    l2367 0385                      l2615 0F33                      l2607 0F14  
                    l2359 0EF8                      l1823 0C79                      l2561 0CAD  
                    l2721 0211                      l2713 0191                      l2705 014B  
                    l2801 064F                      l1841 0D7D                      l1833 0C0C  
                    l1825 0C04                      l1905 0C4E                      l2553 0602  
                    l2545 05F0                      l2537 05C0                      l2529 05A5  
                    l2481 04D1                      l2473 04BE                      l2465 0495  
                    l2457 047D                      l2449 044A                      l2393 03C0  
                    l2377 039C                      l2385 03AC                      l2369 038C  
                    l2641 0C86                      l2617 0F3B                      l1817 0C68  
                    l2571 0CCE                      l2563 0CAF                      l2731 02A5  
                    l2723 0221                      l2715 01AE                      l2707 0154  
                    l2651 0031                      l2811 0685                      l2803 065C  
                    l1843 0D82                      l1851 0D95                      l1835 0C0F  
                    l1827 0C08                      l2555 0604                      l2547 05F8  
                    l2539 05C4                      l2491 04FC                      l2483 04D5  
                    l2475 04C2                      l2467 049A                      l2459 047E  
                    l2395 03C6                      l2387 03B4                      l2379 03A1  
                    l2643 0C8A                      l2635 0F62                      l2627 0F49  
                    l2619 0F3D                      l1819 0C69                      l2565 0CB6  
                    l2741 02CA                      l2733 02B3                      l2725 024E  
                    l2717 01C7                      l2709 0164                      l2661 0048  
                    l2653 0035                      l2821 06BE                      l2813 0690  
                    l2805 0663                      l1861 0DBD                      l1845 0D89  
                    l1853 0DAB                      l1837 0C12                      l1829 0C0A  
                    l2557 060F                      l2549 05FD                      l2493 053A  
                    l2485 04D6                      l2477 04C6                      l2397 03CA  
                    l2389 03B9                      l2637 0F72                      l2629 0F5B  
                    l2581 0DCF                      l2567 0CBA                      l2751 02ED  
                    l2735 02BC                      l2743 02D0                      l2727 0274  
                    l2719 01E4                      l2671 0061                      l2663 004A  
                    l2655 0036                      l2647 0024                      l2823 06C3  
                    l2815 0694                      l2807 0667                      l2831 0D3B  
                    l1863 0DBE                      l1855 0DB4                      l1847 0D90  
                    l1839 0D7C                      l2559 0613                      l2495 0540  
                    l2487 04DF                      l2479 04CF                      l2399 03CB  
                    l2639 0F77                      l2583 0DFA                      l2575 0DC3  
                    l2591 0F8E                      l2569 0CC9                      l2761 030C  
                    l2745 02D4                      l2737 02C0                      l2729 029C  
                    l2681 0076                      l2673 0062                      l2665 0052  
                    l2657 003B                      l2649 002B                      l2825 06C7  
                    l2817 069E                      l2809 0675                      l1857 0DB5  
                    l2497 0545                      l2489 04E4                      l2585 0E00  
                    l2577 0DC7                      l2841 0752                      l2833 06D1  
                    l2593 0F91                      l2771 0352                      l2763 0325  
                    l2755 02F5                      l2747 02D5                      l2739 02C1  
                    l2691 0091                      l2683 007E                      l2675 0067  
                    l2667 0057                      l2659 0040                      l2827 06C8  
                    l2819 06A8                      l1859 0DB6                      l2499 0554  
                    l2579 0DCB                      l2843 0761                      l2835 06E6  
                    l2595 0F95                      l2587 0F84                      l2851 0CF1  
                    l2781 0371                      l2773 035C                      l2757 02FA  
                    l2765 032B                      l2749 02D9                      l2693 00A1  
                    l2685 0083                      l2677 006C                      l2669 005D  
                    l2845 076A                      l2837 071A                      l2597 0FC0  
                    l2589 0F8A                      l2853 0CFA                      l2861 078A  
                    l2783 037C                      l2775 035E                      l2767 0338  
                    l2759 0308                      l2695 00AE                      l2687 0088  
                    l2679 0074                      l2791 0621                      l2839 0744  
                    l2599 0FC7                      l2847 0CD6                      l2871 07C6  
                    l2863 0796                      l2855 077A                      l2777 036C  
                    l2769 0343                      l2697 00CB                      l2793 0631  
                    l2849 0CE8                      l2873 07CC                      l2865 07A5  
                    l2857 077F                      l2779 0370                      l2699 00E7  
                    l2795 0641                      l2787 0618                      l1899 0C3F  
                    l2875 07D4                      l2867 07AB                      l2859 0784  
                    l2789 061D                      l2877 07E6                      l2869 07B7  
                    l2799 064A                      l2899 0DA0                      STR_1 0806  
                    STR_2 080E                      STR_3 0816                      STR_4 081E  
                    STR_5 0826                      STR_6 0824                      STR_7 0822  
                    u2000 0C85                      u2001 0C84                      u3010 0491  
                    u3011 0490                      u3020 0495                      u3101 0513  
                    u3021 0494                      u3005 0480                      u3110 0527  
                    u3102 0514                      u3030 049A                      u3111 0528  
                    u3103 0519                      u3031 0499                      u3200 059F  
                    u3120 0545                      u3112 052D                      u3104 051A  
                    u3201 059E                      u3121 0544                      u3113 052E  
                    u3105 051F                      u3041 04B0                      u3210 05A5  
                    u3130 056A                      u3106 0520                      u3050 04C2  
                    u3042 04B7                      u3211 05A4                      u3131 0569  
                    u3051 04C1                      u3043 04BE                      u3300 0602  
                    u3220 05AC                      u3140 056F                      u3060 04C6  
                    u1380 0C03                      u3301 0601                      u3221 05AB  
                    u3141 056E                      u3061 04C5                      u1381 0C02  
                    u3310 0613                      u3230 05B2                      u3070 04D5  
                    u4007 0E10                      u3311 0612                      u3231 05B1  
                    u3071 04D4                      u3320 0CBA                      u3240 05C4  
                    u3160 0585                      u3400 0F41                      u3321 0CB9  
                    u4017 0E1F                      u3241 05C3                      u3161 0584  
                    u3401 0F40                      u3250 05D3                      u3170 058A  
                    u3090 04FC                      u3410 0F48                      u4027 0E2E  
                    u3171 0589                      u3155 057A                      u3091 04FB  
                    u3411 0F47                      u3340 0CCE                      u3500 0040  
                    u3260 05E2                      u3180 0594                      u3341 0CCD  
                    u3501 003F                      u4037 0C49                      u3261 05E1  
                    u3181 0593                      u3093 04F8                      u3085 04D8  
                    u3510 0061                      u3270 05EB                      u3190 059A  
                    u3430 0F5A                      u3350 0E00                      u3335 0CC1  
                    u3511 0060                      u4047 0C35                      u3271 05EA  
                    u3255 05CE                      u3191 0599                      u3431 0F59  
                    u3351 0DFF                      u3520 0067                      u3280 05F0  
                    u3440 0F61                      u2800 0ED3                      u3360 0FC6  
                    u3521 0066                      u4057 0C21                      u3281 05EF  
                    u3441 0F60                      u3425 0F4A                      u2801 0ED2  
                    u3361 0FC5                      u3530 006C                      u3290 05FD  
                    u3370 0FF8                      u3611 0173                      u3531 006B  
                    u3291 05FC                      u3371 0FF7                      u3612 017A  
                    u3540 0083                      u2900 03CA                      u3460 0F72  
                    u3380 0F14                      u2820 0EE4                      u2740 0C58  
                    u3701 028E                      u3621 01A0                      u3613 0181  
                    u3605 014D                      u3541 0082                      u2901 03C9  
                    u3461 0F71                      u3381 0F13                      u2821 0EE3  
                    u2741 0C57                      u3702 0295                      u3622 01A7  
                    u3550 0088                      u2910 03D0                      u3470 0F77  
                    u3390 0F2B                      u2750 0C65                      u3703 029C  
                    u3623 01AE                      u3551 0087                      u2911 03CF  
                    u3471 0F76                      u3455 0F64                      u2815 0ED4  
                    u2751 0C64                      u3800 030C                      u3480 0035  
                    u2920 03D5                      u2840 0EF8                      u2760 0EA5  
                    u3801 030B                      u3641 01D6                      u3561 00D9  
                    u3481 0034                      u2921 03D4                      u2841 0EF7  
                    u2825 0EE0                      u2761 0EA4                      u3810 031B  
                    u3730 02C0                      u3642 01DD                      u3562 00E0  
                    u3490 003B                      u2930 03EE                      u2850 0EFD  
                    u2770 0EB0                      u3731 02BF                      u3715 029E  
                    u3651 0203                      u3643 01E4                      u3635 01B0  
                    u3571 00F5                      u3563 00E7                      u3491 003A  
                    u2931 03ED                      u3395 0F26                      u2851 0EFC  
                    u2835 0EEC                      u2771 0EAF                      u3820 0338  
                    u3652 020A                      u3572 00FC                      u2940 03F2  
                    u2860 0396                      u2780 0EC1                      u3821 0337  
                    u3725 02B5                      u3661 0230                      u3653 0211  
                    u3581 0121                      u3573 0103                      u2941 03F1  
                    u2861 0395                      u2781 0EC0                      u3830 0352  
                    u3750 02D4                      u3670 025A                      u3662 0237  
                    u3582 0128                      u3910 0684                      u2950 044A  
                    u2870 039C                      u3831 0351                      u3815 0316  
                    u3751 02D3                      u3663 023E                      u3591 013D  
                    u3583 012F                      u3911 0683                      u2951 0449  
                    u2871 039B                      u3840 0370                      u3760 02D9  
                    u3592 0144                      u2960 0455                      u2880 03A1  
                    u3841 036F                      u3825 0334                      u3761 02D8  
                    u3745 02C3                      u3681 0266                      u3593 014B  
                    u3905 0676                      u2961 0453                      u2881 03A0  
                    u3770 02ED                      u3690 0282                      u3682 026D  
                    u3930 0694                      u3850 061D                      u2970 0456  
                    u2890 03BF                      u3835 034E                      u3771 02EC  
                    u3683 0274                      u3675 0255                      u3931 0693  
                    u3851 061C                      u2955 0446                      u2891 03BE  
                    u2795 0EC5                      u3780 02F4                      u3940 069A  
                    u3860 0621                      u2980 046A                      u3781 02F3  
                    u3941 0699                      u3925 0689                      u3861 0620  
                    u2981 0469                      u3790 02FA                      u3950 069E  
                    u3870 0641                      u2990 047D                      u3791 02F9  
                    u3695 027D                      u3951 069D                      u3871 0640  
                    u2991 047C                      u3960 06B3                      i1l82 0E65  
                    u3970 06C3                      u3890 0662                      u3971 06C2  
                    u3891 0661                      u3980 06C7                      u3981 06C6  
                    u3965 06AE                      u3885 0654                      i1l88 0E96  
                    i1l89 0E97                      u3997 07EE                      _main 077A  
                    _val1 0067                      _val2 0063                      _pot1 006C  
                    _pot2 006B                      btemp 007E           _divisiondecimal 0F83  
                    start 000C         ___bmul@multiplier 0076               division@dec 0079  
             division@div 0028             ___fltol@sign1 0077           __end_of___fladd 0615  
                   ?_main 0070           __end_of___awdiv 0F07           __end_of___flmul 0385  
         __end_of___flsub 0CAA           __end_of___fltol 0F83                     _ANSEL 0188  
         ___awdiv@divisor 0073           ___awdiv@counter 0020                     _RCREG 001A  
            CONVdec@equiv 0044                     _SPBRG 0099                     _PORTA 0005  
                   _PORTB 0006                     _PORTC 0007                     _PORTD 0008  
                   _PORTE 0009                     _TRISA 0085                     _TRISB 0086  
                   _TRISC 0087                     _TRISD 0088                     _TRISE 0089  
                   _TXREG 0019             send1dato@dato 0073           __end_of_initLCD 0E51  
                   _disp1 005F           __end_of_sendhex 0D04                     pclath 000A  
                   status 0003                     wtemp0 007E         __end_of_ADCconfig 0DC0  
          sendhex@centena 002F           __initialization 000F              __end_of_main 07F8  
         ??_configuracion 0077                    ??_main 005C       divisiondecimal@cent 0026  
               ??_CONVdec 0045                    _ADRESH 001E          ___awdiv@dividend 0075  
 __end_of_divisiondecimal 1000                    _ANSELH 0189                    i1l2241 0E61  
                  i1l2251 0E7F                    i1l2243 0E6B                    i1l2235 0E51  
                  i1l2261 0E91                    i1l2253 0E80                    i1l2245 0E6D  
                  i1l2237 0E57                    i1l2263 0E95                    i1l2255 0E84  
                  i1l2239 0E5B                    i1l2247 0E6E                    i1l2257 0E89  
                  i1l2249 0E72                    i1l2259 0E8D                    u270_24 0E7F  
                  u271_20 0E84                    u271_21 0E83                    u272_20 0E91  
                  u272_21 0E90                    u273_20 0E95                    u265_20 0E57  
                  u273_21 0E94                    u265_21 0E56                    u266_20 0E61  
                  u266_21 0E60                    u267_20 0E6B                    u267_21 0E6A  
                  u268_20 0E72                    u268_21 0E71                    u269_20 0E7C  
                  u269_21 0E78             ADCconfig@just 0073            sendfloat@valor 004D  
        __end_of___xxtofl 06D1          __end_of_dispCHAR 0C3E                    ___bmul 0C52  
        __end_of_division 0E08                 ??___fladd 0028                 ??___awdiv 0077  
               ??___flmul 0032                 ??___flsub 0077                 ??___fltol 0048  
        ___awdiv@quotient 0022                 ??_initLCD 0076        __size_of__Umul8_16 0029  
                  saved_w 007E                 ??_sendhex 002A              ___xxtofl@arg 0026  
            ___xxtofl@exp 0025              ___xxtofl@val 0073   __end_of__initialization 0020  
              ___fltol@f1 0044       ___bmul@multiplicand 0073            __pcstackCOMMON 0070  
           ?_interrupcion 0070            _OPTION_REGbits 0081          ?_divisiondecimal 0024  
              __pbssBANK0 005F        __size_of_cursorLCD 0014         __end_of__Umul8_16 0CD3  
      __size_of_send1dato 000C            ??_interrupcion 0070                __pmaintext 077A  
                 ?___bmul 0073                __pintentry 0004        __size_of_sendfloat 00A9  
              _comandoLCD 0C3E                   _CONVdec 0D3A                _configUART 0C04  
          ADCconfig@canal 0076                 ?___xxtofl 0073            CONVdec@lectura 0077  
               ?_dispCHAR 0070                   _UARTdat 007A           sendfloat@entero 005A  
                 _UARTval 0062                __stringtab 0800                 ?_division 0078  
               _ADCconfig 0D7B           __size_of___bmul 0015                   ___fladd 0385  
                 ___awdiv 0E9E                   ___flmul 0024                   ___flsub 0C86  
                 ___fltol 0F07                   __ptext1 0CD3                   __ptext2 0F83  
                 __ptext3 06D1                   __ptext4 0C67                   __ptext5 0BF8  
                 __ptext6 0DC0                   __ptext7 0C52                   __ptext8 0E9E  
                 __ptext9 0F07                   _initLCD 0E08         __end_of_cursorLCD 0C2A  
              ??___xxtofl 0020                   _sendhex 0CD3                ??_dispCHAR 0073  
       __end_of_send1dato 0C04              cursorLCD@pos 0075      end_of_initialization 0020  
              ??_division 0024         __end_of_sendfloat 077A                _sendString 0C67  
               _RCSTAbits 0018                ?_ADCconfig 0073     __end_of_configuracion 0D3A  
             ?_comandoLCD 0070               ___fladd@grs 0076               ?_configUART 0070  
           ___xxtofl@sign 0024                 _TRISCbits 0087      __end_of_interrupcion 0E9E  
             ___flmul@grs 0039                 _TXSTAbits 0098                division@un 0078  
          __end_of___bmul 0C67       start_initialization 000F            division@conteo 0027  
           sendhex@decena 0030             sendhex@unidad 002E        divisiondecimal@dec 0025  
      divisiondecimal@div 0079               ?_sendString 0070             sendfloat@temp 0055  
     __size_of_comandoLCD 0014       __size_of_configUART 0012               ??_ADCconfig 0074  
                ??___bmul 0074                 __Umul8_16 0CAA                 ___fladd@a 0024  
               ___fladd@b 0020                  ?_CONVdec 0044     divisiondecimal@conteo 0078  
               ___flmul@a 002E                 ___flmul@b 002A               __pbssCOMMON 007A  
               ___flsub@a 0030                 ___flsub@b 0034                 ___latbits 0002  
           __pcstackBANK0 0020         __size_of___xxtofl 00BC         __size_of_dispCHAR 0014  
       __size_of_division 0048  __size_of_divisiondecimal 007D                  ?___fladd 0020  
                ?___awdiv 0073                  ?___flmul 002A                  ?___flsub 0030  
                ?___fltol 0044                ?__Umul8_16 0073                 __pstrings 0800  
     __size_of_sendString 001F     __size_of_interrupcion 004D                  ?_initLCD 0070  
                ?_sendhex 0070                 _cursorLCD 0C16                 _send1dato 0BF8  
       interrupt_function 0004         sendString@mensaje 0075                  _PIE1bits 008C  
               dispCHAR@b 0075                 _sendfloat 06D1                  _PIR1bits 000C  
        sendfloat@decimal 0059              _interrupcion 0E51                _ADCON0bits 001F  
             __stringbase 0805                _ADCON1bits 009F              ??_comandoLCD 0073  
            ??_configUART 0073          __size_of_CONVdec 0041                ?_cursorLCD 0070  
              ?_send1dato 0070              sendhex@valor 002D         divisiondecimal@un 0024  
              ?_sendfloat 004D        __end_of_comandoLCD 0C52        __end_of_configUART 0C16  
             ??__Umul8_16 0075          __size_of___fladd 0290          __size_of___awdiv 0069  
        __size_of___flmul 0361          __size_of___flsub 0024          __size_of___fltol 007C  
       ??_divisiondecimal 0027        __end_of__stringtab 0806          __size_of_initLCD 0049  
                ___xxtofl 0615                  _dispCHAR 0C2A          __size_of_sendhex 0031  
                __ptext10 0C86                  __ptext11 0385                  __ptext20 0615  
                __ptext12 0E08                  __ptext21 0024                  __ptext13 0C3E  
                __ptext22 0CAA                  __ptext14 0C2A                  __ptext23 0E51  
                __ptext15 0C16                  __ptext16 0D04                  __ptext17 0C04  
                __ptext18 0D7B                  __ptext19 0D3A                  _division 0DC0  
            ??_sendString 0074    __size_of_configuracion 0036             __size_of_main 007E  
     sendfloat@digdecimal 005B        __end_of_sendString 0C86                _INTCONbits 000B  
             ??_cursorLCD 0073                  intlevel1 0000               ??_send1dato 0073  
             ??_sendfloat 0051                 stringcode 0800                _OSCCONbits 008F  
           _configuracion 0D04    __Umul8_16@multiplicand 0073                  stringdir 0800  
                stringtab 0800             ___fladd@signs 0073              ___fladd@aexp 0074  
            ___fladd@bexp 0075      __Umul8_16@multiplier 0024         __Umul8_16@product 0020  
           comandoLCD@cmd 0075  
